ARM GAS  C:\Users\Tymek\AppData\Local\Temp\ccl7E0Lk.s 			page 1


   1              		.syntax unified
   2              		.cpu cortex-m0
   3              		.fpu softvfp
   4              		.eabi_attribute 20, 1
   5              		.eabi_attribute 21, 1
   6              		.eabi_attribute 23, 3
   7              		.eabi_attribute 24, 1
   8              		.eabi_attribute 25, 1
   9              		.eabi_attribute 26, 1
  10              		.eabi_attribute 30, 1
  11              		.eabi_attribute 34, 0
  12              		.eabi_attribute 18, 4
  13              		.thumb
  14              		.syntax unified
  15              		.file	"Bootloadable.c"
  16              		.text
  17              	.Ltext0:
  18              		.cfi_sections	.debug_frame
  19              		.section	.text.Bootloadable_WriteFlashByte,"ax",%progbits
  20              		.align	2
  21              		.code	16
  22              		.thumb_func
  23              		.type	Bootloadable_WriteFlashByte, %function
  24              	Bootloadable_WriteFlashByte:
  25              	.LFB5:
  26              		.file 1 "Generated_Source\\PSoC4\\Bootloadable.c"
   1:Generated_Source\PSoC4/Bootloadable.c **** /****************************************************************************//**
   2:Generated_Source\PSoC4/Bootloadable.c **** * \file Bootloadable.c
   3:Generated_Source\PSoC4/Bootloadable.c **** * \version 1.50
   4:Generated_Source\PSoC4/Bootloadable.c **** *
   5:Generated_Source\PSoC4/Bootloadable.c **** * \brief
   6:Generated_Source\PSoC4/Bootloadable.c **** *   Provides an API for the Bootloadable application.
   7:Generated_Source\PSoC4/Bootloadable.c **** *
   8:Generated_Source\PSoC4/Bootloadable.c **** ********************************************************************************
   9:Generated_Source\PSoC4/Bootloadable.c **** * \copyright
  10:Generated_Source\PSoC4/Bootloadable.c **** * Copyright 2008-2015, Cypress Semiconductor Corporation.  All rights reserved.
  11:Generated_Source\PSoC4/Bootloadable.c **** * You may use this file only in accordance with the license, terms, conditions,
  12:Generated_Source\PSoC4/Bootloadable.c **** * disclaimers, and limitations in the end user license agreement accompanying
  13:Generated_Source\PSoC4/Bootloadable.c **** * the software package with which this file was provided.
  14:Generated_Source\PSoC4/Bootloadable.c **** *******************************************************************************/
  15:Generated_Source\PSoC4/Bootloadable.c **** 
  16:Generated_Source\PSoC4/Bootloadable.c **** #include "Bootloadable.h"
  17:Generated_Source\PSoC4/Bootloadable.c **** 
  18:Generated_Source\PSoC4/Bootloadable.c **** /**
  19:Generated_Source\PSoC4/Bootloadable.c ****  \defgroup functions_group Functions
  20:Generated_Source\PSoC4/Bootloadable.c ****  @{
  21:Generated_Source\PSoC4/Bootloadable.c **** */
  22:Generated_Source\PSoC4/Bootloadable.c **** 
  23:Generated_Source\PSoC4/Bootloadable.c **** #if (CYDEV_PROJ_TYPE == CYDEV_PROJ_TYPE_LOADABLEANDBOOTLOADER)
  24:Generated_Source\PSoC4/Bootloadable.c **** static cystatus Bootloadable_WriteFlashByte(const uint32 address, const uint8 inputValue) CYLARGE \
  25:Generated_Source\PSoC4/Bootloadable.c ****                                ;
  26:Generated_Source\PSoC4/Bootloadable.c **** #endif /*(CYDEV_PROJ_TYPE == CYDEV_PROJ_TYPE_LOADABLEANDBOOTLOADER)*/
  27:Generated_Source\PSoC4/Bootloadable.c **** 
  28:Generated_Source\PSoC4/Bootloadable.c **** /*******************************************************************************
  29:Generated_Source\PSoC4/Bootloadable.c **** * Function Name: Bootloadable_Load
  30:Generated_Source\PSoC4/Bootloadable.c **** ****************************************************************************//**
  31:Generated_Source\PSoC4/Bootloadable.c **** *
ARM GAS  C:\Users\Tymek\AppData\Local\Temp\ccl7E0Lk.s 			page 2


  32:Generated_Source\PSoC4/Bootloadable.c **** * \brief
  33:Generated_Source\PSoC4/Bootloadable.c **** *  Schedules the Bootloader/Launcher to be launched and then performs
  34:Generated_Source\PSoC4/Bootloadable.c **** *  a software reset to launch it
  35:Generated_Source\PSoC4/Bootloadable.c **** *
  36:Generated_Source\PSoC4/Bootloadable.c **** * \return
  37:Generated_Source\PSoC4/Bootloadable.c **** *  This method will never return. It will load a new application and reset
  38:Generated_Source\PSoC4/Bootloadable.c **** *  the device.
  39:Generated_Source\PSoC4/Bootloadable.c **** *
  40:Generated_Source\PSoC4/Bootloadable.c **** *******************************************************************************/
  41:Generated_Source\PSoC4/Bootloadable.c **** void Bootloadable_Load(void) 
  42:Generated_Source\PSoC4/Bootloadable.c **** {
  43:Generated_Source\PSoC4/Bootloadable.c ****     /* Schedule Bootloader to start after reset */
  44:Generated_Source\PSoC4/Bootloadable.c ****     Bootloadable_SET_RUN_TYPE(Bootloadable_SCHEDULE_BTLDR);
  45:Generated_Source\PSoC4/Bootloadable.c **** 
  46:Generated_Source\PSoC4/Bootloadable.c ****     CySoftwareReset();
  47:Generated_Source\PSoC4/Bootloadable.c **** }
  48:Generated_Source\PSoC4/Bootloadable.c **** 
  49:Generated_Source\PSoC4/Bootloadable.c **** #if (CYDEV_PROJ_TYPE == CYDEV_PROJ_TYPE_LOADABLEANDBOOTLOADER)
  50:Generated_Source\PSoC4/Bootloadable.c **** /*******************************************************************************
  51:Generated_Source\PSoC4/Bootloadable.c **** * Function Name: Bootloadable_GetActiveApplication
  52:Generated_Source\PSoC4/Bootloadable.c **** ****************************************************************************//**
  53:Generated_Source\PSoC4/Bootloadable.c **** *
  54:Generated_Source\PSoC4/Bootloadable.c **** * \brief
  55:Generated_Source\PSoC4/Bootloadable.c **** *   Gets the application which will be loaded after a next reset event.
  56:Generated_Source\PSoC4/Bootloadable.c **** *   NOTE Intended for the combination project type ONLY!
  57:Generated_Source\PSoC4/Bootloadable.c **** *
  58:Generated_Source\PSoC4/Bootloadable.c **** * \return 
  59:Generated_Source\PSoC4/Bootloadable.c **** *  A number of the current active application set in the metadata section.
  60:Generated_Source\PSoC4/Bootloadable.c **** *  \n  0 - app#0 is set as active.
  61:Generated_Source\PSoC4/Bootloadable.c **** *  \n  1 - app#1 is set as active.
  62:Generated_Source\PSoC4/Bootloadable.c **** *
  63:Generated_Source\PSoC4/Bootloadable.c **** * \note If neither of the applications is set active, then the API returns 0x02.
  64:Generated_Source\PSoC4/Bootloadable.c **** *
  65:Generated_Source\PSoC4/Bootloadable.c **** *******************************************************************************/
  66:Generated_Source\PSoC4/Bootloadable.c **** uint8 Bootloadable_GetActiveApplication(void) CYSMALL \
  67:Generated_Source\PSoC4/Bootloadable.c ****                           
  68:Generated_Source\PSoC4/Bootloadable.c **** {   
  69:Generated_Source\PSoC4/Bootloadable.c ****     uint8 result = Bootloadable_MD_BTLDB_ACTIVE_NONE;
  70:Generated_Source\PSoC4/Bootloadable.c ****     
  71:Generated_Source\PSoC4/Bootloadable.c ****     if (0u != Bootloadable_GET_CODE_DATA( \
  72:Generated_Source\PSoC4/Bootloadable.c ****               Bootloadable_MD_BTLDB_ACTIVE_OFFSET(Bootloadable_MD_BTLDB_ACTIVE_0))) 
  73:Generated_Source\PSoC4/Bootloadable.c ****     {
  74:Generated_Source\PSoC4/Bootloadable.c ****         result = Bootloadable_MD_BTLDB_ACTIVE_0;
  75:Generated_Source\PSoC4/Bootloadable.c ****     }
  76:Generated_Source\PSoC4/Bootloadable.c ****     else if (0u != Bootloadable_GET_CODE_DATA( \
  77:Generated_Source\PSoC4/Bootloadable.c ****                    Bootloadable_MD_BTLDB_ACTIVE_OFFSET(Bootloadable_MD_BTLDB_ACTIVE_1)))
  78:Generated_Source\PSoC4/Bootloadable.c ****     {
  79:Generated_Source\PSoC4/Bootloadable.c ****         result = Bootloadable_MD_BTLDB_ACTIVE_1;    
  80:Generated_Source\PSoC4/Bootloadable.c ****     }
  81:Generated_Source\PSoC4/Bootloadable.c ****     else
  82:Generated_Source\PSoC4/Bootloadable.c ****     {
  83:Generated_Source\PSoC4/Bootloadable.c ****         /*Do nothing, result is none*/
  84:Generated_Source\PSoC4/Bootloadable.c ****     }
  85:Generated_Source\PSoC4/Bootloadable.c ****     
  86:Generated_Source\PSoC4/Bootloadable.c ****     return (result);
  87:Generated_Source\PSoC4/Bootloadable.c **** }
  88:Generated_Source\PSoC4/Bootloadable.c **** 
ARM GAS  C:\Users\Tymek\AppData\Local\Temp\ccl7E0Lk.s 			page 3


  89:Generated_Source\PSoC4/Bootloadable.c **** /*******************************************************************************
  90:Generated_Source\PSoC4/Bootloadable.c **** * Function Name: Bootloadable_SetActiveApplication
  91:Generated_Source\PSoC4/Bootloadable.c **** ****************************************************************************//**
  92:Generated_Source\PSoC4/Bootloadable.c **** *
  93:Generated_Source\PSoC4/Bootloadable.c **** * \brief 
  94:Generated_Source\PSoC4/Bootloadable.c **** *   Sets the application which will be loaded after a next reset event.          
  95:Generated_Source\PSoC4/Bootloadable.c **** *   
  96:Generated_Source\PSoC4/Bootloadable.c **** * \details
  97:Generated_Source\PSoC4/Bootloadable.c **** * Theory: 
  98:Generated_Source\PSoC4/Bootloadable.c **** *   This API sets in the Flash (metadata section) the given active application 
  99:Generated_Source\PSoC4/Bootloadable.c **** *   number.
 100:Generated_Source\PSoC4/Bootloadable.c **** *          
 101:Generated_Source\PSoC4/Bootloadable.c **** *   NOTE The active application number is not set directly, but the boolean 
 102:Generated_Source\PSoC4/Bootloadable.c **** *   mark instead means that the application is active or not for the relative 
 103:Generated_Source\PSoC4/Bootloadable.c **** *   metadata. Both metadata sections are updated. For example, if the second 
 104:Generated_Source\PSoC4/Bootloadable.c **** *   application is to be set active, then in the metadata section for the first 
 105:Generated_Source\PSoC4/Bootloadable.c **** *   application there will be a "0" written, which means that it is not active, and 
 106:Generated_Source\PSoC4/Bootloadable.c **** *   for the second metadata section there will be a "1" written, which means that it is 
 107:Generated_Source\PSoC4/Bootloadable.c **** *   active. 
 108:Generated_Source\PSoC4/Bootloadable.c **** *
 109:Generated_Source\PSoC4/Bootloadable.c **** *   NOTE Intended for the combination project type ONLY!
 110:Generated_Source\PSoC4/Bootloadable.c **** *
 111:Generated_Source\PSoC4/Bootloadable.c **** * \param appId  
 112:Generated_Source\PSoC4/Bootloadable.c **** *   The active application number to be written to flash (metadata section) 
 113:Generated_Source\PSoC4/Bootloadable.c **** *   NOTE Possible values are:
 114:Generated_Source\PSoC4/Bootloadable.c **** *   0 - for the first application
 115:Generated_Source\PSoC4/Bootloadable.c **** *   1 - for the second application.
 116:Generated_Source\PSoC4/Bootloadable.c **** *   Any other number is considered invalid. 
 117:Generated_Source\PSoC4/Bootloadable.c **** *
 118:Generated_Source\PSoC4/Bootloadable.c **** * \return 
 119:Generated_Source\PSoC4/Bootloadable.c **** *   A status of writing to flash operation.
 120:Generated_Source\PSoC4/Bootloadable.c **** *   \n CYRET_SUCCESS - Returned if appId was successfully changed. 
 121:Generated_Source\PSoC4/Bootloadable.c **** *   \n CYRET_BAD_PARAM - Returned if the parameter appID passed to the function has the 
 122:Generated_Source\PSoC4/Bootloadable.c **** *                       same value as the active application ID. 
 123:Generated_Source\PSoC4/Bootloadable.c **** *   \note - The other non-zero value is considered as a failure during writing to flash.  
 124:Generated_Source\PSoC4/Bootloadable.c **** *
 125:Generated_Source\PSoC4/Bootloadable.c **** *   \note - This API does not update Bootloader_activeApp variable.
 126:Generated_Source\PSoC4/Bootloadable.c **** *
 127:Generated_Source\PSoC4/Bootloadable.c **** *******************************************************************************/
 128:Generated_Source\PSoC4/Bootloadable.c **** cystatus Bootloadable_SetActiveApplication(uint8 appId) CYSMALL \
 129:Generated_Source\PSoC4/Bootloadable.c ****                 
 130:Generated_Source\PSoC4/Bootloadable.c **** {
 131:Generated_Source\PSoC4/Bootloadable.c ****     cystatus result = CYRET_SUCCESS;
 132:Generated_Source\PSoC4/Bootloadable.c **** 
 133:Generated_Source\PSoC4/Bootloadable.c ****     uint8 CYDATA idx;
 134:Generated_Source\PSoC4/Bootloadable.c ****     
 135:Generated_Source\PSoC4/Bootloadable.c ****     /* If invalid application number */
 136:Generated_Source\PSoC4/Bootloadable.c ****     if (appId > Bootloadable_MD_BTLDB_ACTIVE_1)
 137:Generated_Source\PSoC4/Bootloadable.c ****     {
 138:Generated_Source\PSoC4/Bootloadable.c ****         result = CYRET_BAD_PARAM;
 139:Generated_Source\PSoC4/Bootloadable.c ****     }
 140:Generated_Source\PSoC4/Bootloadable.c ****     else
 141:Generated_Source\PSoC4/Bootloadable.c ****     {
 142:Generated_Source\PSoC4/Bootloadable.c ****         /* If appID has same value as active application ID */
 143:Generated_Source\PSoC4/Bootloadable.c ****         if (1u == Bootloadable_GET_CODE_DATA(Bootloadable_MD_BTLDB_ACTIVE_OFFSET(appId)))
 144:Generated_Source\PSoC4/Bootloadable.c ****         {
 145:Generated_Source\PSoC4/Bootloadable.c ****             result = CYRET_BAD_PARAM;
ARM GAS  C:\Users\Tymek\AppData\Local\Temp\ccl7E0Lk.s 			page 4


 146:Generated_Source\PSoC4/Bootloadable.c ****         }
 147:Generated_Source\PSoC4/Bootloadable.c ****         else
 148:Generated_Source\PSoC4/Bootloadable.c ****         {
 149:Generated_Source\PSoC4/Bootloadable.c ****             /* Updating metadata section */
 150:Generated_Source\PSoC4/Bootloadable.c ****             for(idx = 0u; idx < Bootloadable_MAX_NUM_OF_BTLDB; idx++)
 151:Generated_Source\PSoC4/Bootloadable.c ****             {
 152:Generated_Source\PSoC4/Bootloadable.c ****                 result |= Bootloadable_WriteFlashByte((uint32) Bootloadable_MD_BTLDB_ACTIVE_OFFSET(
 153:Generated_Source\PSoC4/Bootloadable.c ****                                                                                             (uint8)
 154:Generated_Source\PSoC4/Bootloadable.c ****             }
 155:Generated_Source\PSoC4/Bootloadable.c ****         }
 156:Generated_Source\PSoC4/Bootloadable.c ****     }
 157:Generated_Source\PSoC4/Bootloadable.c ****     
 158:Generated_Source\PSoC4/Bootloadable.c ****     return (result);
 159:Generated_Source\PSoC4/Bootloadable.c **** }
 160:Generated_Source\PSoC4/Bootloadable.c **** 
 161:Generated_Source\PSoC4/Bootloadable.c **** /*******************************************************************************
 162:Generated_Source\PSoC4/Bootloadable.c **** * Function Name: Bootloadable_WriteFlashByte
 163:Generated_Source\PSoC4/Bootloadable.c **** ****************************************************************************//**
 164:Generated_Source\PSoC4/Bootloadable.c **** *
 165:Generated_Source\PSoC4/Bootloadable.c **** * \brief 
 166:Generated_Source\PSoC4/Bootloadable.c **** *   This API writes to flash the specified data.
 167:Generated_Source\PSoC4/Bootloadable.c **** *
 168:Generated_Source\PSoC4/Bootloadable.c **** * \param address 
 169:Generated_Source\PSoC4/Bootloadable.c **** *   The address in flash.
 170:Generated_Source\PSoC4/Bootloadable.c **** *
 171:Generated_Source\PSoC4/Bootloadable.c **** * \param inputValue 
 172:Generated_Source\PSoC4/Bootloadable.c **** *   One-byte data.
 173:Generated_Source\PSoC4/Bootloadable.c **** *
 174:Generated_Source\PSoC4/Bootloadable.c **** * \return 
 175:Generated_Source\PSoC4/Bootloadable.c **** *   A status of the writing to flash procedure.
 176:Generated_Source\PSoC4/Bootloadable.c **** *
 177:Generated_Source\PSoC4/Bootloadable.c **** *******************************************************************************/
 178:Generated_Source\PSoC4/Bootloadable.c **** static cystatus Bootloadable_WriteFlashByte(const uint32 address, const uint8 inputValue) CYLARGE \
 179:Generated_Source\PSoC4/Bootloadable.c ****                                
 180:Generated_Source\PSoC4/Bootloadable.c **** {
  27              		.loc 1 180 0
  28              		.cfi_startproc
  29              		@ args = 0, pretend = 0, frame = 256
  30              		@ frame_needed = 0, uses_anonymous_args = 0
  31              	.LVL0:
  32 0000 70B5     		push	{r4, r5, r6, lr}
  33              		.cfi_def_cfa_offset 16
  34              		.cfi_offset 4, -16
  35              		.cfi_offset 5, -12
  36              		.cfi_offset 6, -8
  37              		.cfi_offset 14, -4
  38 0002 C0B0     		sub	sp, sp, #256
  39              		.cfi_def_cfa_offset 272
  40 0004 0500     		movs	r5, r0
  41              	.LVL1:
 181:Generated_Source\PSoC4/Bootloadable.c ****     cystatus result = CYRET_SUCCESS;
 182:Generated_Source\PSoC4/Bootloadable.c ****     uint32 flsAddr = address - CYDEV_FLASH_BASE;
 183:Generated_Source\PSoC4/Bootloadable.c ****     uint8  rowData[CYDEV_FLS_ROW_SIZE];
 184:Generated_Source\PSoC4/Bootloadable.c **** 
 185:Generated_Source\PSoC4/Bootloadable.c ****     #if !(CY_PSOC4)
 186:Generated_Source\PSoC4/Bootloadable.c ****         uint8 arrayId = ( uint8 )(flsAddr / CYDEV_FLS_SECTOR_SIZE);
 187:Generated_Source\PSoC4/Bootloadable.c ****     #endif  /* !(CY_PSOC4) */
ARM GAS  C:\Users\Tymek\AppData\Local\Temp\ccl7E0Lk.s 			page 5


 188:Generated_Source\PSoC4/Bootloadable.c **** 
 189:Generated_Source\PSoC4/Bootloadable.c ****     #if (CY_PSOC4)
 190:Generated_Source\PSoC4/Bootloadable.c ****         uint16 rowNum = ( uint16 )(flsAddr / CYDEV_FLS_ROW_SIZE);
  42              		.loc 1 190 0
  43 0006 000A     		lsrs	r0, r0, #8
  44              	.LVL2:
 191:Generated_Source\PSoC4/Bootloadable.c ****     #else
 192:Generated_Source\PSoC4/Bootloadable.c ****         uint16 rowNum = ( uint16 )((flsAddr % CYDEV_FLS_SECTOR_SIZE) / CYDEV_FLS_ROW_SIZE);
 193:Generated_Source\PSoC4/Bootloadable.c ****     #endif  /* (CY_PSOC4) */
 194:Generated_Source\PSoC4/Bootloadable.c **** 
 195:Generated_Source\PSoC4/Bootloadable.c ****     uint32 baseAddr = address - (address % CYDEV_FLS_ROW_SIZE);
  45              		.loc 1 195 0
  46 0008 FF23     		movs	r3, #255
  47 000a 2C00     		movs	r4, r5
  48 000c 9C43     		bics	r4, r3
  49              	.LVL3:
 196:Generated_Source\PSoC4/Bootloadable.c ****     uint16 idx;
 197:Generated_Source\PSoC4/Bootloadable.c **** 
 198:Generated_Source\PSoC4/Bootloadable.c ****     for(idx = 0u; idx < CYDEV_FLS_ROW_SIZE; idx++)
  50              		.loc 1 198 0
  51 000e 0023     		movs	r3, #0
  52 0010 04E0     		b	.L2
  53              	.LVL4:
  54              	.L3:
 199:Generated_Source\PSoC4/Bootloadable.c ****     {
 200:Generated_Source\PSoC4/Bootloadable.c ****         rowData[idx] = (uint8)Bootloadable_GET_CODE_DATA(baseAddr + idx);
  55              		.loc 1 200 0 discriminator 3
  56 0012 1A5D     		ldrb	r2, [r3, r4]
  57 0014 6E46     		mov	r6, sp
  58 0016 F254     		strb	r2, [r6, r3]
 198:Generated_Source\PSoC4/Bootloadable.c ****     {
  59              		.loc 1 198 0 discriminator 3
  60 0018 0133     		adds	r3, r3, #1
  61              	.LVL5:
  62 001a 9BB2     		uxth	r3, r3
  63              	.LVL6:
  64              	.L2:
 198:Generated_Source\PSoC4/Bootloadable.c ****     {
  65              		.loc 1 198 0 is_stmt 0 discriminator 1
  66 001c FF2B     		cmp	r3, #255
  67 001e F8D9     		bls	.L3
 201:Generated_Source\PSoC4/Bootloadable.c ****     }
 202:Generated_Source\PSoC4/Bootloadable.c **** 
 203:Generated_Source\PSoC4/Bootloadable.c ****     rowData[address % CYDEV_FLS_ROW_SIZE] = inputValue;
  68              		.loc 1 203 0 is_stmt 1
  69 0020 FF23     		movs	r3, #255
  70              	.LVL7:
  71 0022 1D40     		ands	r5, r3
  72              	.LVL8:
  73 0024 6B46     		mov	r3, sp
  74 0026 5955     		strb	r1, [r3, r5]
 204:Generated_Source\PSoC4/Bootloadable.c **** 
 205:Generated_Source\PSoC4/Bootloadable.c ****     #if(CY_PSOC4)
 206:Generated_Source\PSoC4/Bootloadable.c ****         result = CySysFlashWriteRow((uint32) rowNum, rowData);
  75              		.loc 1 206 0
  76 0028 0004     		lsls	r0, r0, #16
  77              	.LVL9:
ARM GAS  C:\Users\Tymek\AppData\Local\Temp\ccl7E0Lk.s 			page 6


  78 002a 000C     		lsrs	r0, r0, #16
  79 002c 6946     		mov	r1, sp
  80              	.LVL10:
  81 002e FFF7FEFF 		bl	CySysFlashWriteRow
  82              	.LVL11:
 207:Generated_Source\PSoC4/Bootloadable.c ****     #else
 208:Generated_Source\PSoC4/Bootloadable.c ****         result = CyWriteRowData(arrayId, rowNum, rowData);
 209:Generated_Source\PSoC4/Bootloadable.c ****     #endif  /* (CY_PSOC4) */
 210:Generated_Source\PSoC4/Bootloadable.c **** 
 211:Generated_Source\PSoC4/Bootloadable.c ****     #if(CY_PSOC5)
 212:Generated_Source\PSoC4/Bootloadable.c ****         /***************************************************************************
 213:Generated_Source\PSoC4/Bootloadable.c ****         * When writing to flash, data in the instruction cache can become stale.
 214:Generated_Source\PSoC4/Bootloadable.c ****         * Therefore, the cache data does not correlate to the data just written to
 215:Generated_Source\PSoC4/Bootloadable.c ****         * flash. A call to CyFlushCache() is required to invalidate the data in the
 216:Generated_Source\PSoC4/Bootloadable.c ****         * cache and force fresh information to be loaded from flash.
 217:Generated_Source\PSoC4/Bootloadable.c ****         ***************************************************************************/
 218:Generated_Source\PSoC4/Bootloadable.c ****         CyFlushCache();
 219:Generated_Source\PSoC4/Bootloadable.c ****     #endif /* (CY_PSOC5) */
 220:Generated_Source\PSoC4/Bootloadable.c ****     return (result);
 221:Generated_Source\PSoC4/Bootloadable.c **** }
  83              		.loc 1 221 0
  84 0032 40B0     		add	sp, sp, #256
  85              		@ sp needed
  86              	.LVL12:
  87 0034 70BD     		pop	{r4, r5, r6, pc}
  88              		.cfi_endproc
  89              	.LFE5:
  90              		.size	Bootloadable_WriteFlashByte, .-Bootloadable_WriteFlashByte
  91 0036 C046     		.section	.text.Bootloadable_Load,"ax",%progbits
  92              		.align	2
  93              		.global	Bootloadable_Load
  94              		.code	16
  95              		.thumb_func
  96              		.type	Bootloadable_Load, %function
  97              	Bootloadable_Load:
  98              	.LFB2:
  42:Generated_Source\PSoC4/Bootloadable.c ****     /* Schedule Bootloader to start after reset */
  99              		.loc 1 42 0
 100              		.cfi_startproc
 101              		@ args = 0, pretend = 0, frame = 0
 102              		@ frame_needed = 0, uses_anonymous_args = 0
 103 0000 10B5     		push	{r4, lr}
 104              		.cfi_def_cfa_offset 8
 105              		.cfi_offset 4, -8
 106              		.cfi_offset 14, -4
  44:Generated_Source\PSoC4/Bootloadable.c **** 
 107              		.loc 1 44 0
 108 0002 4022     		movs	r2, #64
 109 0004 024B     		ldr	r3, .L5
 110 0006 1A60     		str	r2, [r3]
  46:Generated_Source\PSoC4/Bootloadable.c **** }
 111              		.loc 1 46 0
 112 0008 FFF7FEFF 		bl	CySoftwareReset
 113              	.LVL13:
  47:Generated_Source\PSoC4/Bootloadable.c **** 
 114              		.loc 1 47 0
 115              		@ sp needed
ARM GAS  C:\Users\Tymek\AppData\Local\Temp\ccl7E0Lk.s 			page 7


 116 000c 10BD     		pop	{r4, pc}
 117              	.L6:
 118 000e C046     		.align	2
 119              	.L5:
 120 0010 00000000 		.word	cyBtldrRunType
 121              		.cfi_endproc
 122              	.LFE2:
 123              		.size	Bootloadable_Load, .-Bootloadable_Load
 124              		.section	.text.Bootloadable_GetActiveApplication,"ax",%progbits
 125              		.align	2
 126              		.global	Bootloadable_GetActiveApplication
 127              		.code	16
 128              		.thumb_func
 129              		.type	Bootloadable_GetActiveApplication, %function
 130              	Bootloadable_GetActiveApplication:
 131              	.LFB3:
  68:Generated_Source\PSoC4/Bootloadable.c ****     uint8 result = Bootloadable_MD_BTLDB_ACTIVE_NONE;
 132              		.loc 1 68 0
 133              		.cfi_startproc
 134              		@ args = 0, pretend = 0, frame = 0
 135              		@ frame_needed = 0, uses_anonymous_args = 0
 136              		@ link register save eliminated.
 137              	.LVL14:
  71:Generated_Source\PSoC4/Bootloadable.c ****               Bootloadable_MD_BTLDB_ACTIVE_OFFSET(Bootloadable_MD_BTLDB_ACTIVE_0))) 
 138              		.loc 1 71 0
 139 0000 064B     		ldr	r3, .L11
 140 0002 1B78     		ldrb	r3, [r3]
 141 0004 002B     		cmp	r3, #0
 142 0006 05D1     		bne	.L9
  76:Generated_Source\PSoC4/Bootloadable.c ****                    Bootloadable_MD_BTLDB_ACTIVE_OFFSET(Bootloadable_MD_BTLDB_ACTIVE_1)))
 143              		.loc 1 76 0
 144 0008 054B     		ldr	r3, .L11+4
 145 000a 1B78     		ldrb	r3, [r3]
 146 000c 002B     		cmp	r3, #0
 147 000e 03D1     		bne	.L10
  69:Generated_Source\PSoC4/Bootloadable.c ****     
 148              		.loc 1 69 0
 149 0010 0220     		movs	r0, #2
 150 0012 02E0     		b	.L8
 151              	.L9:
  74:Generated_Source\PSoC4/Bootloadable.c ****     }
 152              		.loc 1 74 0
 153 0014 0020     		movs	r0, #0
 154 0016 00E0     		b	.L8
 155              	.L10:
  79:Generated_Source\PSoC4/Bootloadable.c ****     }
 156              		.loc 1 79 0
 157 0018 0120     		movs	r0, #1
 158              	.L8:
 159              	.LVL15:
  87:Generated_Source\PSoC4/Bootloadable.c **** 
 160              		.loc 1 87 0
 161              		@ sp needed
 162 001a 7047     		bx	lr
 163              	.L12:
 164              		.align	2
 165              	.L11:
ARM GAS  C:\Users\Tymek\AppData\Local\Temp\ccl7E0Lk.s 			page 8


 166 001c D0FF0300 		.word	262096
 167 0020 D0FE0300 		.word	261840
 168              		.cfi_endproc
 169              	.LFE3:
 170              		.size	Bootloadable_GetActiveApplication, .-Bootloadable_GetActiveApplication
 171              		.section	.text.Bootloadable_SetActiveApplication,"ax",%progbits
 172              		.align	2
 173              		.global	Bootloadable_SetActiveApplication
 174              		.code	16
 175              		.thumb_func
 176              		.type	Bootloadable_SetActiveApplication, %function
 177              	Bootloadable_SetActiveApplication:
 178              	.LFB4:
 130:Generated_Source\PSoC4/Bootloadable.c ****     cystatus result = CYRET_SUCCESS;
 179              		.loc 1 130 0
 180              		.cfi_startproc
 181              		@ args = 0, pretend = 0, frame = 0
 182              		@ frame_needed = 0, uses_anonymous_args = 0
 183              	.LVL16:
 184 0000 70B5     		push	{r4, r5, r6, lr}
 185              		.cfi_def_cfa_offset 16
 186              		.cfi_offset 4, -16
 187              		.cfi_offset 5, -12
 188              		.cfi_offset 6, -8
 189              		.cfi_offset 14, -4
 190 0002 0500     		movs	r5, r0
 191              	.LVL17:
 136:Generated_Source\PSoC4/Bootloadable.c ****     {
 192              		.loc 1 136 0
 193 0004 0128     		cmp	r0, #1
 194 0006 1DD8     		bhi	.L17
 143:Generated_Source\PSoC4/Bootloadable.c ****         {
 195              		.loc 1 143 0
 196 0008 0206     		lsls	r2, r0, #24
 197 000a 121A     		subs	r2, r2, r0
 198 000c 1302     		lsls	r3, r2, #8
 199 000e 104A     		ldr	r2, .L19
 200 0010 9446     		mov	ip, r2
 201 0012 6344     		add	r3, r3, ip
 202 0014 1B78     		ldrb	r3, [r3]
 203 0016 012B     		cmp	r3, #1
 204 0018 16D0     		beq	.L18
 205 001a 0024     		movs	r4, #0
 206 001c 0026     		movs	r6, #0
 207 001e 0EE0     		b	.L15
 208              	.LVL18:
 209              	.L16:
 152:Generated_Source\PSoC4/Bootloadable.c ****                                                                                             (uint8)
 210              		.loc 1 152 0 discriminator 3
 211 0020 611B     		subs	r1, r4, r5
 212 0022 4B42     		rsbs	r3, r1, #0
 213 0024 5941     		adcs	r1, r1, r3
 214 0026 C9B2     		uxtb	r1, r1
 215 0028 2306     		lsls	r3, r4, #24
 216 002a 1B1B     		subs	r3, r3, r4
 217 002c 1802     		lsls	r0, r3, #8
 218 002e 084B     		ldr	r3, .L19
ARM GAS  C:\Users\Tymek\AppData\Local\Temp\ccl7E0Lk.s 			page 9


 219 0030 9C46     		mov	ip, r3
 220 0032 6044     		add	r0, r0, ip
 221 0034 FFF7FEFF 		bl	Bootloadable_WriteFlashByte
 222              	.LVL19:
 223 0038 0643     		orrs	r6, r0
 224              	.LVL20:
 150:Generated_Source\PSoC4/Bootloadable.c ****             {
 225              		.loc 1 150 0 discriminator 3
 226 003a 0134     		adds	r4, r4, #1
 227              	.LVL21:
 228 003c E4B2     		uxtb	r4, r4
 229              	.LVL22:
 230              	.L15:
 150:Generated_Source\PSoC4/Bootloadable.c ****             {
 231              		.loc 1 150 0 is_stmt 0 discriminator 1
 232 003e 012C     		cmp	r4, #1
 233 0040 EED9     		bls	.L16
 234 0042 02E0     		b	.L14
 235              	.LVL23:
 236              	.L17:
 138:Generated_Source\PSoC4/Bootloadable.c ****     }
 237              		.loc 1 138 0 is_stmt 1
 238 0044 0126     		movs	r6, #1
 239 0046 00E0     		b	.L14
 240              	.L18:
 145:Generated_Source\PSoC4/Bootloadable.c ****         }
 241              		.loc 1 145 0
 242 0048 0126     		movs	r6, #1
 243              	.LVL24:
 244              	.L14:
 159:Generated_Source\PSoC4/Bootloadable.c **** 
 245              		.loc 1 159 0
 246 004a 3000     		movs	r0, r6
 247              		@ sp needed
 248              	.LVL25:
 249 004c 70BD     		pop	{r4, r5, r6, pc}
 250              	.L20:
 251 004e C046     		.align	2
 252              	.L19:
 253 0050 D0FF0300 		.word	262096
 254              		.cfi_endproc
 255              	.LFE4:
 256              		.size	Bootloadable_SetActiveApplication, .-Bootloadable_SetActiveApplication
 257              		.section	.text.Bootloadable_SetFlashByte,"ax",%progbits
 258              		.align	2
 259              		.global	Bootloadable_SetFlashByte
 260              		.code	16
 261              		.thumb_func
 262              		.type	Bootloadable_SetFlashByte, %function
 263              	Bootloadable_SetFlashByte:
 264              	.LFB6:
 222:Generated_Source\PSoC4/Bootloadable.c **** #endif /*(CYDEV_PROJ_TYPE == CYDEV_PROJ_TYPE_LOADABLEANDBOOTLOADER)*/
 223:Generated_Source\PSoC4/Bootloadable.c **** /** @} functions_group */
 224:Generated_Source\PSoC4/Bootloadable.c **** 
 225:Generated_Source\PSoC4/Bootloadable.c **** /*******************************************************************************
 226:Generated_Source\PSoC4/Bootloadable.c **** * The following code is OBSOLETE and must not be used.
 227:Generated_Source\PSoC4/Bootloadable.c **** *******************************************************************************/
ARM GAS  C:\Users\Tymek\AppData\Local\Temp\ccl7E0Lk.s 			page 10


 228:Generated_Source\PSoC4/Bootloadable.c **** void Bootloadable_SetFlashByte(uint32 address, uint8 runType) 
 229:Generated_Source\PSoC4/Bootloadable.c **** {
 265              		.loc 1 229 0
 266              		.cfi_startproc
 267              		@ args = 0, pretend = 0, frame = 256
 268              		@ frame_needed = 0, uses_anonymous_args = 0
 269              	.LVL26:
 270 0000 70B5     		push	{r4, r5, r6, lr}
 271              		.cfi_def_cfa_offset 16
 272              		.cfi_offset 4, -16
 273              		.cfi_offset 5, -12
 274              		.cfi_offset 6, -8
 275              		.cfi_offset 14, -4
 276 0002 C0B0     		sub	sp, sp, #256
 277              		.cfi_def_cfa_offset 272
 278 0004 0500     		movs	r5, r0
 279              	.LVL27:
 230:Generated_Source\PSoC4/Bootloadable.c ****     uint32 flsAddr = address - CYDEV_FLASH_BASE;
 231:Generated_Source\PSoC4/Bootloadable.c ****     uint8  rowData[CYDEV_FLS_ROW_SIZE];
 232:Generated_Source\PSoC4/Bootloadable.c **** 
 233:Generated_Source\PSoC4/Bootloadable.c ****     #if !(CY_PSOC4)
 234:Generated_Source\PSoC4/Bootloadable.c ****         uint8 arrayId = ( uint8 )(flsAddr / CYDEV_FLS_SECTOR_SIZE);
 235:Generated_Source\PSoC4/Bootloadable.c ****     #endif  /* !(CY_PSOC4) */
 236:Generated_Source\PSoC4/Bootloadable.c **** 
 237:Generated_Source\PSoC4/Bootloadable.c ****     #if (CY_PSOC4)
 238:Generated_Source\PSoC4/Bootloadable.c ****         uint16 rowNum = ( uint16 )(flsAddr / CYDEV_FLS_ROW_SIZE);
 280              		.loc 1 238 0
 281 0006 000A     		lsrs	r0, r0, #8
 282              	.LVL28:
 239:Generated_Source\PSoC4/Bootloadable.c ****     #else
 240:Generated_Source\PSoC4/Bootloadable.c ****         uint16 rowNum = ( uint16 )((flsAddr % CYDEV_FLS_SECTOR_SIZE) / CYDEV_FLS_ROW_SIZE);
 241:Generated_Source\PSoC4/Bootloadable.c ****     #endif  /* (CY_PSOC4) */
 242:Generated_Source\PSoC4/Bootloadable.c **** 
 243:Generated_Source\PSoC4/Bootloadable.c ****     uint32 baseAddr = address - (address % CYDEV_FLS_ROW_SIZE);
 283              		.loc 1 243 0
 284 0008 FF23     		movs	r3, #255
 285 000a 2C00     		movs	r4, r5
 286 000c 9C43     		bics	r4, r3
 287              	.LVL29:
 244:Generated_Source\PSoC4/Bootloadable.c ****     uint16 idx;
 245:Generated_Source\PSoC4/Bootloadable.c **** 
 246:Generated_Source\PSoC4/Bootloadable.c **** 
 247:Generated_Source\PSoC4/Bootloadable.c ****     for (idx = 0u; idx < CYDEV_FLS_ROW_SIZE; idx++)
 288              		.loc 1 247 0
 289 000e 0023     		movs	r3, #0
 290 0010 04E0     		b	.L22
 291              	.LVL30:
 292              	.L23:
 248:Generated_Source\PSoC4/Bootloadable.c ****     {
 249:Generated_Source\PSoC4/Bootloadable.c ****         rowData[idx] = Bootloadable_GET_CODE_DATA(baseAddr + idx);
 293              		.loc 1 249 0 discriminator 3
 294 0012 1A5D     		ldrb	r2, [r3, r4]
 295 0014 6E46     		mov	r6, sp
 296 0016 F254     		strb	r2, [r6, r3]
 247:Generated_Source\PSoC4/Bootloadable.c ****     {
 297              		.loc 1 247 0 discriminator 3
 298 0018 0133     		adds	r3, r3, #1
ARM GAS  C:\Users\Tymek\AppData\Local\Temp\ccl7E0Lk.s 			page 11


 299              	.LVL31:
 300 001a 9BB2     		uxth	r3, r3
 301              	.LVL32:
 302              	.L22:
 247:Generated_Source\PSoC4/Bootloadable.c ****     {
 303              		.loc 1 247 0 is_stmt 0 discriminator 1
 304 001c FF2B     		cmp	r3, #255
 305 001e F8D9     		bls	.L23
 250:Generated_Source\PSoC4/Bootloadable.c ****     }
 251:Generated_Source\PSoC4/Bootloadable.c ****     rowData[address % CYDEV_FLS_ROW_SIZE] = runType;
 306              		.loc 1 251 0 is_stmt 1
 307 0020 FF23     		movs	r3, #255
 308              	.LVL33:
 309 0022 1D40     		ands	r5, r3
 310              	.LVL34:
 311 0024 6B46     		mov	r3, sp
 312 0026 5955     		strb	r1, [r3, r5]
 252:Generated_Source\PSoC4/Bootloadable.c **** 
 253:Generated_Source\PSoC4/Bootloadable.c ****     #if(CY_PSOC4)
 254:Generated_Source\PSoC4/Bootloadable.c ****         (void) CySysFlashWriteRow((uint32) rowNum, rowData);
 313              		.loc 1 254 0
 314 0028 0004     		lsls	r0, r0, #16
 315              	.LVL35:
 316 002a 000C     		lsrs	r0, r0, #16
 317 002c 6946     		mov	r1, sp
 318              	.LVL36:
 319 002e FFF7FEFF 		bl	CySysFlashWriteRow
 320              	.LVL37:
 255:Generated_Source\PSoC4/Bootloadable.c ****     #else
 256:Generated_Source\PSoC4/Bootloadable.c ****         (void) CyWriteRowData(arrayId, rowNum, rowData);
 257:Generated_Source\PSoC4/Bootloadable.c ****     #endif  /* (CY_PSOC4) */
 258:Generated_Source\PSoC4/Bootloadable.c **** 
 259:Generated_Source\PSoC4/Bootloadable.c ****     #if(CY_PSOC5)
 260:Generated_Source\PSoC4/Bootloadable.c ****         /***************************************************************************
 261:Generated_Source\PSoC4/Bootloadable.c ****         * When writing to flash, data in the instruction cache can become obsolete.
 262:Generated_Source\PSoC4/Bootloadable.c ****         * Therefore, the cache data does not correlate to the data just written to
 263:Generated_Source\PSoC4/Bootloadable.c ****         * flash. A call to CyFlushCache() is required to invalidate the data in the
 264:Generated_Source\PSoC4/Bootloadable.c ****         * cache and force fresh information to be loaded from flash.
 265:Generated_Source\PSoC4/Bootloadable.c ****         ***************************************************************************/
 266:Generated_Source\PSoC4/Bootloadable.c ****         CyFlushCache();
 267:Generated_Source\PSoC4/Bootloadable.c ****     #endif /* (CY_PSOC5) */
 268:Generated_Source\PSoC4/Bootloadable.c **** }
 321              		.loc 1 268 0
 322 0032 40B0     		add	sp, sp, #256
 323              		@ sp needed
 324              	.LVL38:
 325 0034 70BD     		pop	{r4, r5, r6, pc}
 326              		.cfi_endproc
 327              	.LFE6:
 328              		.size	Bootloadable_SetFlashByte, .-Bootloadable_SetFlashByte
 329 0036 C046     		.text
 330              	.Letext0:
 331              		.file 2 "Generated_Source\\PSoC4\\cytypes.h"
 332              		.file 3 "Generated_Source\\PSoC4\\CyFlash.h"
 333              		.file 4 "Generated_Source\\PSoC4\\CyLib.h"
 334              		.file 5 "Generated_Source\\PSoC4\\Bootloadable.h"