ARM GAS  C:\Users\Tymek\AppData\Local\Temp\ccFLwXgx.s 			page 1


   1              		.syntax unified
   2              		.cpu cortex-m0
   3              		.fpu softvfp
   4              		.eabi_attribute 20, 1
   5              		.eabi_attribute 21, 1
   6              		.eabi_attribute 23, 3
   7              		.eabi_attribute 24, 1
   8              		.eabi_attribute 25, 1
   9              		.eabi_attribute 26, 1
  10              		.eabi_attribute 30, 1
  11              		.eabi_attribute 34, 0
  12              		.eabi_attribute 18, 4
  13              		.thumb
  14              		.syntax unified
  15              		.file	"CyBle.c"
  16              		.text
  17              	.Ltext0:
  18              		.cfi_sections	.debug_frame
  19              		.section	.text.CyBle_ChangeAdLocalName,"ax",%progbits
  20              		.align	2
  21              		.code	16
  22              		.thumb_func
  23              		.type	CyBle_ChangeAdLocalName, %function
  24              	CyBle_ChangeAdLocalName:
  25              	.LFB9:
  26              		.file 1 "Generated_Source\\PSoC4\\CyBle.c"
   1:Generated_Source\PSoC4/CyBle.c **** /***************************************************************************//**
   2:Generated_Source\PSoC4/CyBle.c **** * \file CYBLE.c
   3:Generated_Source\PSoC4/CyBle.c **** * \version 3.40
   4:Generated_Source\PSoC4/CyBle.c **** * 
   5:Generated_Source\PSoC4/CyBle.c **** * \brief
   6:Generated_Source\PSoC4/CyBle.c **** *  This file contains the source code for the Common APIs of the BLE Component.
   7:Generated_Source\PSoC4/CyBle.c **** * 
   8:Generated_Source\PSoC4/CyBle.c **** ********************************************************************************
   9:Generated_Source\PSoC4/CyBle.c **** * \copyright
  10:Generated_Source\PSoC4/CyBle.c **** * Copyright 2014-2016, Cypress Semiconductor Corporation.  All rights reserved.
  11:Generated_Source\PSoC4/CyBle.c **** * You may use this file only in accordance with the license, terms, conditions,
  12:Generated_Source\PSoC4/CyBle.c **** * disclaimers, and limitations in the end user license agreement accompanying
  13:Generated_Source\PSoC4/CyBle.c **** * the software package with which this file was provided.
  14:Generated_Source\PSoC4/CyBle.c **** *******************************************************************************/
  15:Generated_Source\PSoC4/CyBle.c **** 
  16:Generated_Source\PSoC4/CyBle.c **** #include "CyBle_eventHandler.h"
  17:Generated_Source\PSoC4/CyBle.c **** #include "CyBle_HAL_PVT.h"
  18:Generated_Source\PSoC4/CyBle.c **** #include <stdlib.h>
  19:Generated_Source\PSoC4/CyBle.c **** 
  20:Generated_Source\PSoC4/CyBle.c **** 
  21:Generated_Source\PSoC4/CyBle.c **** /***************************************
  22:Generated_Source\PSoC4/CyBle.c **** * Function Prototypes
  23:Generated_Source\PSoC4/CyBle.c **** ***************************************/
  24:Generated_Source\PSoC4/CyBle.c **** 
  25:Generated_Source\PSoC4/CyBle.c **** #if(CYBLE_GATT_ROLE_SERVER)
  26:Generated_Source\PSoC4/CyBle.c ****     #if(CYBLE_GAP_ROLE_PERIPHERAL)
  27:Generated_Source\PSoC4/CyBle.c ****         static void CyBle_ChangeAdLocalName(const char8 name[], uint8 dest);
  28:Generated_Source\PSoC4/CyBle.c ****     #endif /* (CYBLE_GAP_ROLE_PERIPHERAL) */
  29:Generated_Source\PSoC4/CyBle.c **** #endif /* (CYBLE_GATT_ROLE_SERVER) */
  30:Generated_Source\PSoC4/CyBle.c ****     
  31:Generated_Source\PSoC4/CyBle.c **** 
ARM GAS  C:\Users\Tymek\AppData\Local\Temp\ccFLwXgx.s 			page 2


  32:Generated_Source\PSoC4/CyBle.c **** /***************************************
  33:Generated_Source\PSoC4/CyBle.c **** * Global Variables
  34:Generated_Source\PSoC4/CyBle.c **** ***************************************/
  35:Generated_Source\PSoC4/CyBle.c **** 
  36:Generated_Source\PSoC4/CyBle.c **** /* Indicates whether the BLE has been initialized. The variable is initialized to
  37:Generated_Source\PSoC4/CyBle.c ****    0 and set to 1 the first time CyBle_Start() is called. This allows the component
  38:Generated_Source\PSoC4/CyBle.c ****    to restart without reinitialization after the first call to the CyBle_Start() 
  39:Generated_Source\PSoC4/CyBle.c ****    routine. If reinitialization of the component is required, the variable should 
  40:Generated_Source\PSoC4/CyBle.c ****    be set to 0 before the CyBle_Start() routine is called. Alternatively, the BLE
  41:Generated_Source\PSoC4/CyBle.c ****    can be reinitialized by calling the CyBle_Init() function.
  42:Generated_Source\PSoC4/CyBle.c **** */
  43:Generated_Source\PSoC4/CyBle.c **** uint8  cyBle_initVar = 0u;
  44:Generated_Source\PSoC4/CyBle.c **** 
  45:Generated_Source\PSoC4/CyBle.c **** /* Allocate RAM memory for stack. This buffer could be reused by application when 
  46:Generated_Source\PSoC4/CyBle.c ****    BLE component is stopped. For export mode buffer is allocated in heap.
  47:Generated_Source\PSoC4/CyBle.c **** */
  48:Generated_Source\PSoC4/CyBle.c **** #if(CYBLE_SHARING_MODE_EXPORT)
  49:Generated_Source\PSoC4/CyBle.c ****     
  50:Generated_Source\PSoC4/CyBle.c **** uint8 *cyBle_stackMemoryRam = NULL;
  51:Generated_Source\PSoC4/CyBle.c **** 
  52:Generated_Source\PSoC4/CyBle.c **** #else
  53:Generated_Source\PSoC4/CyBle.c **** 
  54:Generated_Source\PSoC4/CyBle.c **** CYBLE_CYALIGNED_BEGIN CY_NOINIT uint8 cyBle_stackMemoryRam[CYBLE_STACK_RAM_SIZE] CYBLE_CYALIGNED_EN
  55:Generated_Source\PSoC4/CyBle.c **** 
  56:Generated_Source\PSoC4/CyBle.c **** #endif  /* CYBLE_SHARING_MODE_EXPORT */
  57:Generated_Source\PSoC4/CyBle.c **** 
  58:Generated_Source\PSoC4/CyBle.c **** #if(CYBLE_GAP_ROLE_PERIPHERAL || CYBLE_GAP_ROLE_BROADCASTER)
  59:Generated_Source\PSoC4/CyBle.c **** 
  60:Generated_Source\PSoC4/CyBle.c **** CYBLE_GAPP_DISC_PARAM_T cyBle_discoveryParam =
  61:Generated_Source\PSoC4/CyBle.c **** {
  62:Generated_Source\PSoC4/CyBle.c ****     0x00A0u,    /* uint16 advertising_interval_min */
  63:Generated_Source\PSoC4/CyBle.c ****     0x0140u,    /* uint16 advertising_interval_max */
  64:Generated_Source\PSoC4/CyBle.c ****     CYBLE_GAPP_CONNECTABLE_UNDIRECTED_ADV, /* uint8 advertising_type */
  65:Generated_Source\PSoC4/CyBle.c ****     0x00u,      /* uint8 own_addr_type */
  66:Generated_Source\PSoC4/CyBle.c ****     0x00u,      /* uint8 direct_addr_type */
  67:Generated_Source\PSoC4/CyBle.c ****     {0x14u, 0x06u, 0x00u, 0x50u, 0xA0u, 0x00u}, /* uint8* direct_addr */
  68:Generated_Source\PSoC4/CyBle.c ****     0x07u,      /* uint8 advertising_channel_map */
  69:Generated_Source\PSoC4/CyBle.c ****     0x00u,      /* uint8 advertising_filter_policy */
  70:Generated_Source\PSoC4/CyBle.c **** };
  71:Generated_Source\PSoC4/CyBle.c **** 
  72:Generated_Source\PSoC4/CyBle.c **** CYBLE_GAPP_DISC_DATA_T cyBle_discoveryData =
  73:Generated_Source\PSoC4/CyBle.c **** {
  74:Generated_Source\PSoC4/CyBle.c ****     { 0x02u, 0x01u, 0x06u, 0x0Fu, 0x09u, 0x4Fu, 0x54u,
  75:Generated_Source\PSoC4/CyBle.c ****     0x41u, 0x20u, 0x42u, 0x6Fu, 0x6Fu, 0x74u, 0x6Cu, 0x6Fu,
  76:Generated_Source\PSoC4/CyBle.c ****     0x61u, 0x64u, 0x65u, 0x72u, 0x00u, 0x00u, 0x00u, 0x00u,
  77:Generated_Source\PSoC4/CyBle.c ****     0x00u, 0x00u, 0x00u, 0x00u, 0x00u, 0x00u, 0x00u, 0x00u }, /* uint8 advertising_data[CYBLE_MAX_A
  78:Generated_Source\PSoC4/CyBle.c ****     0x13u,      /* uint8 adv_data_length */
  79:Generated_Source\PSoC4/CyBle.c **** };
  80:Generated_Source\PSoC4/CyBle.c **** 
  81:Generated_Source\PSoC4/CyBle.c **** CYBLE_GAPP_SCAN_RSP_DATA_T cyBle_scanRspData =
  82:Generated_Source\PSoC4/CyBle.c **** {
  83:Generated_Source\PSoC4/CyBle.c ****     { 0x0Fu, 0x09u, 0x4Fu, 0x54u, 0x41u, 0x20u, 0x42u,
  84:Generated_Source\PSoC4/CyBle.c ****     0x6Fu, 0x6Fu, 0x74u, 0x6Cu, 0x6Fu, 0x61u, 0x64u, 0x65u,
  85:Generated_Source\PSoC4/CyBle.c ****     0x72u, 0x00u, 0x00u, 0x00u, 0x00u, 0x00u, 0x00u, 0x00u,
  86:Generated_Source\PSoC4/CyBle.c ****     0x00u, 0x00u, 0x00u, 0x00u, 0x00u, 0x00u, 0x00u, 0x00u }, /* uint8 scan_rsp_data[CYBLE_MAX_SCAN
  87:Generated_Source\PSoC4/CyBle.c ****     0x10u,      /* uint8 scan_rsp_data_length */
  88:Generated_Source\PSoC4/CyBle.c **** };
ARM GAS  C:\Users\Tymek\AppData\Local\Temp\ccFLwXgx.s 			page 3


  89:Generated_Source\PSoC4/CyBle.c **** 
  90:Generated_Source\PSoC4/CyBle.c **** /* This variable of type CYBLE_GAPP_DISC_MODE_INFO_T is present only when 
  91:Generated_Source\PSoC4/CyBle.c ****    the BLE component is configured for Peripheral GAP role or Central and 
  92:Generated_Source\PSoC4/CyBle.c ****    Peripheral GAP role. It contains the Advertisement settings and also the 
  93:Generated_Source\PSoC4/CyBle.c ****    Advertisement and Scan response data parameters entered in the customizer.
  94:Generated_Source\PSoC4/CyBle.c ****    This variable can be used by advanced users to change Advertisement settings,
  95:Generated_Source\PSoC4/CyBle.c ****    Advertisement or Scan response data in runtime. 
  96:Generated_Source\PSoC4/CyBle.c **** */
  97:Generated_Source\PSoC4/CyBle.c **** CYBLE_GAPP_DISC_MODE_INFO_T cyBle_discoveryModeInfo =
  98:Generated_Source\PSoC4/CyBle.c **** {
  99:Generated_Source\PSoC4/CyBle.c ****     0x02u,      /* uint8 discMode */
 100:Generated_Source\PSoC4/CyBle.c ****     &cyBle_discoveryParam,
 101:Generated_Source\PSoC4/CyBle.c ****     &cyBle_discoveryData,
 102:Generated_Source\PSoC4/CyBle.c ****     &cyBle_scanRspData,
 103:Generated_Source\PSoC4/CyBle.c ****     0x0190u,    /* uint16 advTo */
 104:Generated_Source\PSoC4/CyBle.c **** };
 105:Generated_Source\PSoC4/CyBle.c **** 
 106:Generated_Source\PSoC4/CyBle.c **** 
 107:Generated_Source\PSoC4/CyBle.c **** #endif /* CYBLE_GAP_ROLE_PERIPHERAL || CYBLE_GAP_ROLE_BROADCASTER */
 108:Generated_Source\PSoC4/CyBle.c **** 
 109:Generated_Source\PSoC4/CyBle.c **** #if(CYBLE_GAP_ROLE_CENTRAL)
 110:Generated_Source\PSoC4/CyBle.c ****     
 111:Generated_Source\PSoC4/CyBle.c **** CYBLE_GAPC_CONN_PARAM_T cyBle_connectionParameters;
 112:Generated_Source\PSoC4/CyBle.c **** 
 113:Generated_Source\PSoC4/CyBle.c **** /* Connecting timeout is set to 30 seconds in CyBle_Init function. 
 114:Generated_Source\PSoC4/CyBle.c ****    Not zero value starts timer in CyBle_GapcConnectDevice() API fucntion.
 115:Generated_Source\PSoC4/CyBle.c **** */
 116:Generated_Source\PSoC4/CyBle.c **** uint16 cyBle_connectingTimeout;
 117:Generated_Source\PSoC4/CyBle.c ****     
 118:Generated_Source\PSoC4/CyBle.c **** #endif /* CYBLE_GAP_ROLE_CENTRAL */
 119:Generated_Source\PSoC4/CyBle.c **** 
 120:Generated_Source\PSoC4/CyBle.c **** #if(CYBLE_GAP_ROLE_CENTRAL || CYBLE_GAP_ROLE_OBSERVER)
 121:Generated_Source\PSoC4/CyBle.c ****     
 122:Generated_Source\PSoC4/CyBle.c **** 
 123:Generated_Source\PSoC4/CyBle.c ****     
 124:Generated_Source\PSoC4/CyBle.c **** #endif /* CYBLE_GAP_ROLE_CENTRAL || CYBLE_GAP_ROLE_OBSERVER */
 125:Generated_Source\PSoC4/CyBle.c **** 
 126:Generated_Source\PSoC4/CyBle.c **** #if((CYBLE_GAP_ROLE_PERIPHERAL || CYBLE_GAP_ROLE_CENTRAL) && (CYBLE_BONDING_REQUIREMENT == CYBLE_BO
 127:Generated_Source\PSoC4/CyBle.c **** 
 128:Generated_Source\PSoC4/CyBle.c **** uint8 cyBle_peerBonding;
 129:Generated_Source\PSoC4/CyBle.c **** uint8 cyBle_pendingFlashWrite;
 130:Generated_Source\PSoC4/CyBle.c ****     
 131:Generated_Source\PSoC4/CyBle.c **** #if(CYBLE_GATT_DB_CCCD_COUNT != 0u)
 132:Generated_Source\PSoC4/CyBle.c ****     static uint8 cyBle_pendingFlashClearCccdHandle;
 133:Generated_Source\PSoC4/CyBle.c **** #endif /* CYBLE_GATT_DB_CCCD_COUNT != 0u */
 134:Generated_Source\PSoC4/CyBle.c ****     
 135:Generated_Source\PSoC4/CyBle.c **** #endif  /* (CYBLE_BONDING_REQUIREMENT == CYBLE_BONDING_YES) */
 136:Generated_Source\PSoC4/CyBle.c **** 
 137:Generated_Source\PSoC4/CyBle.c **** CYBLE_CALLBACK_T CyBle_ApplCallback;
 138:Generated_Source\PSoC4/CyBle.c **** CYBLE_GAP_BD_ADDR_T cyBle_deviceAddress = {{0x14u, 0x06u, 0x00u, 0x50u, 0xA0u, 0x00u}, 0x00u };
 139:Generated_Source\PSoC4/CyBle.c **** CYBLE_GAP_BD_ADDR_T * cyBle_sflashDeviceAddress = CYBLE_SFLASH_DEVICE_ADDRESS_PTR;
 140:Generated_Source\PSoC4/CyBle.c **** 
 141:Generated_Source\PSoC4/CyBle.c **** 
 142:Generated_Source\PSoC4/CyBle.c **** /******************************************************************************
 143:Generated_Source\PSoC4/CyBle.c **** * Function Name: CyBle_Init
 144:Generated_Source\PSoC4/CyBle.c **** ***************************************************************************//**
 145:Generated_Source\PSoC4/CyBle.c **** *
ARM GAS  C:\Users\Tymek\AppData\Local\Temp\ccFLwXgx.s 			page 4


 146:Generated_Source\PSoC4/CyBle.c **** *   Initializes the component with the parameters set in the customizer.
 147:Generated_Source\PSoC4/CyBle.c **** * 
 148:Generated_Source\PSoC4/CyBle.c **** *  \return
 149:Generated_Source\PSoC4/CyBle.c **** *   None
 150:Generated_Source\PSoC4/CyBle.c **** * 
 151:Generated_Source\PSoC4/CyBle.c **** ******************************************************************************/
 152:Generated_Source\PSoC4/CyBle.c **** void CyBle_Init(void)
 153:Generated_Source\PSoC4/CyBle.c **** {
 154:Generated_Source\PSoC4/CyBle.c ****     cyBle_eventHandlerFlag = 0u;
 155:Generated_Source\PSoC4/CyBle.c ****     cyBle_busyStatus = CYBLE_STACK_STATE_FREE;
 156:Generated_Source\PSoC4/CyBle.c **** 
 157:Generated_Source\PSoC4/CyBle.c ****     #if(CYBLE_GAP_ROLE_PERIPHERAL || CYBLE_GAP_ROLE_BROADCASTER) 
 158:Generated_Source\PSoC4/CyBle.c ****         cyBle_advertisingIntervalType = CYBLE_ADVERTISING_FAST; 
 159:Generated_Source\PSoC4/CyBle.c ****     #endif /* (CYBLE_GAP_ROLE_PERIPHERAL || CYBLE_GAP_ROLE_BROADCASTER)  */
 160:Generated_Source\PSoC4/CyBle.c ****     #if(CYBLE_GAP_ROLE_CENTRAL || CYBLE_GAP_ROLE_OBSERVER)
 161:Generated_Source\PSoC4/CyBle.c ****         cyBle_scanningIntervalType = CYBLE_SCANNING_FAST; 
 162:Generated_Source\PSoC4/CyBle.c ****     #endif /* (CYBLE_GAP_ROLE_CENTRAL || CYBLE_GAP_ROLE_OBSERVER) */
 163:Generated_Source\PSoC4/CyBle.c ****         
 164:Generated_Source\PSoC4/CyBle.c ****     /* Init default connection parameters. 
 165:Generated_Source\PSoC4/CyBle.c ****        Application may change it before initiating a connection */
 166:Generated_Source\PSoC4/CyBle.c ****     #if(CYBLE_GAP_ROLE_CENTRAL)
 167:Generated_Source\PSoC4/CyBle.c ****         cyBle_connectionParameters.scanIntv = cyBle_discoveryInfo.scanIntv;
 168:Generated_Source\PSoC4/CyBle.c ****         cyBle_connectionParameters.scanWindow = cyBle_discoveryInfo.scanWindow;
 169:Generated_Source\PSoC4/CyBle.c ****         cyBle_connectionParameters.ownAddrType = cyBle_discoveryInfo.ownAddrType;
 170:Generated_Source\PSoC4/CyBle.c ****         cyBle_connectionParameters.initiatorFilterPolicy = cyBle_discoveryInfo.scanFilterPolicy;
 171:Generated_Source\PSoC4/CyBle.c ****         cyBle_connectionParameters.connIntvMin = CYBLE_GAPC_CONNECTION_INTERVAL_MIN;
 172:Generated_Source\PSoC4/CyBle.c ****         cyBle_connectionParameters.connIntvMax = CYBLE_GAPC_CONNECTION_INTERVAL_MAX;
 173:Generated_Source\PSoC4/CyBle.c ****         cyBle_connectionParameters.connLatency = CYBLE_GAPC_CONNECTION_SLAVE_LATENCY;
 174:Generated_Source\PSoC4/CyBle.c ****         cyBle_connectionParameters.supervisionTO = CYBLE_GAPC_CONNECTION_TIME_OUT;
 175:Generated_Source\PSoC4/CyBle.c ****         cyBle_connectionParameters.minCeLength = 0x0000u;
 176:Generated_Source\PSoC4/CyBle.c ****         cyBle_connectionParameters.maxCeLength = 0xFFFFu;
 177:Generated_Source\PSoC4/CyBle.c ****         
 178:Generated_Source\PSoC4/CyBle.c ****         cyBle_connectingTimeout = CYBLE_GAPC_CONNECTING_TIMEOUT;
 179:Generated_Source\PSoC4/CyBle.c ****     #endif /* CYBLE_GAP_ROLE_CENTRAL */
 180:Generated_Source\PSoC4/CyBle.c **** 
 181:Generated_Source\PSoC4/CyBle.c ****     CyBle_ServiceInit();
 182:Generated_Source\PSoC4/CyBle.c **** 
 183:Generated_Source\PSoC4/CyBle.c ****     #if((CYBLE_GAP_ROLE_PERIPHERAL || CYBLE_GAP_ROLE_CENTRAL) && (CYBLE_BONDING_REQUIREMENT == CYBL
 184:Generated_Source\PSoC4/CyBle.c ****         cyBle_pendingFlashWrite = 0u;
 185:Generated_Source\PSoC4/CyBle.c ****         cyBle_peerBonding = CYBLE_GAP_BONDING_NONE;
 186:Generated_Source\PSoC4/CyBle.c ****     #endif  /* (CYBLE_BONDING_REQUIREMENT == CYBLE_BONDING_YES) */
 187:Generated_Source\PSoC4/CyBle.c **** 
 188:Generated_Source\PSoC4/CyBle.c **** }
 189:Generated_Source\PSoC4/CyBle.c **** 
 190:Generated_Source\PSoC4/CyBle.c **** 
 191:Generated_Source\PSoC4/CyBle.c **** /******************************************************************************
 192:Generated_Source\PSoC4/CyBle.c **** * Function Name: CyBle_ServiceInit
 193:Generated_Source\PSoC4/CyBle.c **** ***************************************************************************//**
 194:Generated_Source\PSoC4/CyBle.c **** * 
 195:Generated_Source\PSoC4/CyBle.c **** *  Initializes all included services.
 196:Generated_Source\PSoC4/CyBle.c **** * 
 197:Generated_Source\PSoC4/CyBle.c **** * \return
 198:Generated_Source\PSoC4/CyBle.c **** *  None
 199:Generated_Source\PSoC4/CyBle.c **** * 
 200:Generated_Source\PSoC4/CyBle.c **** ******************************************************************************/
 201:Generated_Source\PSoC4/CyBle.c **** void CyBle_ServiceInit(void)
 202:Generated_Source\PSoC4/CyBle.c **** {
ARM GAS  C:\Users\Tymek\AppData\Local\Temp\ccFLwXgx.s 			page 5


 203:Generated_Source\PSoC4/CyBle.c ****     #if(CYBLE_GATT_ROLE_CLIENT)
 204:Generated_Source\PSoC4/CyBle.c ****         /* Check service range before clearing to support partial discovery */
 205:Generated_Source\PSoC4/CyBle.c ****         if(cyBle_serverInfo[CYBLE_SRVI_GAP].range.startHandle == CYBLE_GATT_INVALID_ATTR_HANDLE_VAL
 206:Generated_Source\PSoC4/CyBle.c ****         {
 207:Generated_Source\PSoC4/CyBle.c ****             (void)memset(&cyBle_gapc, 0, sizeof(cyBle_gapc));
 208:Generated_Source\PSoC4/CyBle.c ****         }
 209:Generated_Source\PSoC4/CyBle.c ****         if(cyBle_serverInfo[CYBLE_SRVI_GATT].range.startHandle == CYBLE_GATT_INVALID_ATTR_HANDLE_VA
 210:Generated_Source\PSoC4/CyBle.c ****         {
 211:Generated_Source\PSoC4/CyBle.c ****             (void)memset(&cyBle_gattc, 0, sizeof(cyBle_gattc));
 212:Generated_Source\PSoC4/CyBle.c ****         }
 213:Generated_Source\PSoC4/CyBle.c ****     #endif /* CYBLE_GATT_ROLE_CLIENT */
 214:Generated_Source\PSoC4/CyBle.c **** 
 215:Generated_Source\PSoC4/CyBle.c ****    	#ifdef CYBLE_AIOS
 216:Generated_Source\PSoC4/CyBle.c ****         CyBle_AiosInit();
 217:Generated_Source\PSoC4/CyBle.c ****     #endif /* CYBLE_AIOS */
 218:Generated_Source\PSoC4/CyBle.c **** 
 219:Generated_Source\PSoC4/CyBle.c **** 	#ifdef CYBLE_ANCS
 220:Generated_Source\PSoC4/CyBle.c ****         CyBle_AncsInit();
 221:Generated_Source\PSoC4/CyBle.c ****     #endif /* CYBLE_ANCS */
 222:Generated_Source\PSoC4/CyBle.c **** 	
 223:Generated_Source\PSoC4/CyBle.c ****     #ifdef CYBLE_ANS
 224:Generated_Source\PSoC4/CyBle.c ****         CyBle_AnsInit();
 225:Generated_Source\PSoC4/CyBle.c ****     #endif /* CYBLE_ANS */
 226:Generated_Source\PSoC4/CyBle.c ****     
 227:Generated_Source\PSoC4/CyBle.c ****     #ifdef CYBLE_BAS
 228:Generated_Source\PSoC4/CyBle.c ****         CyBle_BasInit();
 229:Generated_Source\PSoC4/CyBle.c ****     #endif /* CYBLE_BAS */
 230:Generated_Source\PSoC4/CyBle.c ****     
 231:Generated_Source\PSoC4/CyBle.c ****     #ifdef CYBLE_BCS
 232:Generated_Source\PSoC4/CyBle.c ****         CyBle_BcsInit();
 233:Generated_Source\PSoC4/CyBle.c ****     #endif /* CYBLE_BCS */
 234:Generated_Source\PSoC4/CyBle.c **** 
 235:Generated_Source\PSoC4/CyBle.c ****     #ifdef CYBLE_BLS
 236:Generated_Source\PSoC4/CyBle.c ****         CyBle_BlsInit();
 237:Generated_Source\PSoC4/CyBle.c ****     #endif /* CYBLE_BLS */
 238:Generated_Source\PSoC4/CyBle.c ****     
 239:Generated_Source\PSoC4/CyBle.c ****     #ifdef CYBLE_BMS
 240:Generated_Source\PSoC4/CyBle.c ****         CyBle_BmsInit();
 241:Generated_Source\PSoC4/CyBle.c ****     #endif /* CYBLE_BMS */
 242:Generated_Source\PSoC4/CyBle.c ****     
 243:Generated_Source\PSoC4/CyBle.c ****     #ifdef CYBLE_CGMS
 244:Generated_Source\PSoC4/CyBle.c ****         CyBle_CgmsInit();
 245:Generated_Source\PSoC4/CyBle.c ****     #endif /* CYBLE_CGMS */
 246:Generated_Source\PSoC4/CyBle.c **** 
 247:Generated_Source\PSoC4/CyBle.c ****     #ifdef CYBLE_CPS
 248:Generated_Source\PSoC4/CyBle.c ****         CyBle_CpsInit();
 249:Generated_Source\PSoC4/CyBle.c ****     #endif /* CYBLE_CPS */
 250:Generated_Source\PSoC4/CyBle.c **** 
 251:Generated_Source\PSoC4/CyBle.c ****     #ifdef CYBLE_CSCS
 252:Generated_Source\PSoC4/CyBle.c ****         CyBle_CscsInit();
 253:Generated_Source\PSoC4/CyBle.c ****     #endif /* CYBLE_CSCS */
 254:Generated_Source\PSoC4/CyBle.c ****     
 255:Generated_Source\PSoC4/CyBle.c ****     #ifdef CYBLE_CTS
 256:Generated_Source\PSoC4/CyBle.c ****         CyBle_CtsInit();
 257:Generated_Source\PSoC4/CyBle.c ****     #endif /* CYBLE_CTS */
 258:Generated_Source\PSoC4/CyBle.c **** 
 259:Generated_Source\PSoC4/CyBle.c ****     #ifdef CYBLE_CUSTOM
ARM GAS  C:\Users\Tymek\AppData\Local\Temp\ccFLwXgx.s 			page 6


 260:Generated_Source\PSoC4/CyBle.c ****         CyBle_CustomInit();
 261:Generated_Source\PSoC4/CyBle.c ****     #endif /* CYBLE_CUSTOM */
 262:Generated_Source\PSoC4/CyBle.c **** 
 263:Generated_Source\PSoC4/CyBle.c ****     #ifdef CYBLE_DIS
 264:Generated_Source\PSoC4/CyBle.c ****         CyBle_DisInit();
 265:Generated_Source\PSoC4/CyBle.c ****     #endif /* CYBLE_DIS */
 266:Generated_Source\PSoC4/CyBle.c **** 
 267:Generated_Source\PSoC4/CyBle.c ****     #ifdef CYBLE_ESS
 268:Generated_Source\PSoC4/CyBle.c ****         CyBle_EssInit();
 269:Generated_Source\PSoC4/CyBle.c ****     #endif /* CYBLE_ESS */
 270:Generated_Source\PSoC4/CyBle.c ****     
 271:Generated_Source\PSoC4/CyBle.c ****     #ifdef CYBLE_GLS
 272:Generated_Source\PSoC4/CyBle.c ****         CyBle_GlsInit();
 273:Generated_Source\PSoC4/CyBle.c ****     #endif /* CYBLE_GLS */
 274:Generated_Source\PSoC4/CyBle.c ****     
 275:Generated_Source\PSoC4/CyBle.c ****     #ifdef CYBLE_HIDS
 276:Generated_Source\PSoC4/CyBle.c ****         CyBle_HidsInit();
 277:Generated_Source\PSoC4/CyBle.c ****     #endif /* CYBLE_HIDS */
 278:Generated_Source\PSoC4/CyBle.c **** 
 279:Generated_Source\PSoC4/CyBle.c ****     #ifdef CYBLE_HPS
 280:Generated_Source\PSoC4/CyBle.c ****         CyBle_HpsInit();
 281:Generated_Source\PSoC4/CyBle.c ****     #endif /* CYBLE_HPS */
 282:Generated_Source\PSoC4/CyBle.c **** 
 283:Generated_Source\PSoC4/CyBle.c ****     #ifdef CYBLE_HRS
 284:Generated_Source\PSoC4/CyBle.c ****         CyBle_HrsInit();
 285:Generated_Source\PSoC4/CyBle.c ****     #endif /* CYBLE_HRS */
 286:Generated_Source\PSoC4/CyBle.c ****     
 287:Generated_Source\PSoC4/CyBle.c ****     #ifdef CYBLE_HTS
 288:Generated_Source\PSoC4/CyBle.c ****         CyBle_HtsInit();
 289:Generated_Source\PSoC4/CyBle.c ****     #endif /* CYBLE_RSCS */
 290:Generated_Source\PSoC4/CyBle.c **** 
 291:Generated_Source\PSoC4/CyBle.c ****     #ifdef CYBLE_IAS
 292:Generated_Source\PSoC4/CyBle.c ****         CyBle_IasInit();
 293:Generated_Source\PSoC4/CyBle.c ****     #endif /* CYBLE_IAS */
 294:Generated_Source\PSoC4/CyBle.c **** 
 295:Generated_Source\PSoC4/CyBle.c ****     #ifdef CYBLE_IPS
 296:Generated_Source\PSoC4/CyBle.c ****         CyBle_IpsInit();
 297:Generated_Source\PSoC4/CyBle.c ****     #endif /* CYBLE_IPS */
 298:Generated_Source\PSoC4/CyBle.c ****     
 299:Generated_Source\PSoC4/CyBle.c ****     #ifdef CYBLE_LLS
 300:Generated_Source\PSoC4/CyBle.c ****         CyBle_LlsInit();
 301:Generated_Source\PSoC4/CyBle.c ****     #endif /* CYBLE_LLS */
 302:Generated_Source\PSoC4/CyBle.c **** 
 303:Generated_Source\PSoC4/CyBle.c ****     #ifdef CYBLE_LNS
 304:Generated_Source\PSoC4/CyBle.c ****         CyBle_LnsInit();
 305:Generated_Source\PSoC4/CyBle.c ****     #endif /* CYBLE_LNS */
 306:Generated_Source\PSoC4/CyBle.c ****     
 307:Generated_Source\PSoC4/CyBle.c ****     #ifdef CYBLE_NDCS
 308:Generated_Source\PSoC4/CyBle.c ****         CyBle_NdcsInit();
 309:Generated_Source\PSoC4/CyBle.c ****     #endif /* CYBLE_NDCS */
 310:Generated_Source\PSoC4/CyBle.c ****     
 311:Generated_Source\PSoC4/CyBle.c ****     #ifdef CYBLE_PASS
 312:Generated_Source\PSoC4/CyBle.c ****         CyBle_PassInit();
 313:Generated_Source\PSoC4/CyBle.c ****     #endif /* CYBLE_PASS */
 314:Generated_Source\PSoC4/CyBle.c ****     
 315:Generated_Source\PSoC4/CyBle.c ****     #ifdef CYBLE_PLXS
 316:Generated_Source\PSoC4/CyBle.c ****         CyBle_PlxsInit();
ARM GAS  C:\Users\Tymek\AppData\Local\Temp\ccFLwXgx.s 			page 7


 317:Generated_Source\PSoC4/CyBle.c ****     #endif /* CYBLE_PLXS */
 318:Generated_Source\PSoC4/CyBle.c ****     
 319:Generated_Source\PSoC4/CyBle.c ****     #ifdef CYBLE_RSCS
 320:Generated_Source\PSoC4/CyBle.c ****         CyBle_RscsInit();
 321:Generated_Source\PSoC4/CyBle.c ****     #endif /* CYBLE_RSCS */
 322:Generated_Source\PSoC4/CyBle.c **** 
 323:Generated_Source\PSoC4/CyBle.c ****     #ifdef CYBLE_RTUS
 324:Generated_Source\PSoC4/CyBle.c ****         CyBle_RtusInit();
 325:Generated_Source\PSoC4/CyBle.c ****     #endif /* CYBLE_RTUS */
 326:Generated_Source\PSoC4/CyBle.c **** 
 327:Generated_Source\PSoC4/CyBle.c ****     #ifdef CYBLE_SCPS
 328:Generated_Source\PSoC4/CyBle.c ****         CyBle_ScpsInit();
 329:Generated_Source\PSoC4/CyBle.c ****     #endif /* CYBLE_SCPS */
 330:Generated_Source\PSoC4/CyBle.c ****     
 331:Generated_Source\PSoC4/CyBle.c ****     #ifdef CYBLE_TPS
 332:Generated_Source\PSoC4/CyBle.c ****         CyBle_TpsInit();
 333:Generated_Source\PSoC4/CyBle.c ****     #endif /* CYBLE_TPS */
 334:Generated_Source\PSoC4/CyBle.c ****     
 335:Generated_Source\PSoC4/CyBle.c ****     #ifdef CYBLE_UDS
 336:Generated_Source\PSoC4/CyBle.c ****         CyBle_UdsInit();
 337:Generated_Source\PSoC4/CyBle.c ****     #endif /* CYBLE_UDS */
 338:Generated_Source\PSoC4/CyBle.c **** 
 339:Generated_Source\PSoC4/CyBle.c ****     #ifdef CYBLE_WPTS
 340:Generated_Source\PSoC4/CyBle.c ****         CyBle_WptsInit();
 341:Generated_Source\PSoC4/CyBle.c ****     #endif /* CYBLE_WPTS */
 342:Generated_Source\PSoC4/CyBle.c **** 
 343:Generated_Source\PSoC4/CyBle.c ****     #ifdef CYBLE_WSS
 344:Generated_Source\PSoC4/CyBle.c ****         CyBle_WssInit();
 345:Generated_Source\PSoC4/CyBle.c ****     #endif /* CYBLE_WSS */
 346:Generated_Source\PSoC4/CyBle.c **** }
 347:Generated_Source\PSoC4/CyBle.c **** 
 348:Generated_Source\PSoC4/CyBle.c **** 
 349:Generated_Source\PSoC4/CyBle.c **** /******************************************************************************
 350:Generated_Source\PSoC4/CyBle.c **** * Function Name: CyBle_Start
 351:Generated_Source\PSoC4/CyBle.c **** ***************************************************************************//**
 352:Generated_Source\PSoC4/CyBle.c **** * 
 353:Generated_Source\PSoC4/CyBle.c **** *  This function initializes the BLE Stack, which consists of the BLE Stack 
 354:Generated_Source\PSoC4/CyBle.c **** *  Manager, BLE Controller, and BLE Host modules. It takes care of initializing
 355:Generated_Source\PSoC4/CyBle.c **** *  the Profile layer, schedulers, Timer and other platform related
 356:Generated_Source\PSoC4/CyBle.c **** *  resources required for the BLE component. It also registers the callback 
 357:Generated_Source\PSoC4/CyBle.c **** *  function for BLE events that will be registered in the BLE stack.
 358:Generated_Source\PSoC4/CyBle.c **** * 
 359:Generated_Source\PSoC4/CyBle.c **** *  Note that this function does not reset the BLE Stack.
 360:Generated_Source\PSoC4/CyBle.c **** * 
 361:Generated_Source\PSoC4/CyBle.c **** *  For HCI-Mode of operation, this function will not initialize the BLE Host 
 362:Generated_Source\PSoC4/CyBle.c **** *  module.
 363:Generated_Source\PSoC4/CyBle.c **** * 
 364:Generated_Source\PSoC4/CyBle.c **** *  Calling this function results in the generation of CYBLE_EVT_STACK_ON event
 365:Generated_Source\PSoC4/CyBle.c **** *  on successful initialization of the BLE Stack.
 366:Generated_Source\PSoC4/CyBle.c **** * 
 367:Generated_Source\PSoC4/CyBle.c **** *  \param callbackFunc: Event callback function to receive events from BLE stack.
 368:Generated_Source\PSoC4/CyBle.c **** *   CYBLE_CALLBACK_T is a function pointer type.
 369:Generated_Source\PSoC4/CyBle.c **** * 
 370:Generated_Source\PSoC4/CyBle.c **** * \return
 371:Generated_Source\PSoC4/CyBle.c **** *  CYBLE_API_RESULT_T : Return value indicates if the function succeeded or 
 372:Generated_Source\PSoC4/CyBle.c **** *  failed. Following are the possible error codes.
 373:Generated_Source\PSoC4/CyBle.c **** * 
ARM GAS  C:\Users\Tymek\AppData\Local\Temp\ccFLwXgx.s 			page 8


 374:Generated_Source\PSoC4/CyBle.c **** *   <table>
 375:Generated_Source\PSoC4/CyBle.c **** *  	  <tr>
 376:Generated_Source\PSoC4/CyBle.c **** *       <th>Error codes</th>
 377:Generated_Source\PSoC4/CyBle.c **** *       <th>Description</th>
 378:Generated_Source\PSoC4/CyBle.c **** *     </tr>
 379:Generated_Source\PSoC4/CyBle.c **** *     <tr>
 380:Generated_Source\PSoC4/CyBle.c **** *       <td>CYBLE_ERROR_OK</td>
 381:Generated_Source\PSoC4/CyBle.c **** *       <td>On successful operation.</td>
 382:Generated_Source\PSoC4/CyBle.c **** *     </tr>
 383:Generated_Source\PSoC4/CyBle.c **** *     <tr>
 384:Generated_Source\PSoC4/CyBle.c **** *       <td>CYBLE_ERROR_INVALID_PARAMETER</td>
 385:Generated_Source\PSoC4/CyBle.c **** *       <td>On passing a NULL pointer to the function. 
 386:Generated_Source\PSoC4/CyBle.c **** *		</td>
 387:Generated_Source\PSoC4/CyBle.c **** *     </tr>
 388:Generated_Source\PSoC4/CyBle.c **** *     <tr>
 389:Generated_Source\PSoC4/CyBle.c **** *       <td>CYBLE_ERROR_REPEATED_ATTEMPTS</td>
 390:Generated_Source\PSoC4/CyBle.c **** *       <td>On invoking this function more than once without calling CyBle_Shutdown() 
 391:Generated_Source\PSoC4/CyBle.c **** *           function between calls to this function.</td>
 392:Generated_Source\PSoC4/CyBle.c **** *     </tr>
 393:Generated_Source\PSoC4/CyBle.c **** *     <tr>
 394:Generated_Source\PSoC4/CyBle.c **** *       <td>CYBLE_ERROR_MEMORY_ALLOCATION_FAILED</td>
 395:Generated_Source\PSoC4/CyBle.c **** *       <td>There is insufficient memory available.</td>
 396:Generated_Source\PSoC4/CyBle.c **** *     </tr>
 397:Generated_Source\PSoC4/CyBle.c **** *   </table>
 398:Generated_Source\PSoC4/CyBle.c **** * 
 399:Generated_Source\PSoC4/CyBle.c **** *  \globalvars
 400:Generated_Source\PSoC4/CyBle.c **** *   The CyBle_initVar variable is used to indicate initial
 401:Generated_Source\PSoC4/CyBle.c **** *   configuration of this component. The variable is initialized to zero (0u)
 402:Generated_Source\PSoC4/CyBle.c **** *   and set to one (1u) the first time CyBle_Start() is called. This
 403:Generated_Source\PSoC4/CyBle.c **** *   allows for component initialization without re-initialization in all
 404:Generated_Source\PSoC4/CyBle.c **** *   subsequent calls to the CyBle_Start() routine.
 405:Generated_Source\PSoC4/CyBle.c **** * 
 406:Generated_Source\PSoC4/CyBle.c **** ******************************************************************************/
 407:Generated_Source\PSoC4/CyBle.c **** CYBLE_API_RESULT_T CyBle_Start(CYBLE_CALLBACK_T callbackFunc)
 408:Generated_Source\PSoC4/CyBle.c **** {
 409:Generated_Source\PSoC4/CyBle.c ****     CYBLE_API_RESULT_T apiResult = CYBLE_ERROR_OK;
 410:Generated_Source\PSoC4/CyBle.c ****     
 411:Generated_Source\PSoC4/CyBle.c ****     #if(CYBLE_MODE_PROFILE)
 412:Generated_Source\PSoC4/CyBle.c ****     
 413:Generated_Source\PSoC4/CyBle.c ****     CYBLE_STK_APP_DATA_BUFF_T cyBle_stackDataBuff[CYBLE_STACK_APP_MIN_POOL] = 
 414:Generated_Source\PSoC4/CyBle.c ****     {
 415:Generated_Source\PSoC4/CyBle.c ****         {CYBLE_GATT_MTU_PLUS_L2CAP_MEM_EXT, CYBLE_GATT_MTU_BUFF_COUNT + CYBLE_GATT_MAX_ATTR_BUFF_CO
 416:Generated_Source\PSoC4/CyBle.c ****         {CYBLE_L2CAP_PSM_PLUS_L2CAP_MEM_EXT, CYBLE_L2CAP_PSM_COUNT},
 417:Generated_Source\PSoC4/CyBle.c ****         {CYBLE_L2CAP_CBFC_PLUS_L2CAP_MEM_EXT, 2u * CYBLE_L2CAP_LOGICAL_CHANNEL_COUNT},
 418:Generated_Source\PSoC4/CyBle.c ****         {CYBLE_L2CAP_MTU_PLUS_L2CAP_MEM_EXT, CYBLE_L2CAP_LOGICAL_CHANNEL_COUNT},
 419:Generated_Source\PSoC4/CyBle.c ****         {CYBLE_L2CAP_MPS_PLUS_L2CAP_MEM_EXT, CYBLE_L2CAP_LOGICAL_CHANNEL_COUNT * (CYBLE_L2CAP_MTU_M
 420:Generated_Source\PSoC4/CyBle.c ****     }; 
 421:Generated_Source\PSoC4/CyBle.c **** 
 422:Generated_Source\PSoC4/CyBle.c ****     #endif /* CYBLE_MODE_PROFILE */
 423:Generated_Source\PSoC4/CyBle.c ****     
 424:Generated_Source\PSoC4/CyBle.c ****     /* If not initialized then initialize all the required hardware and software */
 425:Generated_Source\PSoC4/CyBle.c ****     if(cyBle_initVar == 0u)
 426:Generated_Source\PSoC4/CyBle.c ****     {
 427:Generated_Source\PSoC4/CyBle.c ****         CyBle_Init();
 428:Generated_Source\PSoC4/CyBle.c ****         cyBle_initVar = 1u;
 429:Generated_Source\PSoC4/CyBle.c ****     }
 430:Generated_Source\PSoC4/CyBle.c ****     
ARM GAS  C:\Users\Tymek\AppData\Local\Temp\ccFLwXgx.s 			page 9


 431:Generated_Source\PSoC4/CyBle.c ****     if(callbackFunc != NULL)
 432:Generated_Source\PSoC4/CyBle.c ****     {
 433:Generated_Source\PSoC4/CyBle.c ****         CyBle_ApplCallback = callbackFunc;
 434:Generated_Source\PSoC4/CyBle.c ****         
 435:Generated_Source\PSoC4/CyBle.c ****     #if(CYBLE_SHARING_MODE_EXPORT)
 436:Generated_Source\PSoC4/CyBle.c ****         if(cyBle_stackMemoryRam == NULL)
 437:Generated_Source\PSoC4/CyBle.c ****         {
 438:Generated_Source\PSoC4/CyBle.c ****             cyBle_stackMemoryRam = (uint8 *)malloc(CYBLE_STACK_RAM_SIZE);
 439:Generated_Source\PSoC4/CyBle.c ****             if(cyBle_stackMemoryRam == NULL)
 440:Generated_Source\PSoC4/CyBle.c ****             {
 441:Generated_Source\PSoC4/CyBle.c ****                 apiResult = CYBLE_ERROR_MEMORY_ALLOCATION_FAILED;
 442:Generated_Source\PSoC4/CyBle.c ****             }
 443:Generated_Source\PSoC4/CyBle.c ****         }
 444:Generated_Source\PSoC4/CyBle.c ****     #endif /* CYBLE_SHARING_MODE_EXPORT */
 445:Generated_Source\PSoC4/CyBle.c ****         if(apiResult == CYBLE_ERROR_OK)
 446:Generated_Source\PSoC4/CyBle.c ****         {
 447:Generated_Source\PSoC4/CyBle.c ****             CYBLE_DLE_CONFIG_PARAM_T dleConfigParams;
 448:Generated_Source\PSoC4/CyBle.c ****             CYBLE_PRIVACY_1_2_CONFIG_PARAM_T privacyConfigParams;
 449:Generated_Source\PSoC4/CyBle.c ****             CYBLE_STACK_CONFIG_PARAM_T stackConfig;
 450:Generated_Source\PSoC4/CyBle.c ****             uint16 featureHeapReq;
 451:Generated_Source\PSoC4/CyBle.c ****             
 452:Generated_Source\PSoC4/CyBle.c ****             stackConfig.privacyConfig = &privacyConfigParams;
 453:Generated_Source\PSoC4/CyBle.c ****             stackConfig.dleConfig = &dleConfigParams;
 454:Generated_Source\PSoC4/CyBle.c ****             
 455:Generated_Source\PSoC4/CyBle.c ****             /* Configure default BLE 4.1 features and enabled 4.2 features */
 456:Generated_Source\PSoC4/CyBle.c ****             stackConfig.feature_mask = CYBLE_DLE_FEATURE | CYBLE_LL_PRIVACY_FEATURE | 
 457:Generated_Source\PSoC4/CyBle.c ****                                        CYBLE_SECURE_CONN_FEATURE;
 458:Generated_Source\PSoC4/CyBle.c **** 
 459:Generated_Source\PSoC4/CyBle.c ****             /* Configure DLE */
 460:Generated_Source\PSoC4/CyBle.c ****             dleConfigParams.dleMaxTxCapability = CYBLE_LL_MAX_TX_PAYLOAD_SIZE;
 461:Generated_Source\PSoC4/CyBle.c ****             dleConfigParams.dleMaxRxCapability = CYBLE_LL_MAX_RX_PAYLOAD_SIZE;
 462:Generated_Source\PSoC4/CyBle.c ****             dleConfigParams.dleNumTxBuffer = CYBLE_LL_DEFAULT_NUM_ACL_TX_PACKETS;
 463:Generated_Source\PSoC4/CyBle.c ****         #if(CYBLE_DLE_FEATURE_ENABLED)
 464:Generated_Source\PSoC4/CyBle.c ****             CyBle_EnableDleFeature();              /* Enable DLE code in stack */
 465:Generated_Source\PSoC4/CyBle.c ****         #endif /* CYBLE_DLE_FEATURE_ENABLED */
 466:Generated_Source\PSoC4/CyBle.c ****         
 467:Generated_Source\PSoC4/CyBle.c ****             /* Configure LL Privacy */
 468:Generated_Source\PSoC4/CyBle.c ****             privacyConfigParams.resolvingListSize = CYBLE_MAX_RESOLVABLE_DEVICES;
 469:Generated_Source\PSoC4/CyBle.c ****         #if(CYBLE_LL_PRIVACY_FEATURE_ENABLED)
 470:Generated_Source\PSoC4/CyBle.c ****             CyBle_EnablePrivacyFeature();          /* Enable LL Privacy code in stack */
 471:Generated_Source\PSoC4/CyBle.c ****         #endif /* CYBLE_LL_PRIVACY_FEATURE_ENABLED */
 472:Generated_Source\PSoC4/CyBle.c **** 
 473:Generated_Source\PSoC4/CyBle.c ****             apiResult = CyBle_StackSetFeatureConfig(&stackConfig, &featureHeapReq);
 474:Generated_Source\PSoC4/CyBle.c ****             }
 475:Generated_Source\PSoC4/CyBle.c ****     
 476:Generated_Source\PSoC4/CyBle.c ****         if(apiResult == CYBLE_ERROR_OK)
 477:Generated_Source\PSoC4/CyBle.c ****         {
 478:Generated_Source\PSoC4/CyBle.c ****         
 479:Generated_Source\PSoC4/CyBle.c ****         #if(CYBLE_MODE_PROFILE)
 480:Generated_Source\PSoC4/CyBle.c ****             #if(CYBLE_BONDING_REQUIREMENT == CYBLE_BONDING_YES)
 481:Generated_Source\PSoC4/CyBle.c ****                 apiResult = CyBle_StackInit(&CyBle_EventHandler, cyBle_stackMemoryRam, 
 482:Generated_Source\PSoC4/CyBle.c ****                     CYBLE_STACK_RAM_SIZE - CYBLE_GATT_PREPARE_WRITE_BUFF_LEN, cyBle_stackDataBuff, 
 483:Generated_Source\PSoC4/CyBle.c ****                     CYBLE_STACK_APP_MIN_POOL, cyBle_flashStorage.stackFlashptr, CYBLE_STACK_FLASH_S
 484:Generated_Source\PSoC4/CyBle.c ****             #else
 485:Generated_Source\PSoC4/CyBle.c ****                 apiResult = CyBle_StackInit(&CyBle_EventHandler, cyBle_stackMemoryRam, 
 486:Generated_Source\PSoC4/CyBle.c ****                     CYBLE_STACK_RAM_SIZE - CYBLE_GATT_PREPARE_WRITE_BUFF_LEN, cyBle_stackDataBuff, 
 487:Generated_Source\PSoC4/CyBle.c ****                     CYBLE_STACK_APP_MIN_POOL, NULL, 0u);
ARM GAS  C:\Users\Tymek\AppData\Local\Temp\ccFLwXgx.s 			page 10


 488:Generated_Source\PSoC4/CyBle.c ****             #endif  /* CYBLE_BONDING_REQUIREMENT == CYBLE_BONDING_YES */
 489:Generated_Source\PSoC4/CyBle.c ****         #else /* HCI mode */
 490:Generated_Source\PSoC4/CyBle.c ****             /* The following will perform preparation to use HCI over UART or over
 491:Generated_Source\PSoC4/CyBle.c ****                software. But the following fucntions will not initialize the HCI
 492:Generated_Source\PSoC4/CyBle.c ****                Transport. This will be done as part of Stack initialization, so
 493:Generated_Source\PSoC4/CyBle.c ****                the functions should be called prior CyBle_StackInit().
 494:Generated_Source\PSoC4/CyBle.c ****             */
 495:Generated_Source\PSoC4/CyBle.c ****             #if (CYBLE_HCI_TYPE == CYBLE_HCI_OVER_UART)
 496:Generated_Source\PSoC4/CyBle.c ****                 CyBle_HciUartTransportEnable();
 497:Generated_Source\PSoC4/CyBle.c ****             #else
 498:Generated_Source\PSoC4/CyBle.c ****                 CyBle_HciSoftTransportEnable();
 499:Generated_Source\PSoC4/CyBle.c ****             #endif /* (CYBLE_HCI_TYPE == CYBLE_HCI_OVER_UART) */
 500:Generated_Source\PSoC4/CyBle.c ****             /* This will initialize BLE stack for HCI mode operation */
 501:Generated_Source\PSoC4/CyBle.c ****             apiResult = CyBle_StackInit(&CyBle_EventHandler, cyBle_stackMemoryRam, CYBLE_STACK_RAM_
 502:Generated_Source\PSoC4/CyBle.c ****                 NULL, 0u, NULL, 0u);
 503:Generated_Source\PSoC4/CyBle.c ****         #endif /* CYBLE_MODE_PROFILE */
 504:Generated_Source\PSoC4/CyBle.c **** 
 505:Generated_Source\PSoC4/CyBle.c ****             if(apiResult == CYBLE_ERROR_OK)
 506:Generated_Source\PSoC4/CyBle.c ****             {
 507:Generated_Source\PSoC4/CyBle.c ****                 CyBle_SetState(CYBLE_STATE_INITIALIZING);
 508:Generated_Source\PSoC4/CyBle.c ****                 
 509:Generated_Source\PSoC4/CyBle.c ****             #if (CYBLE_GATT_ROLE_CLIENT)
 510:Generated_Source\PSoC4/CyBle.c ****                 CyBle_SetClientState(CYBLE_CLIENT_STATE_DISCONNECTED);
 511:Generated_Source\PSoC4/CyBle.c ****             #endif /* CYBLE_GATT_ROLE_CLIENT */
 512:Generated_Source\PSoC4/CyBle.c ****                 
 513:Generated_Source\PSoC4/CyBle.c ****             #if(CYBLE_GATT_ROLE_SERVER)
 514:Generated_Source\PSoC4/CyBle.c ****                 apiResult = CyBle_GattsDbRegister(cyBle_gattDB, CYBLE_GATT_DB_INDEX_COUNT, CYBLE_GA
 515:Generated_Source\PSoC4/CyBle.c ****             #endif /* CYBLE_GATT_ROLE_SERVER */
 516:Generated_Source\PSoC4/CyBle.c ****             }
 517:Generated_Source\PSoC4/CyBle.c ****         }
 518:Generated_Source\PSoC4/CyBle.c ****     }
 519:Generated_Source\PSoC4/CyBle.c ****     else
 520:Generated_Source\PSoC4/CyBle.c ****     {
 521:Generated_Source\PSoC4/CyBle.c ****         apiResult = CYBLE_ERROR_INVALID_PARAMETER;
 522:Generated_Source\PSoC4/CyBle.c ****     }
 523:Generated_Source\PSoC4/CyBle.c **** 
 524:Generated_Source\PSoC4/CyBle.c ****     return (apiResult);
 525:Generated_Source\PSoC4/CyBle.c **** }
 526:Generated_Source\PSoC4/CyBle.c **** 
 527:Generated_Source\PSoC4/CyBle.c **** 
 528:Generated_Source\PSoC4/CyBle.c **** /******************************************************************************
 529:Generated_Source\PSoC4/CyBle.c **** * Function Name: CyBle_Stop
 530:Generated_Source\PSoC4/CyBle.c **** ***************************************************************************//**
 531:Generated_Source\PSoC4/CyBle.c **** * 
 532:Generated_Source\PSoC4/CyBle.c **** *  This function stops any ongoing operation in the BLE Stack and forces the 
 533:Generated_Source\PSoC4/CyBle.c **** *  BLE Stack to shut down. The only function that can be called after calling
 534:Generated_Source\PSoC4/CyBle.c **** *  this function is CyBle_Start(). 
 535:Generated_Source\PSoC4/CyBle.c **** * 
 536:Generated_Source\PSoC4/CyBle.c **** * \return
 537:Generated_Source\PSoC4/CyBle.c **** *  None
 538:Generated_Source\PSoC4/CyBle.c **** * 
 539:Generated_Source\PSoC4/CyBle.c **** ******************************************************************************/
 540:Generated_Source\PSoC4/CyBle.c **** void CyBle_Stop(void)
 541:Generated_Source\PSoC4/CyBle.c **** {
 542:Generated_Source\PSoC4/CyBle.c ****     CyBle_Shutdown();                         /* Stop all ongoing activities */
 543:Generated_Source\PSoC4/CyBle.c ****     CyBle_SetState(CYBLE_STATE_STOPPED);
 544:Generated_Source\PSoC4/CyBle.c ****     #if(CYBLE_SHARING_MODE_EXPORT)
ARM GAS  C:\Users\Tymek\AppData\Local\Temp\ccFLwXgx.s 			page 11


 545:Generated_Source\PSoC4/CyBle.c ****         if(cyBle_stackMemoryRam != NULL)
 546:Generated_Source\PSoC4/CyBle.c ****         {
 547:Generated_Source\PSoC4/CyBle.c ****             free(cyBle_stackMemoryRam);
 548:Generated_Source\PSoC4/CyBle.c ****         }
 549:Generated_Source\PSoC4/CyBle.c ****     #endif /* CYBLE_SHARING_MODE_EXPORT */
 550:Generated_Source\PSoC4/CyBle.c **** }
 551:Generated_Source\PSoC4/CyBle.c **** 
 552:Generated_Source\PSoC4/CyBle.c **** 
 553:Generated_Source\PSoC4/CyBle.c **** #if((CYBLE_GAP_ROLE_PERIPHERAL || CYBLE_GAP_ROLE_CENTRAL) && (CYBLE_BONDING_REQUIREMENT == CYBLE_BO
 554:Generated_Source\PSoC4/CyBle.c **** 
 555:Generated_Source\PSoC4/CyBle.c ****     
 556:Generated_Source\PSoC4/CyBle.c **** /******************************************************************************
 557:Generated_Source\PSoC4/CyBle.c **** * Function Name: CyBle_StoreBondingData
 558:Generated_Source\PSoC4/CyBle.c **** ***************************************************************************//**
 559:Generated_Source\PSoC4/CyBle.c **** * 
 560:Generated_Source\PSoC4/CyBle.c **** *  This function writes the new bonding data from RAM to the dedicated Flash 
 561:Generated_Source\PSoC4/CyBle.c **** *  location as defined by the component. It performs data comparing between RAM
 562:Generated_Source\PSoC4/CyBle.c **** *  and Flash before writing to Flash. If there is no change between RAM and Flash
 563:Generated_Source\PSoC4/CyBle.c **** *  data, then no write is performed. It writes only one flash row in one call.
 564:Generated_Source\PSoC4/CyBle.c **** *  Application should keep calling this function till it return CYBLE_ERROR_OK. 
 565:Generated_Source\PSoC4/CyBle.c **** *  This function is available only when Bonding requirement is selected in
 566:Generated_Source\PSoC4/CyBle.c **** *  Security settings.    
 567:Generated_Source\PSoC4/CyBle.c **** * 
 568:Generated_Source\PSoC4/CyBle.c **** *  \param isForceWrite:  If value is set to 0, then stack will check if flash write 
 569:Generated_Source\PSoC4/CyBle.c **** *                 is permissible. 
 570:Generated_Source\PSoC4/CyBle.c **** *  
 571:Generated_Source\PSoC4/CyBle.c **** * \return
 572:Generated_Source\PSoC4/CyBle.c **** *  Return value is of type CYBLE_API_RESULT_T.
 573:Generated_Source\PSoC4/CyBle.c **** *
 574:Generated_Source\PSoC4/CyBle.c **** *   Errors codes                         | Description
 575:Generated_Source\PSoC4/CyBle.c **** *   ----------------------------------   | ------------------------------------
 576:Generated_Source\PSoC4/CyBle.c **** *   CYBLE_ERROR_OK                       | On successful operation
 577:Generated_Source\PSoC4/CyBle.c **** *   CYBLE_ERROR_FLASH_WRITE_NOT_PERMITED | Flash Write is not complete
 578:Generated_Source\PSoC4/CyBle.c **** *   CYBLE_ERROR_INVALID_PARAMETER        | Invalid input parameter  
 579:Generated_Source\PSoC4/CyBle.c **** *   CYBLE_ERROR_FLASH_WRITE              | Error in flash Write	
 580:Generated_Source\PSoC4/CyBle.c ****     
 581:Generated_Source\PSoC4/CyBle.c **** *  \sideeffect
 582:Generated_Source\PSoC4/CyBle.c **** *   For BLE devices with 128K of Flash memory this function will automatically 
 583:Generated_Source\PSoC4/CyBle.c **** *   modify the clock settings for the device.
 584:Generated_Source\PSoC4/CyBle.c **** *   Writing to flash requires changes to be done to the IMO (set to 48 MHz)
 585:Generated_Source\PSoC4/CyBle.c **** *   and HFCLK (source set to IMO) settings. The configuration is restored before
 586:Generated_Source\PSoC4/CyBle.c **** *   returning. This will impact the operation of most of the hardware in the
 587:Generated_Source\PSoC4/CyBle.c **** *   device.
 588:Generated_Source\PSoC4/CyBle.c **** * 
 589:Generated_Source\PSoC4/CyBle.c **** *  \globalvars
 590:Generated_Source\PSoC4/CyBle.c **** *   The cyBle_pendingFlashWrite variable is used to detect status
 591:Generated_Source\PSoC4/CyBle.c **** *   of pending write to flash operation for stack data and CCCD.
 592:Generated_Source\PSoC4/CyBle.c **** *   This function automatically clears pending bits after write operation 
 593:Generated_Source\PSoC4/CyBle.c **** *   complete.
 594:Generated_Source\PSoC4/CyBle.c **** *     
 595:Generated_Source\PSoC4/CyBle.c **** ******************************************************************************/
 596:Generated_Source\PSoC4/CyBle.c **** CYBLE_API_RESULT_T CyBle_StoreBondingData(uint8 isForceWrite)
 597:Generated_Source\PSoC4/CyBle.c **** {
 598:Generated_Source\PSoC4/CyBle.c ****     CYBLE_API_RESULT_T apiResult = CYBLE_ERROR_OK;
 599:Generated_Source\PSoC4/CyBle.c ****     
 600:Generated_Source\PSoC4/CyBle.c ****     /* Store Stack data */
 601:Generated_Source\PSoC4/CyBle.c ****     if((cyBle_pendingFlashWrite & CYBLE_PENDING_STACK_FLASH_WRITE_BIT) != 0u)
ARM GAS  C:\Users\Tymek\AppData\Local\Temp\ccFLwXgx.s 			page 12


 602:Generated_Source\PSoC4/CyBle.c ****     {
 603:Generated_Source\PSoC4/CyBle.c ****         apiResult = CyBle_StoreStackData(isForceWrite);
 604:Generated_Source\PSoC4/CyBle.c ****         if(apiResult == CYBLE_ERROR_OK)
 605:Generated_Source\PSoC4/CyBle.c ****         {
 606:Generated_Source\PSoC4/CyBle.c ****             cyBle_pendingFlashWrite &= (uint8)~CYBLE_PENDING_STACK_FLASH_WRITE_BIT;
 607:Generated_Source\PSoC4/CyBle.c ****             /* Change apiResult if there are more pending data to store */
 608:Generated_Source\PSoC4/CyBle.c ****             if((cyBle_pendingFlashWrite & CYBLE_PENDING_CCCD_FLASH_WRITE_BIT) != 0u)
 609:Generated_Source\PSoC4/CyBle.c ****             {
 610:Generated_Source\PSoC4/CyBle.c ****                 apiResult = CYBLE_ERROR_FLASH_WRITE_NOT_PERMITED;
 611:Generated_Source\PSoC4/CyBle.c ****             }
 612:Generated_Source\PSoC4/CyBle.c ****         }
 613:Generated_Source\PSoC4/CyBle.c ****     }
 614:Generated_Source\PSoC4/CyBle.c **** #if(CYBLE_GATT_DB_CCCD_COUNT != 0u)
 615:Generated_Source\PSoC4/CyBle.c ****     /* Store CCCD values */
 616:Generated_Source\PSoC4/CyBle.c ****     if( ((apiResult == CYBLE_ERROR_OK) || (isForceWrite != 0u)) && 
 617:Generated_Source\PSoC4/CyBle.c ****         ((cyBle_pendingFlashWrite & CYBLE_PENDING_CCCD_FLASH_WRITE_BIT) != 0u) &&
 618:Generated_Source\PSoC4/CyBle.c ****         (cyBle_connHandle.bdHandle <= CYBLE_GAP_MAX_BONDED_DEVICE))
 619:Generated_Source\PSoC4/CyBle.c ****     {
 620:Generated_Source\PSoC4/CyBle.c ****         apiResult = CyBle_StoreAppData(cyBle_attValuesCCCD, cyBle_flashStorage.attValuesCCCDFlashMe
 621:Generated_Source\PSoC4/CyBle.c ****                         cyBle_connHandle.bdHandle], CYBLE_GATT_DB_CCCD_COUNT, isForceWrite);
 622:Generated_Source\PSoC4/CyBle.c ****         if(apiResult == CYBLE_ERROR_OK)
 623:Generated_Source\PSoC4/CyBle.c ****         {
 624:Generated_Source\PSoC4/CyBle.c ****             cyBle_pendingFlashWrite &= (uint8)~CYBLE_PENDING_CCCD_FLASH_WRITE_BIT;
 625:Generated_Source\PSoC4/CyBle.c ****         }
 626:Generated_Source\PSoC4/CyBle.c ****     }
 627:Generated_Source\PSoC4/CyBle.c ****     /* Clear requested CCCD values */
 628:Generated_Source\PSoC4/CyBle.c ****     if( ((apiResult == CYBLE_ERROR_OK) || (isForceWrite != 0u)) && 
 629:Generated_Source\PSoC4/CyBle.c ****         ((cyBle_pendingFlashWrite & CYBLE_PENDING_CCCD_FLASH_CLEAR_MASK) != 0u) )
 630:Generated_Source\PSoC4/CyBle.c ****     {
 631:Generated_Source\PSoC4/CyBle.c ****         if((cyBle_pendingFlashWrite & CYBLE_PENDING_CCCD_FLASH_CLEAR_ALL_BIT) != 0u)
 632:Generated_Source\PSoC4/CyBle.c ****         {
 633:Generated_Source\PSoC4/CyBle.c ****             /* Remove cccd values for all bonded devices */
 634:Generated_Source\PSoC4/CyBle.c ****             uint8 defaultValuesCCCD[CYBLE_GAP_MAX_BONDED_DEVICE + 1u][CYBLE_GATT_DB_CCCD_COUNT];
 635:Generated_Source\PSoC4/CyBle.c ****             
 636:Generated_Source\PSoC4/CyBle.c ****             (void)memset(defaultValuesCCCD, 0, sizeof(defaultValuesCCCD));
 637:Generated_Source\PSoC4/CyBle.c **** 
 638:Generated_Source\PSoC4/CyBle.c ****             apiResult = CyBle_StoreAppData((uint8 *)defaultValuesCCCD, 
 639:Generated_Source\PSoC4/CyBle.c ****                 (const uint8 *)cyBle_flashStorage.attValuesCCCDFlashMemory, sizeof(defaultValuesCCC
 640:Generated_Source\PSoC4/CyBle.c ****             if(apiResult == CYBLE_ERROR_OK)
 641:Generated_Source\PSoC4/CyBle.c ****             {
 642:Generated_Source\PSoC4/CyBle.c ****                 cyBle_pendingFlashWrite &= (uint8)~CYBLE_PENDING_CCCD_FLASH_CLEAR_ALL_BIT;
 643:Generated_Source\PSoC4/CyBle.c ****             }
 644:Generated_Source\PSoC4/CyBle.c ****         }
 645:Generated_Source\PSoC4/CyBle.c ****         else /* Remove cccd values for particular device */
 646:Generated_Source\PSoC4/CyBle.c ****         {
 647:Generated_Source\PSoC4/CyBle.c ****             uint8 defaultValuesCCCD[CYBLE_GATT_DB_CCCD_COUNT] = {0u};
 648:Generated_Source\PSoC4/CyBle.c ****             
 649:Generated_Source\PSoC4/CyBle.c ****             apiResult = CyBle_StoreAppData(defaultValuesCCCD, cyBle_flashStorage.attValuesCCCDFlash
 650:Generated_Source\PSoC4/CyBle.c ****                                     cyBle_pendingFlashClearCccdHandle], CYBLE_GATT_DB_CCCD_COUNT, i
 651:Generated_Source\PSoC4/CyBle.c ****             if(apiResult == CYBLE_ERROR_OK)
 652:Generated_Source\PSoC4/CyBle.c ****             {
 653:Generated_Source\PSoC4/CyBle.c ****                 cyBle_pendingFlashWrite &= (uint8)~CYBLE_PENDING_CCCD_FLASH_CLEAR_BIT;
 654:Generated_Source\PSoC4/CyBle.c ****             }
 655:Generated_Source\PSoC4/CyBle.c ****         }
 656:Generated_Source\PSoC4/CyBle.c ****     }
 657:Generated_Source\PSoC4/CyBle.c **** #endif /* CYBLE_GATT_DB_CCCD_COUNT != 0u */
 658:Generated_Source\PSoC4/CyBle.c ****     return(apiResult);
ARM GAS  C:\Users\Tymek\AppData\Local\Temp\ccFLwXgx.s 			page 13


 659:Generated_Source\PSoC4/CyBle.c **** }
 660:Generated_Source\PSoC4/CyBle.c **** 
 661:Generated_Source\PSoC4/CyBle.c **** 
 662:Generated_Source\PSoC4/CyBle.c **** /******************************************************************************
 663:Generated_Source\PSoC4/CyBle.c **** * Function Name: CyBle_GapRemoveBondedDevice
 664:Generated_Source\PSoC4/CyBle.c **** ***************************************************************************//**
 665:Generated_Source\PSoC4/CyBle.c **** * 
 666:Generated_Source\PSoC4/CyBle.c **** *  This function marks the device untrusted. It removes the bonding information
 667:Generated_Source\PSoC4/CyBle.c **** *  of the device including CCCD values. This function removes device from the
 668:Generated_Source\PSoC4/CyBle.c **** *  white list also when autopopulate white list with bonded devices option is
 669:Generated_Source\PSoC4/CyBle.c **** *  enabled.
 670:Generated_Source\PSoC4/CyBle.c **** * 
 671:Generated_Source\PSoC4/CyBle.c **** *  This function is available only when Bonding requirement is selected in
 672:Generated_Source\PSoC4/CyBle.c **** *  Security settings.    
 673:Generated_Source\PSoC4/CyBle.c **** *
 674:Generated_Source\PSoC4/CyBle.c **** *  \param bdAddr: Pointer to peer device address, of type CYBLE_GAP_BD_ADDR_T.
 675:Generated_Source\PSoC4/CyBle.c **** *                 If device address is set to 0, then all devices shall be
 676:Generated_Source\PSoC4/CyBle.c **** *                 removed from trusted list and white list.
 677:Generated_Source\PSoC4/CyBle.c **** *
 678:Generated_Source\PSoC4/CyBle.c **** * \return
 679:Generated_Source\PSoC4/CyBle.c **** *  CYBLE_API_RESULT_T : Return value indicates if the function succeeded or
 680:Generated_Source\PSoC4/CyBle.c **** *  failed. Following are the possible error codes.
 681:Generated_Source\PSoC4/CyBle.c **** *
 682:Generated_Source\PSoC4/CyBle.c **** *   Errors codes                     | Description
 683:Generated_Source\PSoC4/CyBle.c **** *   ---------------------------------| ------------------------------------
 684:Generated_Source\PSoC4/CyBle.c **** *   CYBLE_ERROR_OK                   | On successful operation.
 685:Generated_Source\PSoC4/CyBle.c **** *   CYBLE_ERROR_INVALID_PARAMETER    | On specifying NULL as input parameter for 'bdAddr'.
 686:Generated_Source\PSoC4/CyBle.c **** *   CYBLE_ERROR_INVALID_OPERATION    | Whitelist is already in use or there is pending write to fla
 687:Generated_Source\PSoC4/CyBle.c **** *   CYBLE_ERROR_NO_DEVICE_ENTITY     | Device does not exist in the bond list.
 688:Generated_Source\PSoC4/CyBle.c **** *
 689:Generated_Source\PSoC4/CyBle.c **** *  \globalvars
 690:Generated_Source\PSoC4/CyBle.c **** *   The bdHandle is set in cyBle_pendingFlashWrite variable to indicate that
 691:Generated_Source\PSoC4/CyBle.c **** *   data should be stored to flash by CyBle_StoreBondingData() afterwards. 
 692:Generated_Source\PSoC4/CyBle.c **** *     
 693:Generated_Source\PSoC4/CyBle.c **** ******************************************************************************/
 694:Generated_Source\PSoC4/CyBle.c **** CYBLE_API_RESULT_T CyBle_GapRemoveBondedDevice(CYBLE_GAP_BD_ADDR_T* bdAddr)
 695:Generated_Source\PSoC4/CyBle.c **** {
 696:Generated_Source\PSoC4/CyBle.c ****     CYBLE_API_RESULT_T apiResult = CYBLE_ERROR_OK;
 697:Generated_Source\PSoC4/CyBle.c ****     
 698:Generated_Source\PSoC4/CyBle.c ****     if(cyBle_pendingFlashWrite == 0u)
 699:Generated_Source\PSoC4/CyBle.c ****     {
 700:Generated_Source\PSoC4/CyBle.c ****         
 701:Generated_Source\PSoC4/CyBle.c ****     #if(CYBLE_GATT_DB_CCCD_COUNT != 0u)
 702:Generated_Source\PSoC4/CyBle.c ****         /* Request to clear CCCD values which will be done by CyBle_StoreBondingData() */
 703:Generated_Source\PSoC4/CyBle.c ****         uint8 bDevHandle;
 704:Generated_Source\PSoC4/CyBle.c ****         CYBLE_GAP_BD_ADDR_T invalidBdAddr = {{0u,0u,0u,0u,0u,0u}, 0u};
 705:Generated_Source\PSoC4/CyBle.c **** 
 706:Generated_Source\PSoC4/CyBle.c ****         if(memcmp(((uint8 *) &(bdAddr->bdAddr)), ((uint8 *) &(invalidBdAddr.bdAddr)), CYBLE_GAP_BD_
 707:Generated_Source\PSoC4/CyBle.c **** 	    {
 708:Generated_Source\PSoC4/CyBle.c ****             /* Request to remove all bonded devices by CyBle_StoreBondingData() */
 709:Generated_Source\PSoC4/CyBle.c ****             cyBle_pendingFlashWrite |= CYBLE_PENDING_CCCD_FLASH_CLEAR_ALL_BIT;
 710:Generated_Source\PSoC4/CyBle.c ****         }
 711:Generated_Source\PSoC4/CyBle.c ****         else
 712:Generated_Source\PSoC4/CyBle.c ****         {
 713:Generated_Source\PSoC4/CyBle.c ****             /* Get the BD handle from Address */
 714:Generated_Source\PSoC4/CyBle.c ****             apiResult = CyBle_GapGetPeerBdHandle(&bDevHandle, bdAddr);
 715:Generated_Source\PSoC4/CyBle.c ****             if(apiResult == CYBLE_ERROR_OK)
ARM GAS  C:\Users\Tymek\AppData\Local\Temp\ccFLwXgx.s 			page 14


 716:Generated_Source\PSoC4/CyBle.c ****             {
 717:Generated_Source\PSoC4/CyBle.c ****                 /* Store BD handle to clear cccd values by CyBle_StoreBondingData() */
 718:Generated_Source\PSoC4/CyBle.c ****                 cyBle_pendingFlashWrite |= CYBLE_PENDING_CCCD_FLASH_CLEAR_BIT;
 719:Generated_Source\PSoC4/CyBle.c ****                 cyBle_pendingFlashClearCccdHandle = bDevHandle;
 720:Generated_Source\PSoC4/CyBle.c ****             }
 721:Generated_Source\PSoC4/CyBle.c ****         }
 722:Generated_Source\PSoC4/CyBle.c ****     #endif /* CYBLE_GATT_DB_CCCD_COUNT != 0u */
 723:Generated_Source\PSoC4/CyBle.c ****         if(apiResult == CYBLE_ERROR_OK)
 724:Generated_Source\PSoC4/CyBle.c ****         {
 725:Generated_Source\PSoC4/CyBle.c ****             apiResult = CyBle_GapRemoveDeviceFromWhiteList(bdAddr);
 726:Generated_Source\PSoC4/CyBle.c ****         }
 727:Generated_Source\PSoC4/CyBle.c ****     }
 728:Generated_Source\PSoC4/CyBle.c ****     else
 729:Generated_Source\PSoC4/CyBle.c ****     {
 730:Generated_Source\PSoC4/CyBle.c ****         apiResult = CYBLE_ERROR_INVALID_OPERATION;
 731:Generated_Source\PSoC4/CyBle.c ****     }
 732:Generated_Source\PSoC4/CyBle.c ****     
 733:Generated_Source\PSoC4/CyBle.c ****     return(apiResult);
 734:Generated_Source\PSoC4/CyBle.c **** }
 735:Generated_Source\PSoC4/CyBle.c **** 
 736:Generated_Source\PSoC4/CyBle.c **** 
 737:Generated_Source\PSoC4/CyBle.c **** #endif /* (CYBLE_GAP_ROLE_PERIPHERAL || CYBLE_GAP_ROLE_CENTRAL) && (CYBLE_BONDING_REQUIREMENT == CY
 738:Generated_Source\PSoC4/CyBle.c **** 
 739:Generated_Source\PSoC4/CyBle.c **** 
 740:Generated_Source\PSoC4/CyBle.c **** #if(CYBLE_GAP_ROLE_PERIPHERAL || CYBLE_GAP_ROLE_BROADCASTER)
 741:Generated_Source\PSoC4/CyBle.c **** 
 742:Generated_Source\PSoC4/CyBle.c ****     /******************************************************************************
 743:Generated_Source\PSoC4/CyBle.c ****     *  Function Name: CyBle_GappStartAdvertisement
 744:Generated_Source\PSoC4/CyBle.c ****     ***************************************************************************//**
 745:Generated_Source\PSoC4/CyBle.c ****     *     
 746:Generated_Source\PSoC4/CyBle.c ****     *  This function is used to start the advertisement using the advertisement data 
 747:Generated_Source\PSoC4/CyBle.c ****     *  set in the component customizer's GUI. After invoking this function, the 
 748:Generated_Source\PSoC4/CyBle.c ****     *  device will be available for connection by the devices configured for GAP 
 749:Generated_Source\PSoC4/CyBle.c ****     *  central role. It is only included if the device is configured for GAP 
 750:Generated_Source\PSoC4/CyBle.c ****     *  Peripheral or GAP Peripheral + Central role.
 751:Generated_Source\PSoC4/CyBle.c ****     *  
 752:Generated_Source\PSoC4/CyBle.c ****     *  On start of advertisement, GAP Peripheral receives the
 753:Generated_Source\PSoC4/CyBle.c ****     *  CYBLE_EVT_GAPP_ADVERTISEMENT_START_STOP event. The following events are 
 754:Generated_Source\PSoC4/CyBle.c ****     *  possible on invoking this function:
 755:Generated_Source\PSoC4/CyBle.c ****     *  
 756:Generated_Source\PSoC4/CyBle.c ****     *  * CYBLE_EVT_GAP_DEVICE_CONNECTED - If the device connects to a GAP Central and 
 757:Generated_Source\PSoC4/CyBle.c ****     *    Link Layer Privacy is disabled in component customizer.
 758:Generated_Source\PSoC4/CyBle.c ****     *  * CYBLE_EVT_GAP_ENHANCE_CONN_COMPLETE - If the device connects to a GAP Central and 
 759:Generated_Source\PSoC4/CyBle.c ****     *    Link Layer Privacy is enabled in component customizer.
 760:Generated_Source\PSoC4/CyBle.c ****     *  * CYBLE_EVT_TIMEOUT: If no device in GAP Central mode connects to this 
 761:Generated_Source\PSoC4/CyBle.c ****     *                       device within the specified timeout limit. Stack 
 762:Generated_Source\PSoC4/CyBle.c ****     *                       automatically initiate stop advertising when Slow 
 763:Generated_Source\PSoC4/CyBle.c ****     *                       advertising was initiated, or starts Slow advertising
 764:Generated_Source\PSoC4/CyBle.c ****     *                       after Fast advertising timeout occur.
 765:Generated_Source\PSoC4/CyBle.c ****     *  * CYBLE_EVT_GAPP_ADVERTISEMENT_START_STOP: If device started or stopped
 766:Generated_Source\PSoC4/CyBle.c ****     *                                               advertising. Use CyBle_GetState()
 767:Generated_Source\PSoC4/CyBle.c ****     *                                               to determine the state. Sequential 
 768:Generated_Source\PSoC4/CyBle.c ****     *                                               advertising could be started when
 769:Generated_Source\PSoC4/CyBle.c ****     *                                               CYBLE_STATE_DISCONNECTED state is
 770:Generated_Source\PSoC4/CyBle.c ****     *                                               returned.
 771:Generated_Source\PSoC4/CyBle.c ****     * 
 772:Generated_Source\PSoC4/CyBle.c ****     *  \param advertisingIntervalType: Fast or slow advertising interval with timings
ARM GAS  C:\Users\Tymek\AppData\Local\Temp\ccFLwXgx.s 			page 15


 773:Generated_Source\PSoC4/CyBle.c ****     *                                 entered in Advertising settings section of the
 774:Generated_Source\PSoC4/CyBle.c ****     *                                 customizer.
 775:Generated_Source\PSoC4/CyBle.c ****     *  * CYBLE_ADVERTISING_FAST   0x00u
 776:Generated_Source\PSoC4/CyBle.c ****     *  * CYBLE_ADVERTISING_SLOW   0x01u
 777:Generated_Source\PSoC4/CyBle.c ****     *  * CYBLE_ADVERTISING_CUSTOM 0x02u
 778:Generated_Source\PSoC4/CyBle.c ****     * 
 779:Generated_Source\PSoC4/CyBle.c ****     * \return
 780:Generated_Source\PSoC4/CyBle.c ****     *  CYBLE_API_RESULT_T : Return value indicates if the function succeeded or
 781:Generated_Source\PSoC4/CyBle.c ****     *  failed. Following are the possible error codes.
 782:Generated_Source\PSoC4/CyBle.c ****     * 
 783:Generated_Source\PSoC4/CyBle.c ****     *   Errors codes                      |  Description
 784:Generated_Source\PSoC4/CyBle.c ****     *   --------------------------------- |  --------------------------------
 785:Generated_Source\PSoC4/CyBle.c ****     *   CYBLE_ERROR_OK                    |  On successful operation.
 786:Generated_Source\PSoC4/CyBle.c ****     *   CYBLE_ERROR_INVALID_PARAMETER     |  On passing an invalid parameter.
 787:Generated_Source\PSoC4/CyBle.c ****     *   CYBLE_ERROR_INVALID_STATE         |  On calling this function not in Disconnected state.
 788:Generated_Source\PSoC4/CyBle.c ****     *
 789:Generated_Source\PSoC4/CyBle.c ****     * 
 790:Generated_Source\PSoC4/CyBle.c ****     *******************************************************************************/
 791:Generated_Source\PSoC4/CyBle.c ****     CYBLE_API_RESULT_T CyBle_GappStartAdvertisement(uint8 advertisingIntervalType)
 792:Generated_Source\PSoC4/CyBle.c ****     {
 793:Generated_Source\PSoC4/CyBle.c ****         CYBLE_API_RESULT_T apiResult;
 794:Generated_Source\PSoC4/CyBle.c ****         
 795:Generated_Source\PSoC4/CyBle.c ****         if(advertisingIntervalType > CYBLE_ADVERTISING_CUSTOM)
 796:Generated_Source\PSoC4/CyBle.c ****         {
 797:Generated_Source\PSoC4/CyBle.c ****             apiResult = CYBLE_ERROR_INVALID_PARAMETER;
 798:Generated_Source\PSoC4/CyBle.c ****         }
 799:Generated_Source\PSoC4/CyBle.c ****         else if((CYBLE_STATE_DISCONNECTED == CyBle_GetState()) && ((cyBle_eventHandlerFlag & CYBLE_
 800:Generated_Source\PSoC4/CyBle.c ****         {   
 801:Generated_Source\PSoC4/CyBle.c ****             if(advertisingIntervalType == CYBLE_ADVERTISING_FAST)
 802:Generated_Source\PSoC4/CyBle.c ****             {
 803:Generated_Source\PSoC4/CyBle.c ****                 cyBle_discoveryModeInfo.advTo = CYBLE_FAST_ADV_TIMEOUT;
 804:Generated_Source\PSoC4/CyBle.c ****                 cyBle_discoveryModeInfo.advParam->advIntvMin = CYBLE_FAST_ADV_INT_MIN;
 805:Generated_Source\PSoC4/CyBle.c ****                 cyBle_discoveryModeInfo.advParam->advIntvMax = CYBLE_FAST_ADV_INT_MAX;
 806:Generated_Source\PSoC4/CyBle.c ****             }
 807:Generated_Source\PSoC4/CyBle.c ****             else if(advertisingIntervalType == CYBLE_ADVERTISING_SLOW)
 808:Generated_Source\PSoC4/CyBle.c ****             {
 809:Generated_Source\PSoC4/CyBle.c ****                 cyBle_discoveryModeInfo.advTo = CYBLE_SLOW_ADV_TIMEOUT;
 810:Generated_Source\PSoC4/CyBle.c ****                 cyBle_discoveryModeInfo.advParam->advIntvMin = CYBLE_SLOW_ADV_INT_MIN;
 811:Generated_Source\PSoC4/CyBle.c ****                 cyBle_discoveryModeInfo.advParam->advIntvMax = CYBLE_SLOW_ADV_INT_MAX;
 812:Generated_Source\PSoC4/CyBle.c ****             }       
 813:Generated_Source\PSoC4/CyBle.c ****             else /* Do not update advertising intervals */
 814:Generated_Source\PSoC4/CyBle.c ****             {
 815:Generated_Source\PSoC4/CyBle.c ****             }
 816:Generated_Source\PSoC4/CyBle.c ****             cyBle_advertisingIntervalType = advertisingIntervalType;
 817:Generated_Source\PSoC4/CyBle.c ****             apiResult = CyBle_GappEnterDiscoveryMode(&cyBle_discoveryModeInfo);
 818:Generated_Source\PSoC4/CyBle.c ****         
 819:Generated_Source\PSoC4/CyBle.c ****             if(apiResult == CYBLE_ERROR_OK)
 820:Generated_Source\PSoC4/CyBle.c ****             {
 821:Generated_Source\PSoC4/CyBle.c ****                 cyBle_eventHandlerFlag |= CYBLE_START_FLAG;
 822:Generated_Source\PSoC4/CyBle.c ****             }
 823:Generated_Source\PSoC4/CyBle.c ****         }
 824:Generated_Source\PSoC4/CyBle.c ****         else
 825:Generated_Source\PSoC4/CyBle.c ****         {
 826:Generated_Source\PSoC4/CyBle.c ****             apiResult = CYBLE_ERROR_INVALID_STATE;
 827:Generated_Source\PSoC4/CyBle.c ****         }
 828:Generated_Source\PSoC4/CyBle.c **** 
 829:Generated_Source\PSoC4/CyBle.c ****         return (apiResult);
ARM GAS  C:\Users\Tymek\AppData\Local\Temp\ccFLwXgx.s 			page 16


 830:Generated_Source\PSoC4/CyBle.c ****     }
 831:Generated_Source\PSoC4/CyBle.c **** 
 832:Generated_Source\PSoC4/CyBle.c ****     
 833:Generated_Source\PSoC4/CyBle.c ****     /******************************************************************************
 834:Generated_Source\PSoC4/CyBle.c ****     * Function Name: CyBle_GappStopAdvertisement
 835:Generated_Source\PSoC4/CyBle.c ****     ***************************************************************************//**
 836:Generated_Source\PSoC4/CyBle.c ****     * 
 837:Generated_Source\PSoC4/CyBle.c ****     *   This function can be used to exit from discovery mode. After the execution 
 838:Generated_Source\PSoC4/CyBle.c ****     *   of this function, there will no longer be any advertisements. On stopping 
 839:Generated_Source\PSoC4/CyBle.c ****     *   advertising, GAP Peripheral receives CYBLE_EVT_GAPP_ADVERTISEMENT_START_STOP
 840:Generated_Source\PSoC4/CyBle.c ****     *   event. It is expected that the application layer tracks the function call 
 841:Generated_Source\PSoC4/CyBle.c ****     *   performed before occurrence of this event as this event can occur on making 
 842:Generated_Source\PSoC4/CyBle.c ****     *   a call to Cy_BleGappStartAdvertisement(), CyBle_GappEnterDiscoveryMode(), 
 843:Generated_Source\PSoC4/CyBle.c ****     *   or CyBle_GappStartAdvertisement() functions as well.
 844:Generated_Source\PSoC4/CyBle.c ****     *   
 845:Generated_Source\PSoC4/CyBle.c ****     *   The following event occurs on invoking this function:
 846:Generated_Source\PSoC4/CyBle.c ****     *   * CYBLE_EVT_GAPP_ADVERTISEMENT_START_STOP
 847:Generated_Source\PSoC4/CyBle.c ****     * 
 848:Generated_Source\PSoC4/CyBle.c ****     *  \return
 849:Generated_Source\PSoC4/CyBle.c ****     *   None
 850:Generated_Source\PSoC4/CyBle.c ****     * 
 851:Generated_Source\PSoC4/CyBle.c ****     *******************************************************************************/
 852:Generated_Source\PSoC4/CyBle.c ****     void CyBle_GappStopAdvertisement(void)
 853:Generated_Source\PSoC4/CyBle.c ****     {
 854:Generated_Source\PSoC4/CyBle.c ****         CyBle_GappExitDiscoveryMode();
 855:Generated_Source\PSoC4/CyBle.c ****         cyBle_eventHandlerFlag |= CYBLE_STOP_FLAG;
 856:Generated_Source\PSoC4/CyBle.c ****     }
 857:Generated_Source\PSoC4/CyBle.c ****     
 858:Generated_Source\PSoC4/CyBle.c ****     
 859:Generated_Source\PSoC4/CyBle.c ****     /******************************************************************************
 860:Generated_Source\PSoC4/CyBle.c ****     * Function Name: CyBle_ChangeAdDeviceAddress
 861:Generated_Source\PSoC4/CyBle.c ****     ***************************************************************************//**
 862:Generated_Source\PSoC4/CyBle.c ****     * 
 863:Generated_Source\PSoC4/CyBle.c ****     *  This function is used to set the Bluetooth device address into the 
 864:Generated_Source\PSoC4/CyBle.c ****     *  advertisement or scan response data structure.
 865:Generated_Source\PSoC4/CyBle.c ****     * 
 866:Generated_Source\PSoC4/CyBle.c ****     *  \param bdAddr: Bluetooth Device address. The variable is of type CYBLE_GAP_BD_ADDR_T
 867:Generated_Source\PSoC4/CyBle.c ****     *  \param dest: 0 - selects advertisement structure, not zero value selects scan 
 868:Generated_Source\PSoC4/CyBle.c ****     *               response structure.
 869:Generated_Source\PSoC4/CyBle.c ****     * 
 870:Generated_Source\PSoC4/CyBle.c ****     * \return
 871:Generated_Source\PSoC4/CyBle.c ****     *  None
 872:Generated_Source\PSoC4/CyBle.c ****     *  
 873:Generated_Source\PSoC4/CyBle.c ****     *******************************************************************************/
 874:Generated_Source\PSoC4/CyBle.c ****     void CyBle_ChangeAdDeviceAddress(const CYBLE_GAP_BD_ADDR_T* bdAddr, uint8 dest)
 875:Generated_Source\PSoC4/CyBle.c ****     {
 876:Generated_Source\PSoC4/CyBle.c ****         uint8 i;
 877:Generated_Source\PSoC4/CyBle.c ****         uint8 *destBuffer = NULL;
 878:Generated_Source\PSoC4/CyBle.c ****         
 879:Generated_Source\PSoC4/CyBle.c ****         if(dest == 0u)      /* Destination - advertising structure */
 880:Generated_Source\PSoC4/CyBle.c ****         {
 881:Generated_Source\PSoC4/CyBle.c ****             #ifdef CYBLE_ADV_PKT_INDEX_BLUETOOTH_DEVICE_ADDRESS
 882:Generated_Source\PSoC4/CyBle.c ****                 destBuffer = &cyBle_discoveryData.advData[CYBLE_ADV_PKT_INDEX_BLUETOOTH_DEVICE_ADDR
 883:Generated_Source\PSoC4/CyBle.c ****             #endif /* CYBLE_ADV_PKT_INDEX_BLUETOOTH_DEVICE_ADDRESS */
 884:Generated_Source\PSoC4/CyBle.c ****         }
 885:Generated_Source\PSoC4/CyBle.c ****         else                /* Destination - scan response structure */
 886:Generated_Source\PSoC4/CyBle.c ****         {
ARM GAS  C:\Users\Tymek\AppData\Local\Temp\ccFLwXgx.s 			page 17


 887:Generated_Source\PSoC4/CyBle.c ****             #ifdef CYBLE_SCN_PKT_INDEX_BLUETOOTH_DEVICE_ADDRESS
 888:Generated_Source\PSoC4/CyBle.c ****                 destBuffer = &cyBle_scanRspData.scanRspData[CYBLE_SCN_PKT_INDEX_BLUETOOTH_DEVICE_AD
 889:Generated_Source\PSoC4/CyBle.c ****             #endif /* CYBLE_SCN_PKT_INDEX_BLUETOOTH_DEVICE_ADDRESS */    
 890:Generated_Source\PSoC4/CyBle.c ****         }
 891:Generated_Source\PSoC4/CyBle.c ****         
 892:Generated_Source\PSoC4/CyBle.c ****         if(destBuffer != NULL)
 893:Generated_Source\PSoC4/CyBle.c ****         {
 894:Generated_Source\PSoC4/CyBle.c ****             /* Update Device Address type */
 895:Generated_Source\PSoC4/CyBle.c ****             destBuffer[0u] = bdAddr->type;
 896:Generated_Source\PSoC4/CyBle.c ****             
 897:Generated_Source\PSoC4/CyBle.c ****             for(i = 0u; i < CYBLE_GAP_BD_ADDR_SIZE; i++)
 898:Generated_Source\PSoC4/CyBle.c ****             {
 899:Generated_Source\PSoC4/CyBle.c ****                 destBuffer[i + 1u] = bdAddr->bdAddr[i];
 900:Generated_Source\PSoC4/CyBle.c ****             }
 901:Generated_Source\PSoC4/CyBle.c ****         }
 902:Generated_Source\PSoC4/CyBle.c ****     }
 903:Generated_Source\PSoC4/CyBle.c ****   
 904:Generated_Source\PSoC4/CyBle.c **** #endif /* CYBLE_GAP_ROLE_PERIPHERAL || CYBLE_GAP_ROLE_BROADCASTER */
 905:Generated_Source\PSoC4/CyBle.c **** 
 906:Generated_Source\PSoC4/CyBle.c **** 
 907:Generated_Source\PSoC4/CyBle.c **** #if(CYBLE_GAP_ROLE_CENTRAL || CYBLE_GAP_ROLE_OBSERVER)
 908:Generated_Source\PSoC4/CyBle.c **** 
 909:Generated_Source\PSoC4/CyBle.c ****     /******************************************************************************
 910:Generated_Source\PSoC4/CyBle.c ****     * Function Name: CyBle_GapcStartScan
 911:Generated_Source\PSoC4/CyBle.c ****     ***************************************************************************//**
 912:Generated_Source\PSoC4/CyBle.c ****     * 
 913:Generated_Source\PSoC4/CyBle.c ****     *   This function is used for discovering GAP peripheral devices that are 
 914:Generated_Source\PSoC4/CyBle.c ****     *   available for connection. It performs the scanning routine using the 
 915:Generated_Source\PSoC4/CyBle.c ****     *   parameters entered in the component's customizer.
 916:Generated_Source\PSoC4/CyBle.c ****     *   
 917:Generated_Source\PSoC4/CyBle.c ****     *   As soon as the discovery operation starts, CYBLE_EVT_GAPC_SCAN_START_STOP 
 918:Generated_Source\PSoC4/CyBle.c ****     *   event is generated. The CYBLE_EVT_GAPC_SCAN_PROGRESS_RESULT event is 
 919:Generated_Source\PSoC4/CyBle.c ****     *   generated when a GAP peripheral device is located. There are three discovery
 920:Generated_Source\PSoC4/CyBle.c ****     *   procedures can be selected in the customizer's GUI:
 921:Generated_Source\PSoC4/CyBle.c ****     *   
 922:Generated_Source\PSoC4/CyBle.c ****     *   * Observation procedure: A device performing the observer role receives only
 923:Generated_Source\PSoC4/CyBle.c ****     *                            advertisement data from devices irrespective of 
 924:Generated_Source\PSoC4/CyBle.c ****     *                            their discoverable mode settings. Advertisement 
 925:Generated_Source\PSoC4/CyBle.c ****     *                            data received is provided by the event,      
 926:Generated_Source\PSoC4/CyBle.c ****     *                            CYBLE_EVT_GAPC_SCAN_PROGRESS_RESULT. This procedure
 927:Generated_Source\PSoC4/CyBle.c ****     *                            requires the scanType sub parameter to be passive
 928:Generated_Source\PSoC4/CyBle.c ****     *                            scanning. 
 929:Generated_Source\PSoC4/CyBle.c ****     *   
 930:Generated_Source\PSoC4/CyBle.c ****     *   * Limited Discovery procedure: A device performing the limited discovery
 931:Generated_Source\PSoC4/CyBle.c ****     *                                  procedure receives advertisement data and 
 932:Generated_Source\PSoC4/CyBle.c ****     *                                  scan# response data from devices in the 
 933:Generated_Source\PSoC4/CyBle.c ****     *                                  limited discoverable mode only. Received data
 934:Generated_Source\PSoC4/CyBle.c ****     *                                  is provided by the event, 
 935:Generated_Source\PSoC4/CyBle.c ****     *                                  CYBLE_EVT_GAPC_SCAN_PROGRESS_RESULT. This 
 936:Generated_Source\PSoC4/CyBle.c ****     *                                  procedure requires the scanType sub-parameter 
 937:Generated_Source\PSoC4/CyBle.c ****     *                                  to be active scanning.
 938:Generated_Source\PSoC4/CyBle.c ****     *   
 939:Generated_Source\PSoC4/CyBle.c ****     *   * General Discovery procedure: A device performing the general discovery 
 940:Generated_Source\PSoC4/CyBle.c ****     *                                  procedure receives the advertisement data and
 941:Generated_Source\PSoC4/CyBle.c ****     *                                  scan response data from devices in both 
 942:Generated_Source\PSoC4/CyBle.c ****     *                                  limited discoverable mode and the general 
 943:Generated_Source\PSoC4/CyBle.c ****     *                                  discoverable mode. Received data is provided
ARM GAS  C:\Users\Tymek\AppData\Local\Temp\ccFLwXgx.s 			page 18


 944:Generated_Source\PSoC4/CyBle.c ****     *                                  by the event,
 945:Generated_Source\PSoC4/CyBle.c ****     *                                  CYBLE_EVT_GAPC_SCAN_PROGRESS_RESULT. This 
 946:Generated_Source\PSoC4/CyBle.c ****     *                                  procedure requires the scanType sub-parameter
 947:Generated_Source\PSoC4/CyBle.c ****     *                                  to be active scanning.
 948:Generated_Source\PSoC4/CyBle.c ****     *   
 949:Generated_Source\PSoC4/CyBle.c ****     *   Every Advertisement / Scan response packet received results in a new event, 
 950:Generated_Source\PSoC4/CyBle.c ****     *   CYBLE_EVT_GAPC_SCAN_PROGRESS_RESULT.
 951:Generated_Source\PSoC4/CyBle.c ****     *   If 'scanTo' sub-parameter is a non-zero value, then upon commencement of 
 952:Generated_Source\PSoC4/CyBle.c ****     *   discovery procedure and elapsed time = 'scanTo', CYBLE_EVT_TIMEOUT event
 953:Generated_Source\PSoC4/CyBle.c ****     *   is generated with the event parameter indicating CYBLE_GAP_SCAN_TO.
 954:Generated_Source\PSoC4/CyBle.c ****     *   Possible generated events are:
 955:Generated_Source\PSoC4/CyBle.c ****     *   * CYBLE_EVT_GAPC_SCAN_START_STOP: If a device started or stopped scanning. 
 956:Generated_Source\PSoC4/CyBle.c ****     *                                     Use CyBle_GetState() to determine the 
 957:Generated_Source\PSoC4/CyBle.c ****     *                                     state. Sequential scanning could be 
 958:Generated_Source\PSoC4/CyBle.c ****     *                                     started when CYBLE_STATE_DISCONNECTED 
 959:Generated_Source\PSoC4/CyBle.c ****     *                                     state is returned. 
 960:Generated_Source\PSoC4/CyBle.c ****     *   * CYBLE_EVT_GAPC_SCAN_PROGRESS_RESULT 
 961:Generated_Source\PSoC4/CyBle.c ****     *   * CYBLE_EVT_TIMEOUT (CYBLE_GAP_SCAN_TO)
 962:Generated_Source\PSoC4/CyBle.c ****     * 
 963:Generated_Source\PSoC4/CyBle.c ****     *   \param scanningIntervalType:  Fast or slow scanning interval with
 964:Generated_Source\PSoC4/CyBle.c ****     *       timings entered in Scan settings section of the customizer.
 965:Generated_Source\PSoC4/CyBle.c ****     * 	  * CYBLE_SCANNING_FAST   0x00u
 966:Generated_Source\PSoC4/CyBle.c ****     * 	  * CYBLE_SCANNING_SLOW   0x01u
 967:Generated_Source\PSoC4/CyBle.c ****     * 	  * CYBLE_SCANNING_CUSTOM 0x02u
 968:Generated_Source\PSoC4/CyBle.c ****     * 
 969:Generated_Source\PSoC4/CyBle.c ****     * \return
 970:Generated_Source\PSoC4/CyBle.c ****     *  CYBLE_API_RESULT_T : Return value indicates if the function succeeded or
 971:Generated_Source\PSoC4/CyBle.c ****     *  failed. Following are the possible error codes.
 972:Generated_Source\PSoC4/CyBle.c ****     *
 973:Generated_Source\PSoC4/CyBle.c ****     *   Errors codes                       | Description
 974:Generated_Source\PSoC4/CyBle.c ****     *   ---------------------------------- | -----------------------------------
 975:Generated_Source\PSoC4/CyBle.c ****     *   CYBLE_ERROR_OK                     | On successful operation.
 976:Generated_Source\PSoC4/CyBle.c ****     *   CYBLE_ERROR_STACK_INTERNAL         | An error occurred in the BLE stack.
 977:Generated_Source\PSoC4/CyBle.c ****     *   CYBLE_ERROR_INVALID_PARAMETER      | On passing an invalid parameter.
 978:Generated_Source\PSoC4/CyBle.c ****     *  
 979:Generated_Source\PSoC4/CyBle.c ****     *******************************************************************************/
 980:Generated_Source\PSoC4/CyBle.c ****     CYBLE_API_RESULT_T CyBle_GapcStartScan(uint8 scanningIntervalType)
 981:Generated_Source\PSoC4/CyBle.c ****     {
 982:Generated_Source\PSoC4/CyBle.c ****         CYBLE_API_RESULT_T apiResult;
 983:Generated_Source\PSoC4/CyBle.c **** 
 984:Generated_Source\PSoC4/CyBle.c ****         if(scanningIntervalType > CYBLE_SCANNING_CUSTOM)
 985:Generated_Source\PSoC4/CyBle.c ****         {
 986:Generated_Source\PSoC4/CyBle.c ****             apiResult = CYBLE_ERROR_INVALID_PARAMETER;
 987:Generated_Source\PSoC4/CyBle.c ****         }
 988:Generated_Source\PSoC4/CyBle.c ****         else
 989:Generated_Source\PSoC4/CyBle.c ****         {
 990:Generated_Source\PSoC4/CyBle.c ****             if(scanningIntervalType == CYBLE_SCANNING_FAST)
 991:Generated_Source\PSoC4/CyBle.c ****             {
 992:Generated_Source\PSoC4/CyBle.c ****                 cyBle_discoveryInfo.scanTo = CYBLE_FAST_SCAN_TIMEOUT;
 993:Generated_Source\PSoC4/CyBle.c ****                 cyBle_discoveryInfo.scanIntv = CYBLE_FAST_SCAN_INTERVAL;
 994:Generated_Source\PSoC4/CyBle.c ****                 cyBle_discoveryInfo.scanWindow = CYBLE_FAST_SCAN_WINDOW;
 995:Generated_Source\PSoC4/CyBle.c ****             }
 996:Generated_Source\PSoC4/CyBle.c ****             else if(scanningIntervalType == CYBLE_SCANNING_SLOW)
 997:Generated_Source\PSoC4/CyBle.c ****             {
 998:Generated_Source\PSoC4/CyBle.c ****                 cyBle_discoveryInfo.scanTo = CYBLE_SLOW_SCAN_TIMEOUT;
 999:Generated_Source\PSoC4/CyBle.c ****                 cyBle_discoveryInfo.scanIntv = CYBLE_SLOW_SCAN_INTERVAL;
1000:Generated_Source\PSoC4/CyBle.c ****                 cyBle_discoveryInfo.scanWindow = CYBLE_SLOW_SCAN_WINDOW;
ARM GAS  C:\Users\Tymek\AppData\Local\Temp\ccFLwXgx.s 			page 19


1001:Generated_Source\PSoC4/CyBle.c ****             }       
1002:Generated_Source\PSoC4/CyBle.c ****             else /* Do not update scanning intervals */
1003:Generated_Source\PSoC4/CyBle.c ****             {
1004:Generated_Source\PSoC4/CyBle.c ****             }
1005:Generated_Source\PSoC4/CyBle.c ****             
1006:Generated_Source\PSoC4/CyBle.c ****             cyBle_scanningIntervalType = scanningIntervalType;
1007:Generated_Source\PSoC4/CyBle.c ****             apiResult = CyBle_GapcStartDiscovery(&cyBle_discoveryInfo);
1008:Generated_Source\PSoC4/CyBle.c ****         
1009:Generated_Source\PSoC4/CyBle.c ****             if(apiResult == CYBLE_ERROR_OK)
1010:Generated_Source\PSoC4/CyBle.c ****             {
1011:Generated_Source\PSoC4/CyBle.c ****                 cyBle_eventHandlerFlag |= CYBLE_START_FLAG;
1012:Generated_Source\PSoC4/CyBle.c ****             }
1013:Generated_Source\PSoC4/CyBle.c ****         }
1014:Generated_Source\PSoC4/CyBle.c ****        
1015:Generated_Source\PSoC4/CyBle.c ****         return (apiResult);
1016:Generated_Source\PSoC4/CyBle.c ****     }
1017:Generated_Source\PSoC4/CyBle.c ****     
1018:Generated_Source\PSoC4/CyBle.c ****     
1019:Generated_Source\PSoC4/CyBle.c ****     /******************************************************************************
1020:Generated_Source\PSoC4/CyBle.c ****     * Function Name: CyBle_GapcStopScan
1021:Generated_Source\PSoC4/CyBle.c ****     ***************************************************************************//**
1022:Generated_Source\PSoC4/CyBle.c ****     * 
1023:Generated_Source\PSoC4/CyBle.c ****     *   This function used to stop the discovery of devices. On stopping discovery
1024:Generated_Source\PSoC4/CyBle.c ****     *   operation, CYBLE_EVT_GAPC_SCAN_START_STOP event is generated. Application
1025:Generated_Source\PSoC4/CyBle.c ****     *   layer needs to keep track of the function call made before receiving this
1026:Generated_Source\PSoC4/CyBle.c ****     *   event to associate this event with either the start or stop discovery
1027:Generated_Source\PSoC4/CyBle.c ****     *   function.
1028:Generated_Source\PSoC4/CyBle.c ****     * 
1029:Generated_Source\PSoC4/CyBle.c ****     *   Possible events generated are:
1030:Generated_Source\PSoC4/CyBle.c ****     *    * CYBLE_EVT_GAPC_SCAN_START_STOP
1031:Generated_Source\PSoC4/CyBle.c ****     * 
1032:Generated_Source\PSoC4/CyBle.c ****     *  \return
1033:Generated_Source\PSoC4/CyBle.c ****     *   None
1034:Generated_Source\PSoC4/CyBle.c ****     * 
1035:Generated_Source\PSoC4/CyBle.c ****     *******************************************************************************/
1036:Generated_Source\PSoC4/CyBle.c ****     void CyBle_GapcStopScan(void)
1037:Generated_Source\PSoC4/CyBle.c ****     {
1038:Generated_Source\PSoC4/CyBle.c ****         CyBle_GapcStopDiscovery();
1039:Generated_Source\PSoC4/CyBle.c ****         
1040:Generated_Source\PSoC4/CyBle.c ****         cyBle_eventHandlerFlag |= CYBLE_STOP_FLAG;
1041:Generated_Source\PSoC4/CyBle.c ****     }
1042:Generated_Source\PSoC4/CyBle.c **** 
1043:Generated_Source\PSoC4/CyBle.c ****     
1044:Generated_Source\PSoC4/CyBle.c **** #endif /* CYBLE_GAP_ROLE_CENTRAL || CYBLE_GAP_ROLE_OBSERVER */
1045:Generated_Source\PSoC4/CyBle.c **** 
1046:Generated_Source\PSoC4/CyBle.c **** 
1047:Generated_Source\PSoC4/CyBle.c **** #if(CYBLE_GAP_ROLE_CENTRAL)
1048:Generated_Source\PSoC4/CyBle.c **** 
1049:Generated_Source\PSoC4/CyBle.c ****     /******************************************************************************
1050:Generated_Source\PSoC4/CyBle.c ****     * Function Name: CyBle_GapcConnectDevice
1051:Generated_Source\PSoC4/CyBle.c ****     ***************************************************************************//**
1052:Generated_Source\PSoC4/CyBle.c ****     * 
1053:Generated_Source\PSoC4/CyBle.c ****     *  This function is used to send a connection request to the remote device with
1054:Generated_Source\PSoC4/CyBle.c ****     *  the connection parameters set in the component customizer. This function needs
1055:Generated_Source\PSoC4/CyBle.c ****     *  to be called only once after the target device is discovered by 
1056:Generated_Source\PSoC4/CyBle.c ****     *  CyBle_GapcStartScan() and further scanning has stopped. Scanning is 
1057:Generated_Source\PSoC4/CyBle.c ****     *  successfully stopped on invoking CyBle_GapcStopScan() and then receiving the
ARM GAS  C:\Users\Tymek\AppData\Local\Temp\ccFLwXgx.s 			page 20


1058:Generated_Source\PSoC4/CyBle.c ****     *  event CYBLE_EVT_GAPC_SCAN_START_STOP with sub-parameter 'success' = 0x01u.
1059:Generated_Source\PSoC4/CyBle.c ****     *  
1060:Generated_Source\PSoC4/CyBle.c ****     *  On successful connection, the following events are generated at the GAP 
1061:Generated_Source\PSoC4/CyBle.c ****     *  Central device (as well as the GAP Peripheral device), in the following order.
1062:Generated_Source\PSoC4/CyBle.c ****     *  * CYBLE_EVT_GATT_CONNECT_IND
1063:Generated_Source\PSoC4/CyBle.c ****     *  * CYBLE_EVT_GAP_DEVICE_CONNECTED - If the device connects to a GAP Central and 
1064:Generated_Source\PSoC4/CyBle.c ****     *    Link Layer Privacy is disabled in component customizer.
1065:Generated_Source\PSoC4/CyBle.c ****     *  * CYBLE_EVT_GAP_ENHANCE_CONN_COMPLETE - If the device connects to a GAP Central and 
1066:Generated_Source\PSoC4/CyBle.c ****     *    Link Layer Privacy is enabled in component customizer.
1067:Generated_Source\PSoC4/CyBle.c ****     *  * CYBLE_EVT_GAP_DEVICE_CONNECTED
1068:Generated_Source\PSoC4/CyBle.c ****     *  
1069:Generated_Source\PSoC4/CyBle.c ****     *  A procedure is considered to have timed out if a connection response packet is 
1070:Generated_Source\PSoC4/CyBle.c ****     *  not received within time set by cyBle_connectingTimeout global variable
1071:Generated_Source\PSoC4/CyBle.c ****     *  (30 seconds by default). CYBLE_EVT_TIMEOUT event with CYBLE_GENERIC_TO parameter
1072:Generated_Source\PSoC4/CyBle.c ****     *  will indicate about connection procedure timeout. Connection will automatically
1073:Generated_Source\PSoC4/CyBle.c ****     *  be canceled and state will be changed to CYBLE_STATE_DISCONNECTED.
1074:Generated_Source\PSoC4/CyBle.c ****     * 
1075:Generated_Source\PSoC4/CyBle.c ****     *  \param address: The device address of the remote device to connect to. 
1076:Generated_Source\PSoC4/CyBle.c ****     *  
1077:Generated_Source\PSoC4/CyBle.c ****     * \return
1078:Generated_Source\PSoC4/CyBle.c ****     *  CYBLE_API_RESULT_T : Return value indicates if the function succeeded or 
1079:Generated_Source\PSoC4/CyBle.c ****     *  failed. Following are the possible error codes.
1080:Generated_Source\PSoC4/CyBle.c ****     *
1081:Generated_Source\PSoC4/CyBle.c ****     *   Errors codes                       | Description
1082:Generated_Source\PSoC4/CyBle.c ****     *   ------------                       | -----------
1083:Generated_Source\PSoC4/CyBle.c ****     *   CYBLE_ERROR_OK                     | On successful operation.
1084:Generated_Source\PSoC4/CyBle.c ****     *   CYBLE_ERROR_STACK_INTERNAL         | On error occurred in the BLE stack.
1085:Generated_Source\PSoC4/CyBle.c ****     *   CYBLE_ERROR_INVALID_PARAMETER      | On passing an invalid parameter.
1086:Generated_Source\PSoC4/CyBle.c ****     *   CYBLE_ERROR_INVALID_STATE          | On calling this function not in Disconnected state.
1087:Generated_Source\PSoC4/CyBle.c ****     *  
1088:Generated_Source\PSoC4/CyBle.c ****     ******************************************************************************/
1089:Generated_Source\PSoC4/CyBle.c ****     CYBLE_API_RESULT_T CyBle_GapcConnectDevice(const CYBLE_GAP_BD_ADDR_T * address)
1090:Generated_Source\PSoC4/CyBle.c ****     {
1091:Generated_Source\PSoC4/CyBle.c ****         CYBLE_API_RESULT_T apiResult;
1092:Generated_Source\PSoC4/CyBle.c ****         uint8 i;
1093:Generated_Source\PSoC4/CyBle.c **** 
1094:Generated_Source\PSoC4/CyBle.c ****         if(CyBle_GetState() != CYBLE_STATE_DISCONNECTED)
1095:Generated_Source\PSoC4/CyBle.c ****         {
1096:Generated_Source\PSoC4/CyBle.c ****             apiResult = CYBLE_ERROR_INVALID_STATE;
1097:Generated_Source\PSoC4/CyBle.c ****         }
1098:Generated_Source\PSoC4/CyBle.c ****         else if(address == NULL)
1099:Generated_Source\PSoC4/CyBle.c ****         {
1100:Generated_Source\PSoC4/CyBle.c ****             apiResult = CYBLE_ERROR_INVALID_PARAMETER;
1101:Generated_Source\PSoC4/CyBle.c ****         }
1102:Generated_Source\PSoC4/CyBle.c ****         else
1103:Generated_Source\PSoC4/CyBle.c ****         {
1104:Generated_Source\PSoC4/CyBle.c ****             for(i = 0u; i < CYBLE_GAP_BD_ADDR_SIZE; i++)
1105:Generated_Source\PSoC4/CyBle.c ****             {
1106:Generated_Source\PSoC4/CyBle.c ****                 cyBle_connectionParameters.peerBdAddr[i] = address->bdAddr[i];
1107:Generated_Source\PSoC4/CyBle.c ****             }
1108:Generated_Source\PSoC4/CyBle.c ****             cyBle_connectionParameters.peerAddrType = address -> type;
1109:Generated_Source\PSoC4/CyBle.c ****             apiResult = CyBle_GapcInitConnection(&cyBle_connectionParameters);
1110:Generated_Source\PSoC4/CyBle.c ****             
1111:Generated_Source\PSoC4/CyBle.c ****             if(apiResult == CYBLE_ERROR_OK)
1112:Generated_Source\PSoC4/CyBle.c ****             {
1113:Generated_Source\PSoC4/CyBle.c ****                 CyBle_SetState(CYBLE_STATE_CONNECTING);
1114:Generated_Source\PSoC4/CyBle.c ****                 if(cyBle_connectingTimeout != 0u)
ARM GAS  C:\Users\Tymek\AppData\Local\Temp\ccFLwXgx.s 			page 21


1115:Generated_Source\PSoC4/CyBle.c ****                 {
1116:Generated_Source\PSoC4/CyBle.c ****                     (void)CyBle_StartTimer(cyBle_connectingTimeout);
1117:Generated_Source\PSoC4/CyBle.c ****                 }
1118:Generated_Source\PSoC4/CyBle.c ****             }
1119:Generated_Source\PSoC4/CyBle.c ****         }
1120:Generated_Source\PSoC4/CyBle.c ****         return (apiResult);
1121:Generated_Source\PSoC4/CyBle.c ****     }
1122:Generated_Source\PSoC4/CyBle.c ****     
1123:Generated_Source\PSoC4/CyBle.c **** 
1124:Generated_Source\PSoC4/CyBle.c ****     /******************************************************************************
1125:Generated_Source\PSoC4/CyBle.c ****     * Function Name: CyBle_GapcCancelDeviceConnection
1126:Generated_Source\PSoC4/CyBle.c ****     ***************************************************************************//**
1127:Generated_Source\PSoC4/CyBle.c ****     * 
1128:Generated_Source\PSoC4/CyBle.c ****     *  This function cancels a previously initiated connection with the remote 
1129:Generated_Source\PSoC4/CyBle.c ****     *  device. It is a blocking function. No event is generated on calling this 
1130:Generated_Source\PSoC4/CyBle.c ****     *  function. If the devices are already connected then this function should not
1131:Generated_Source\PSoC4/CyBle.c ****     *  be used. If you intend to disconnect from an existing connection, the function
1132:Generated_Source\PSoC4/CyBle.c ****     *  CyBle_GapDisconnect() should be used.
1133:Generated_Source\PSoC4/CyBle.c ****     * 
1134:Generated_Source\PSoC4/CyBle.c ****     * \return
1135:Generated_Source\PSoC4/CyBle.c ****     *  CYBLE_API_RESULT_T : Return value indicates if the function succeeded or 
1136:Generated_Source\PSoC4/CyBle.c ****     *  failed. Following are the possible error codes.
1137:Generated_Source\PSoC4/CyBle.c ****     *
1138:Generated_Source\PSoC4/CyBle.c ****     *   Errors codes                       | Description
1139:Generated_Source\PSoC4/CyBle.c ****     *   ---------------------------------- | --------------------------------------
1140:Generated_Source\PSoC4/CyBle.c ****     *   CYBLE_ERROR_OK                     | On successful operation.
1141:Generated_Source\PSoC4/CyBle.c ****     *   CYBLE_ERROR_STACK_INTERNAL         | An error occurred in the BLE stack.
1142:Generated_Source\PSoC4/CyBle.c ****     *   CYBLE_ERROR_INVALID_STATE          | On calling this function not in Connecting state.
1143:Generated_Source\PSoC4/CyBle.c ****     *  
1144:Generated_Source\PSoC4/CyBle.c ****     *******************************************************************************/
1145:Generated_Source\PSoC4/CyBle.c ****     CYBLE_API_RESULT_T CyBle_GapcCancelDeviceConnection(void)
1146:Generated_Source\PSoC4/CyBle.c ****     {
1147:Generated_Source\PSoC4/CyBle.c ****         CYBLE_API_RESULT_T apiResult;
1148:Generated_Source\PSoC4/CyBle.c ****         
1149:Generated_Source\PSoC4/CyBle.c ****         if(CyBle_GetState() != CYBLE_STATE_CONNECTING)
1150:Generated_Source\PSoC4/CyBle.c ****         {
1151:Generated_Source\PSoC4/CyBle.c ****             apiResult = CYBLE_ERROR_INVALID_STATE;
1152:Generated_Source\PSoC4/CyBle.c ****         }
1153:Generated_Source\PSoC4/CyBle.c ****         else 
1154:Generated_Source\PSoC4/CyBle.c ****         {
1155:Generated_Source\PSoC4/CyBle.c ****             apiResult = CyBle_GapcCancelConnection();
1156:Generated_Source\PSoC4/CyBle.c ****             
1157:Generated_Source\PSoC4/CyBle.c ****             if(cyBle_connectingTimeout != 0u)
1158:Generated_Source\PSoC4/CyBle.c ****             {
1159:Generated_Source\PSoC4/CyBle.c ****                 (void)CyBle_StopTimer();
1160:Generated_Source\PSoC4/CyBle.c ****             }
1161:Generated_Source\PSoC4/CyBle.c **** 
1162:Generated_Source\PSoC4/CyBle.c ****             if(apiResult == CYBLE_ERROR_OK)
1163:Generated_Source\PSoC4/CyBle.c ****             {
1164:Generated_Source\PSoC4/CyBle.c ****                 CyBle_SetState(CYBLE_STATE_DISCONNECTED);
1165:Generated_Source\PSoC4/CyBle.c ****             }
1166:Generated_Source\PSoC4/CyBle.c ****         }
1167:Generated_Source\PSoC4/CyBle.c ****         return (apiResult);
1168:Generated_Source\PSoC4/CyBle.c ****     }    
1169:Generated_Source\PSoC4/CyBle.c **** 
1170:Generated_Source\PSoC4/CyBle.c ****     
1171:Generated_Source\PSoC4/CyBle.c **** #endif /* CYBLE_GAP_ROLE_CENTRAL */
ARM GAS  C:\Users\Tymek\AppData\Local\Temp\ccFLwXgx.s 			page 22


1172:Generated_Source\PSoC4/CyBle.c **** 
1173:Generated_Source\PSoC4/CyBle.c **** 
1174:Generated_Source\PSoC4/CyBle.c **** #if(CYBLE_GATT_ROLE_SERVER)
1175:Generated_Source\PSoC4/CyBle.c **** 
1176:Generated_Source\PSoC4/CyBle.c **** #if(CYBLE_GAP_ROLE_PERIPHERAL)
1177:Generated_Source\PSoC4/CyBle.c **** 
1178:Generated_Source\PSoC4/CyBle.c ****         /******************************************************************************
1179:Generated_Source\PSoC4/CyBle.c ****         * Function Name: CyBle_ChangeAdLocalName
1180:Generated_Source\PSoC4/CyBle.c ****         ***************************************************************************//**
1181:Generated_Source\PSoC4/CyBle.c ****         *  This function is used to set the local device name in the advertisement or 
1182:Generated_Source\PSoC4/CyBle.c ****         *  scan response data structure.
1183:Generated_Source\PSoC4/CyBle.c ****         * 
1184:Generated_Source\PSoC4/CyBle.c ****         *  \param name: The local device name string to be set in advertisement data 
1185:Generated_Source\PSoC4/CyBle.c ****         *            structure.
1186:Generated_Source\PSoC4/CyBle.c ****         *  \param dest: 0 - advertisement structure, not zero value selects scan response
1187:Generated_Source\PSoC4/CyBle.c ****         *              structure.
1188:Generated_Source\PSoC4/CyBle.c ****         * 
1189:Generated_Source\PSoC4/CyBle.c ****         * \return
1190:Generated_Source\PSoC4/CyBle.c ****         *  None
1191:Generated_Source\PSoC4/CyBle.c ****         *  
1192:Generated_Source\PSoC4/CyBle.c ****         *******************************************************************************/
1193:Generated_Source\PSoC4/CyBle.c ****         static void CyBle_ChangeAdLocalName(const char8 name[], uint8 dest)
1194:Generated_Source\PSoC4/CyBle.c ****         {
  27              		.loc 1 1194 0
  28              		.cfi_startproc
  29              		@ args = 0, pretend = 0, frame = 0
  30              		@ frame_needed = 0, uses_anonymous_args = 0
  31              	.LVL0:
  32 0000 70B5     		push	{r4, r5, r6, lr}
  33              		.cfi_def_cfa_offset 16
  34              		.cfi_offset 4, -16
  35              		.cfi_offset 5, -12
  36              		.cfi_offset 6, -8
  37              		.cfi_offset 14, -4
  38              	.LVL1:
1195:Generated_Source\PSoC4/CyBle.c ****             uint8 i;
1196:Generated_Source\PSoC4/CyBle.c ****             uint8 flag = 0u;
1197:Generated_Source\PSoC4/CyBle.c ****             uint8 adLength = 0u;
1198:Generated_Source\PSoC4/CyBle.c ****             uint8 byteCounter = 0u;
1199:Generated_Source\PSoC4/CyBle.c ****             uint8 *destBuffer;
1200:Generated_Source\PSoC4/CyBle.c ****             uint8 maxLength;
1201:Generated_Source\PSoC4/CyBle.c ****             
1202:Generated_Source\PSoC4/CyBle.c ****             if(dest == 0u)      /* Destination - advertising structure */
  39              		.loc 1 1202 0
  40 0002 0029     		cmp	r1, #0
  41 0004 05D1     		bne	.L2
  42              	.LVL2:
1203:Generated_Source\PSoC4/CyBle.c ****             {
1204:Generated_Source\PSoC4/CyBle.c ****                 destBuffer = cyBle_discoveryData.advData;
1205:Generated_Source\PSoC4/CyBle.c ****                 maxLength = cyBle_discoveryData.advDataLen;
  43              		.loc 1 1205 0
  44 0006 1B49     		ldr	r1, .L14
  45              	.LVL3:
  46 0008 CE7F     		ldrb	r6, [r1, #31]
  47              	.LVL4:
  48              	.L4:
1206:Generated_Source\PSoC4/CyBle.c ****             }
ARM GAS  C:\Users\Tymek\AppData\Local\Temp\ccFLwXgx.s 			page 23


1207:Generated_Source\PSoC4/CyBle.c ****             else                /* Destination - scan response structure */
1208:Generated_Source\PSoC4/CyBle.c ****             {
1209:Generated_Source\PSoC4/CyBle.c ****                 destBuffer = cyBle_scanRspData.scanRspData;
1210:Generated_Source\PSoC4/CyBle.c ****                 maxLength = cyBle_scanRspData.scanRspDataLen;
1211:Generated_Source\PSoC4/CyBle.c ****             }
1212:Generated_Source\PSoC4/CyBle.c ****             
1213:Generated_Source\PSoC4/CyBle.c ****             while((byteCounter < maxLength) && (flag == 0u))
1214:Generated_Source\PSoC4/CyBle.c ****             {
1215:Generated_Source\PSoC4/CyBle.c ****                 adLength = destBuffer[byteCounter];
1216:Generated_Source\PSoC4/CyBle.c ****                 
1217:Generated_Source\PSoC4/CyBle.c ****                 if(0u != adLength)
1218:Generated_Source\PSoC4/CyBle.c ****                 {
1219:Generated_Source\PSoC4/CyBle.c ****                     /* Increment byte counter so it can point to AD type */
1220:Generated_Source\PSoC4/CyBle.c ****                     byteCounter++;
1221:Generated_Source\PSoC4/CyBle.c ****                     
1222:Generated_Source\PSoC4/CyBle.c ****                     if((destBuffer[byteCounter] == CYBLE_SHORT_LOCAL_NAME) || 
1223:Generated_Source\PSoC4/CyBle.c ****                        (destBuffer[byteCounter] == CYBLE_COMPLETE_LOCAL_NAME))
1224:Generated_Source\PSoC4/CyBle.c ****                     {
1225:Generated_Source\PSoC4/CyBle.c ****                         /* Start of the Local Name AD type was fount. Set flag and exit the loop. *
1226:Generated_Source\PSoC4/CyBle.c ****                         flag = 1u;
  49              		.loc 1 1226 0
  50 000a 0023     		movs	r3, #0
  51 000c 0024     		movs	r4, #0
  52 000e 0025     		movs	r5, #0
  53 0010 11E0     		b	.L3
  54              	.LVL5:
  55              	.L2:
1210:Generated_Source\PSoC4/CyBle.c ****             }
  56              		.loc 1 1210 0
  57 0012 1849     		ldr	r1, .L14
  58              	.LVL6:
  59 0014 2031     		adds	r1, r1, #32
  60 0016 CE7F     		ldrb	r6, [r1, #31]
  61              	.LVL7:
  62 0018 F7E7     		b	.L4
  63              	.LVL8:
  64              	.L7:
1215:Generated_Source\PSoC4/CyBle.c ****                 
  65              		.loc 1 1215 0
  66 001a CC5C     		ldrb	r4, [r1, r3]
  67              	.LVL9:
1217:Generated_Source\PSoC4/CyBle.c ****                 {
  68              		.loc 1 1217 0
  69 001c 002C     		cmp	r4, #0
  70 001e 0ED0     		beq	.L5
1220:Generated_Source\PSoC4/CyBle.c ****                     
  71              		.loc 1 1220 0
  72 0020 0133     		adds	r3, r3, #1
  73              	.LVL10:
  74 0022 DBB2     		uxtb	r3, r3
  75              	.LVL11:
1222:Generated_Source\PSoC4/CyBle.c ****                        (destBuffer[byteCounter] == CYBLE_COMPLETE_LOCAL_NAME))
  76              		.loc 1 1222 0
  77 0024 CA5C     		ldrb	r2, [r1, r3]
  78 0026 083A     		subs	r2, r2, #8
  79 0028 D2B2     		uxtb	r2, r2
  80 002a 012A     		cmp	r2, #1
ARM GAS  C:\Users\Tymek\AppData\Local\Temp\ccFLwXgx.s 			page 24


  81 002c 02D9     		bls	.L13
1227:Generated_Source\PSoC4/CyBle.c ****                     }
1228:Generated_Source\PSoC4/CyBle.c ****                     else
1229:Generated_Source\PSoC4/CyBle.c ****                     {
1230:Generated_Source\PSoC4/CyBle.c ****                         byteCounter += adLength;
  82              		.loc 1 1230 0
  83 002e E318     		adds	r3, r4, r3
  84              	.LVL12:
  85 0030 DBB2     		uxtb	r3, r3
  86              	.LVL13:
  87 0032 00E0     		b	.L3
  88              	.L13:
1226:Generated_Source\PSoC4/CyBle.c ****                     }
  89              		.loc 1 1226 0
  90 0034 0125     		movs	r5, #1
  91              	.LVL14:
  92              	.L3:
1213:Generated_Source\PSoC4/CyBle.c ****             {
  93              		.loc 1 1213 0
  94 0036 B342     		cmp	r3, r6
  95 0038 01D2     		bcs	.L5
1213:Generated_Source\PSoC4/CyBle.c ****             {
  96              		.loc 1 1213 0 is_stmt 0 discriminator 1
  97 003a 002D     		cmp	r5, #0
  98 003c EDD0     		beq	.L7
  99              	.L5:
1231:Generated_Source\PSoC4/CyBle.c ****                     }
1232:Generated_Source\PSoC4/CyBle.c ****                 }
1233:Generated_Source\PSoC4/CyBle.c ****                 else
1234:Generated_Source\PSoC4/CyBle.c ****                 {
1235:Generated_Source\PSoC4/CyBle.c ****                     /* The end of advertisement data structure was encountered though exit the loop
1236:Generated_Source\PSoC4/CyBle.c ****                     break;
1237:Generated_Source\PSoC4/CyBle.c ****                 }
1238:Generated_Source\PSoC4/CyBle.c ****             }
1239:Generated_Source\PSoC4/CyBle.c ****             
1240:Generated_Source\PSoC4/CyBle.c ****             if(0u != flag)
 100              		.loc 1 1240 0 is_stmt 1
 101 003e 002D     		cmp	r5, #0
 102 0040 16D0     		beq	.L1
1241:Generated_Source\PSoC4/CyBle.c ****             {
1242:Generated_Source\PSoC4/CyBle.c ****                 /* Reuse "adLength" to hold location of the last character of local name in 
1243:Generated_Source\PSoC4/CyBle.c ****                    AD structure. */
1244:Generated_Source\PSoC4/CyBle.c ****                 adLength += byteCounter;
 103              		.loc 1 1244 0
 104 0042 E418     		adds	r4, r4, r3
 105              	.LVL15:
 106 0044 E4B2     		uxtb	r4, r4
 107              	.LVL16:
1245:Generated_Source\PSoC4/CyBle.c ****                 
1246:Generated_Source\PSoC4/CyBle.c ****                 /* Increment byte counter to point to start of the local Name string */
1247:Generated_Source\PSoC4/CyBle.c ****                 byteCounter++;
 108              		.loc 1 1247 0
 109 0046 0133     		adds	r3, r3, #1
 110              	.LVL17:
 111 0048 DBB2     		uxtb	r3, r3
 112              	.LVL18:
1248:Generated_Source\PSoC4/CyBle.c ****                 
ARM GAS  C:\Users\Tymek\AppData\Local\Temp\ccFLwXgx.s 			page 25


1249:Generated_Source\PSoC4/CyBle.c ****                 for(i = byteCounter; ((i < (adLength)) && (CYBLE_NULL_CHARCTER != name[i - byteCoun
 113              		.loc 1 1249 0
 114 004a 1A00     		movs	r2, r3
 115 004c 02E0     		b	.L9
 116              	.LVL19:
 117              	.L11:
1250:Generated_Source\PSoC4/CyBle.c ****                 {
1251:Generated_Source\PSoC4/CyBle.c ****                     destBuffer[i] = (uint8)name[i - byteCounter];
 118              		.loc 1 1251 0 discriminator 4
 119 004e 8D54     		strb	r5, [r1, r2]
1249:Generated_Source\PSoC4/CyBle.c ****                 {
 120              		.loc 1 1249 0 discriminator 4
 121 0050 0132     		adds	r2, r2, #1
 122              	.LVL20:
 123 0052 D2B2     		uxtb	r2, r2
 124              	.LVL21:
 125              	.L9:
1249:Generated_Source\PSoC4/CyBle.c ****                 {
 126              		.loc 1 1249 0 is_stmt 0 discriminator 1
 127 0054 A242     		cmp	r2, r4
 128 0056 09D2     		bcs	.L10
1249:Generated_Source\PSoC4/CyBle.c ****                 {
 129              		.loc 1 1249 0 discriminator 3
 130 0058 D51A     		subs	r5, r2, r3
 131 005a 455D     		ldrb	r5, [r0, r5]
 132 005c 002D     		cmp	r5, #0
 133 005e F6D1     		bne	.L11
 134 0060 04E0     		b	.L10
 135              	.LVL22:
 136              	.L12:
1252:Generated_Source\PSoC4/CyBle.c ****                 }
1253:Generated_Source\PSoC4/CyBle.c ****                 
1254:Generated_Source\PSoC4/CyBle.c ****                 /* This loop handles the case when new local name is shorted than old one.
1255:Generated_Source\PSoC4/CyBle.c ****                    In this case all remaining characters should be null characters. */
1256:Generated_Source\PSoC4/CyBle.c ****                 while(adLength > i)
1257:Generated_Source\PSoC4/CyBle.c ****                 {
1258:Generated_Source\PSoC4/CyBle.c ****                     /* Terminate string */
1259:Generated_Source\PSoC4/CyBle.c ****                     destBuffer[i] = (uint8)CYBLE_NULL_CHARCTER;
 137              		.loc 1 1259 0 is_stmt 1
 138 0062 8B18     		adds	r3, r1, r2
 139 0064 0020     		movs	r0, #0
 140 0066 1870     		strb	r0, [r3]
1260:Generated_Source\PSoC4/CyBle.c ****                     i++;
 141              		.loc 1 1260 0
 142 0068 0132     		adds	r2, r2, #1
 143              	.LVL23:
 144 006a D2B2     		uxtb	r2, r2
 145              	.LVL24:
 146              	.L10:
1256:Generated_Source\PSoC4/CyBle.c ****                 {
 147              		.loc 1 1256 0
 148 006c A242     		cmp	r2, r4
 149 006e F8D3     		bcc	.L12
 150              	.LVL25:
 151              	.L1:
1261:Generated_Source\PSoC4/CyBle.c ****                 }
1262:Generated_Source\PSoC4/CyBle.c ****             }
ARM GAS  C:\Users\Tymek\AppData\Local\Temp\ccFLwXgx.s 			page 26


1263:Generated_Source\PSoC4/CyBle.c ****         }
 152              		.loc 1 1263 0
 153              		@ sp needed
 154              	.LVL26:
 155              	.LVL27:
 156 0070 70BD     		pop	{r4, r5, r6, pc}
 157              	.L15:
 158 0072 C046     		.align	2
 159              	.L14:
 160 0074 00000000 		.word	.LANCHOR0
 161              		.cfi_endproc
 162              	.LFE9:
 163              		.size	CyBle_ChangeAdLocalName, .-CyBle_ChangeAdLocalName
 164              		.section	.text.CyBle_Init,"ax",%progbits
 165              		.align	2
 166              		.global	CyBle_Init
 167              		.code	16
 168              		.thumb_func
 169              		.type	CyBle_Init, %function
 170              	CyBle_Init:
 171              	.LFB2:
 153:Generated_Source\PSoC4/CyBle.c ****     cyBle_eventHandlerFlag = 0u;
 172              		.loc 1 153 0
 173              		.cfi_startproc
 174              		@ args = 0, pretend = 0, frame = 0
 175              		@ frame_needed = 0, uses_anonymous_args = 0
 176              		@ link register save eliminated.
 154:Generated_Source\PSoC4/CyBle.c ****     cyBle_busyStatus = CYBLE_STACK_STATE_FREE;
 177              		.loc 1 154 0
 178 0000 0023     		movs	r3, #0
 179 0002 034A     		ldr	r2, .L17
 180 0004 1370     		strb	r3, [r2]
 155:Generated_Source\PSoC4/CyBle.c **** 
 181              		.loc 1 155 0
 182 0006 034A     		ldr	r2, .L17+4
 183 0008 1370     		strb	r3, [r2]
 158:Generated_Source\PSoC4/CyBle.c ****     #endif /* (CYBLE_GAP_ROLE_PERIPHERAL || CYBLE_GAP_ROLE_BROADCASTER)  */
 184              		.loc 1 158 0
 185 000a 034A     		ldr	r2, .L17+8
 186 000c 1370     		strb	r3, [r2]
 188:Generated_Source\PSoC4/CyBle.c **** 
 187              		.loc 1 188 0
 188              		@ sp needed
 189 000e 7047     		bx	lr
 190              	.L18:
 191              		.align	2
 192              	.L17:
 193 0010 00000000 		.word	cyBle_eventHandlerFlag
 194 0014 00000000 		.word	cyBle_busyStatus
 195 0018 00000000 		.word	cyBle_advertisingIntervalType
 196              		.cfi_endproc
 197              	.LFE2:
 198              		.size	CyBle_Init, .-CyBle_Init
 199              		.section	.text.CyBle_ServiceInit,"ax",%progbits
 200              		.align	2
 201              		.global	CyBle_ServiceInit
 202              		.code	16
ARM GAS  C:\Users\Tymek\AppData\Local\Temp\ccFLwXgx.s 			page 27


 203              		.thumb_func
 204              		.type	CyBle_ServiceInit, %function
 205              	CyBle_ServiceInit:
 206              	.LFB3:
 202:Generated_Source\PSoC4/CyBle.c ****     #if(CYBLE_GATT_ROLE_CLIENT)
 207              		.loc 1 202 0
 208              		.cfi_startproc
 209              		@ args = 0, pretend = 0, frame = 0
 210              		@ frame_needed = 0, uses_anonymous_args = 0
 211              		@ link register save eliminated.
 346:Generated_Source\PSoC4/CyBle.c **** 
 212              		.loc 1 346 0
 213              		@ sp needed
 214 0000 7047     		bx	lr
 215              		.cfi_endproc
 216              	.LFE3:
 217              		.size	CyBle_ServiceInit, .-CyBle_ServiceInit
 218 0002 C046     		.section	.text.CyBle_Start,"ax",%progbits
 219              		.align	2
 220              		.global	CyBle_Start
 221              		.code	16
 222              		.thumb_func
 223              		.type	CyBle_Start, %function
 224              	CyBle_Start:
 225              	.LFB4:
 408:Generated_Source\PSoC4/CyBle.c ****     CYBLE_API_RESULT_T apiResult = CYBLE_ERROR_OK;
 226              		.loc 1 408 0
 227              		.cfi_startproc
 228              		@ args = 0, pretend = 0, frame = 48
 229              		@ frame_needed = 0, uses_anonymous_args = 0
 230              	.LVL28:
 231 0000 10B5     		push	{r4, lr}
 232              		.cfi_def_cfa_offset 8
 233              		.cfi_offset 4, -8
 234              		.cfi_offset 14, -4
 235 0002 90B0     		sub	sp, sp, #64
 236              		.cfi_def_cfa_offset 72
 237 0004 0400     		movs	r4, r0
 238              	.LVL29:
 413:Generated_Source\PSoC4/CyBle.c ****     {
 239              		.loc 1 413 0
 240 0006 1422     		movs	r2, #20
 241 0008 2849     		ldr	r1, .L28
 242 000a 0BA8     		add	r0, sp, #44
 243              	.LVL30:
 244 000c FFF7FEFF 		bl	memcpy
 245              	.LVL31:
 425:Generated_Source\PSoC4/CyBle.c ****     {
 246              		.loc 1 425 0
 247 0010 274B     		ldr	r3, .L28+4
 248 0012 1B78     		ldrb	r3, [r3]
 249 0014 002B     		cmp	r3, #0
 250 0016 04D1     		bne	.L21
 427:Generated_Source\PSoC4/CyBle.c ****         cyBle_initVar = 1u;
 251              		.loc 1 427 0
 252 0018 FFF7FEFF 		bl	CyBle_Init
 253              	.LVL32:
ARM GAS  C:\Users\Tymek\AppData\Local\Temp\ccFLwXgx.s 			page 28


 428:Generated_Source\PSoC4/CyBle.c ****     }
 254              		.loc 1 428 0
 255 001c 0122     		movs	r2, #1
 256 001e 244B     		ldr	r3, .L28+4
 257 0020 1A70     		strb	r2, [r3]
 258              	.L21:
 431:Generated_Source\PSoC4/CyBle.c ****     {
 259              		.loc 1 431 0
 260 0022 002C     		cmp	r4, #0
 261 0024 3FD0     		beq	.L25
 433:Generated_Source\PSoC4/CyBle.c ****         
 262              		.loc 1 433 0
 263 0026 234B     		ldr	r3, .L28+8
 264 0028 1C60     		str	r4, [r3]
 436:Generated_Source\PSoC4/CyBle.c ****         {
 265              		.loc 1 436 0
 266 002a 214B     		ldr	r3, .L28+4
 267 002c 5B68     		ldr	r3, [r3, #4]
 268 002e 002B     		cmp	r3, #0
 269 0030 08D1     		bne	.L26
 438:Generated_Source\PSoC4/CyBle.c ****             if(cyBle_stackMemoryRam == NULL)
 270              		.loc 1 438 0
 271 0032 2148     		ldr	r0, .L28+12
 272 0034 FFF7FEFF 		bl	malloc
 273              	.LVL33:
 274 0038 1D4B     		ldr	r3, .L28+4
 275 003a 5860     		str	r0, [r3, #4]
 439:Generated_Source\PSoC4/CyBle.c ****             {
 276              		.loc 1 439 0
 277 003c 0028     		cmp	r0, #0
 278 003e 03D0     		beq	.L27
 409:Generated_Source\PSoC4/CyBle.c ****     
 279              		.loc 1 409 0
 280 0040 0020     		movs	r0, #0
 281 0042 02E0     		b	.L23
 282              	.L26:
 283 0044 0020     		movs	r0, #0
 284 0046 00E0     		b	.L23
 285              	.L27:
 441:Generated_Source\PSoC4/CyBle.c ****             }
 286              		.loc 1 441 0
 287 0048 0320     		movs	r0, #3
 288              	.L23:
 289              	.LVL34:
 445:Generated_Source\PSoC4/CyBle.c ****         {
 290              		.loc 1 445 0
 291 004a 0028     		cmp	r0, #0
 292 004c 11D1     		bne	.L24
 293              	.LBB2:
 452:Generated_Source\PSoC4/CyBle.c ****             stackConfig.dleConfig = &dleConfigParams;
 294              		.loc 1 452 0
 295 004e 08A8     		add	r0, sp, #32
 296              	.LVL35:
 297 0050 05AA     		add	r2, sp, #20
 298 0052 4260     		str	r2, [r0, #4]
 453:Generated_Source\PSoC4/CyBle.c ****             
 299              		.loc 1 453 0
ARM GAS  C:\Users\Tymek\AppData\Local\Temp\ccFLwXgx.s 			page 29


 300 0054 06AB     		add	r3, sp, #24
 301 0056 0893     		str	r3, [sp, #32]
 456:Generated_Source\PSoC4/CyBle.c ****                                        CYBLE_SECURE_CONN_FEATURE;
 302              		.loc 1 456 0
 303 0058 0021     		movs	r1, #0
 304 005a 0181     		strh	r1, [r0, #8]
 460:Generated_Source\PSoC4/CyBle.c ****             dleConfigParams.dleMaxRxCapability = CYBLE_LL_MAX_RX_PAYLOAD_SIZE;
 305              		.loc 1 460 0
 306 005c 1B31     		adds	r1, r1, #27
 307 005e 1980     		strh	r1, [r3]
 461:Generated_Source\PSoC4/CyBle.c ****             dleConfigParams.dleNumTxBuffer = CYBLE_LL_DEFAULT_NUM_ACL_TX_PACKETS;
 308              		.loc 1 461 0
 309 0060 5980     		strh	r1, [r3, #2]
 462:Generated_Source\PSoC4/CyBle.c ****         #if(CYBLE_DLE_FEATURE_ENABLED)
 310              		.loc 1 462 0
 311 0062 1739     		subs	r1, r1, #23
 312 0064 1971     		strb	r1, [r3, #4]
 468:Generated_Source\PSoC4/CyBle.c ****         #if(CYBLE_LL_PRIVACY_FEATURE_ENABLED)
 313              		.loc 1 468 0
 314 0066 0023     		movs	r3, #0
 315 0068 1370     		strb	r3, [r2]
 473:Generated_Source\PSoC4/CyBle.c ****             }
 316              		.loc 1 473 0
 317 006a 1231     		adds	r1, r1, #18
 318 006c 6944     		add	r1, r1, sp
 319 006e FFF7FEFF 		bl	CyBle_StackSetFeatureConfig
 320              	.LVL36:
 321              	.L24:
 322              	.LBE2:
 476:Generated_Source\PSoC4/CyBle.c ****         {
 323              		.loc 1 476 0
 324 0072 0028     		cmp	r0, #0
 325 0074 18D1     		bne	.L22
 485:Generated_Source\PSoC4/CyBle.c ****                     CYBLE_STACK_RAM_SIZE - CYBLE_GATT_PREPARE_WRITE_BUFF_LEN, cyBle_stackDataBuff, 
 326              		.loc 1 485 0
 327 0076 0E4B     		ldr	r3, .L28+4
 328 0078 5968     		ldr	r1, [r3, #4]
 329 007a 0023     		movs	r3, #0
 330 007c 0293     		str	r3, [sp, #8]
 331 007e 0193     		str	r3, [sp, #4]
 332 0080 0533     		adds	r3, r3, #5
 333 0082 0093     		str	r3, [sp]
 334 0084 0BAB     		add	r3, sp, #44
 335 0086 0D4A     		ldr	r2, .L28+16
 336 0088 0D48     		ldr	r0, .L28+20
 337              	.LVL37:
 338 008a FFF7FEFF 		bl	CyBle_StackInit
 339              	.LVL38:
 505:Generated_Source\PSoC4/CyBle.c ****             {
 340              		.loc 1 505 0
 341 008e 0028     		cmp	r0, #0
 342 0090 0AD1     		bne	.L22
 507:Generated_Source\PSoC4/CyBle.c ****                 
 343              		.loc 1 507 0
 344 0092 0122     		movs	r2, #1
 345 0094 0B4B     		ldr	r3, .L28+24
 346 0096 1A70     		strb	r2, [r3]
ARM GAS  C:\Users\Tymek\AppData\Local\Temp\ccFLwXgx.s 			page 30


 514:Generated_Source\PSoC4/CyBle.c ****             #endif /* CYBLE_GATT_ROLE_SERVER */
 347              		.loc 1 514 0
 348 0098 1032     		adds	r2, r2, #16
 349 009a FF32     		adds	r2, r2, #255
 350 009c 0F21     		movs	r1, #15
 351 009e 0A48     		ldr	r0, .L28+28
 352              	.LVL39:
 353 00a0 FFF7FEFF 		bl	CyBle_GattsDbRegister
 354              	.LVL40:
 355 00a4 00E0     		b	.L22
 356              	.LVL41:
 357              	.L25:
 521:Generated_Source\PSoC4/CyBle.c ****     }
 358              		.loc 1 521 0
 359 00a6 0120     		movs	r0, #1
 360              	.LVL42:
 361              	.L22:
 525:Generated_Source\PSoC4/CyBle.c **** 
 362              		.loc 1 525 0
 363 00a8 10B0     		add	sp, sp, #64
 364              		@ sp needed
 365              	.LVL43:
 366 00aa 10BD     		pop	{r4, pc}
 367              	.L29:
 368              		.align	2
 369              	.L28:
 370 00ac 00000000 		.word	.LANCHOR1
 371 00b0 00000000 		.word	.LANCHOR2
 372 00b4 00000000 		.word	CyBle_ApplCallback
 373 00b8 54120000 		.word	4692
 374 00bc 44100000 		.word	4164
 375 00c0 00000000 		.word	CyBle_EventHandler
 376 00c4 00000000 		.word	cyBle_state
 377 00c8 00000000 		.word	cyBle_gattDB
 378              		.cfi_endproc
 379              	.LFE4:
 380              		.size	CyBle_Start, .-CyBle_Start
 381              		.section	.text.CyBle_Stop,"ax",%progbits
 382              		.align	2
 383              		.global	CyBle_Stop
 384              		.code	16
 385              		.thumb_func
 386              		.type	CyBle_Stop, %function
 387              	CyBle_Stop:
 388              	.LFB5:
 541:Generated_Source\PSoC4/CyBle.c ****     CyBle_Shutdown();                         /* Stop all ongoing activities */
 389              		.loc 1 541 0
 390              		.cfi_startproc
 391              		@ args = 0, pretend = 0, frame = 0
 392              		@ frame_needed = 0, uses_anonymous_args = 0
 393 0000 10B5     		push	{r4, lr}
 394              		.cfi_def_cfa_offset 8
 395              		.cfi_offset 4, -8
 396              		.cfi_offset 14, -4
 542:Generated_Source\PSoC4/CyBle.c ****     CyBle_SetState(CYBLE_STATE_STOPPED);
 397              		.loc 1 542 0
 398 0002 FFF7FEFF 		bl	CyBle_Shutdown
ARM GAS  C:\Users\Tymek\AppData\Local\Temp\ccFLwXgx.s 			page 31


 399              	.LVL44:
 543:Generated_Source\PSoC4/CyBle.c ****     #if(CYBLE_SHARING_MODE_EXPORT)
 400              		.loc 1 543 0
 401 0006 0022     		movs	r2, #0
 402 0008 044B     		ldr	r3, .L32
 403 000a 1A70     		strb	r2, [r3]
 545:Generated_Source\PSoC4/CyBle.c ****         {
 404              		.loc 1 545 0
 405 000c 044B     		ldr	r3, .L32+4
 406 000e 5868     		ldr	r0, [r3, #4]
 407 0010 0028     		cmp	r0, #0
 408 0012 01D0     		beq	.L30
 547:Generated_Source\PSoC4/CyBle.c ****         }
 409              		.loc 1 547 0
 410 0014 FFF7FEFF 		bl	free
 411              	.LVL45:
 412              	.L30:
 550:Generated_Source\PSoC4/CyBle.c **** 
 413              		.loc 1 550 0
 414              		@ sp needed
 415 0018 10BD     		pop	{r4, pc}
 416              	.L33:
 417 001a C046     		.align	2
 418              	.L32:
 419 001c 00000000 		.word	cyBle_state
 420 0020 00000000 		.word	.LANCHOR2
 421              		.cfi_endproc
 422              	.LFE5:
 423              		.size	CyBle_Stop, .-CyBle_Stop
 424              		.section	.text.CyBle_GappStartAdvertisement,"ax",%progbits
 425              		.align	2
 426              		.global	CyBle_GappStartAdvertisement
 427              		.code	16
 428              		.thumb_func
 429              		.type	CyBle_GappStartAdvertisement, %function
 430              	CyBle_GappStartAdvertisement:
 431              	.LFB6:
 792:Generated_Source\PSoC4/CyBle.c ****         CYBLE_API_RESULT_T apiResult;
 432              		.loc 1 792 0
 433              		.cfi_startproc
 434              		@ args = 0, pretend = 0, frame = 0
 435              		@ frame_needed = 0, uses_anonymous_args = 0
 436              	.LVL46:
 437 0000 10B5     		push	{r4, lr}
 438              		.cfi_def_cfa_offset 8
 439              		.cfi_offset 4, -8
 440              		.cfi_offset 14, -4
 795:Generated_Source\PSoC4/CyBle.c ****         {
 441              		.loc 1 795 0
 442 0002 0228     		cmp	r0, #2
 443 0004 35D8     		bhi	.L38
 799:Generated_Source\PSoC4/CyBle.c ****         {   
 444              		.loc 1 799 0
 445 0006 1F4B     		ldr	r3, .L41
 446 0008 1B78     		ldrb	r3, [r3]
 447 000a 042B     		cmp	r3, #4
 448 000c 33D1     		bne	.L39
ARM GAS  C:\Users\Tymek\AppData\Local\Temp\ccFLwXgx.s 			page 32


 799:Generated_Source\PSoC4/CyBle.c ****         {   
 449              		.loc 1 799 0 is_stmt 0 discriminator 1
 450 000e 1E4B     		ldr	r3, .L41+4
 451 0010 1B78     		ldrb	r3, [r3]
 452 0012 5B07     		lsls	r3, r3, #29
 453 0014 32D4     		bmi	.L40
 801:Generated_Source\PSoC4/CyBle.c ****             {
 454              		.loc 1 801 0 is_stmt 1
 455 0016 0028     		cmp	r0, #0
 456 0018 0CD1     		bne	.L36
 803:Generated_Source\PSoC4/CyBle.c ****                 cyBle_discoveryModeInfo.advParam->advIntvMin = CYBLE_FAST_ADV_INT_MIN;
 457              		.loc 1 803 0
 458 001a 1C4B     		ldr	r3, .L41+8
 459 001c 1A00     		movs	r2, r3
 460 001e 4032     		adds	r2, r2, #64
 461 0020 C821     		movs	r1, #200
 462 0022 4900     		lsls	r1, r1, #1
 463 0024 1182     		strh	r1, [r2, #16]
 804:Generated_Source\PSoC4/CyBle.c ****                 cyBle_discoveryModeInfo.advParam->advIntvMax = CYBLE_FAST_ADV_INT_MAX;
 464              		.loc 1 804 0
 465 0026 A022     		movs	r2, #160
 466 0028 596C     		ldr	r1, [r3, #68]
 467 002a 0A80     		strh	r2, [r1]
 805:Generated_Source\PSoC4/CyBle.c ****             }
 468              		.loc 1 805 0
 469 002c 5B6C     		ldr	r3, [r3, #68]
 470 002e A032     		adds	r2, r2, #160
 471 0030 5A80     		strh	r2, [r3, #2]
 472 0032 0FE0     		b	.L37
 473              	.L36:
 807:Generated_Source\PSoC4/CyBle.c ****             {
 474              		.loc 1 807 0
 475 0034 0128     		cmp	r0, #1
 476 0036 0DD1     		bne	.L37
 809:Generated_Source\PSoC4/CyBle.c ****                 cyBle_discoveryModeInfo.advParam->advIntvMin = CYBLE_SLOW_ADV_INT_MIN;
 477              		.loc 1 809 0
 478 0038 144B     		ldr	r3, .L41+8
 479 003a 1A00     		movs	r2, r3
 480 003c 4032     		adds	r2, r2, #64
 481 003e C821     		movs	r1, #200
 482 0040 4900     		lsls	r1, r1, #1
 483 0042 1182     		strh	r1, [r2, #16]
 810:Generated_Source\PSoC4/CyBle.c ****                 cyBle_discoveryModeInfo.advParam->advIntvMax = CYBLE_SLOW_ADV_INT_MAX;
 484              		.loc 1 810 0
 485 0044 C822     		movs	r2, #200
 486 0046 D200     		lsls	r2, r2, #3
 487 0048 596C     		ldr	r1, [r3, #68]
 488 004a 0A80     		strh	r2, [r1]
 811:Generated_Source\PSoC4/CyBle.c ****             }       
 489              		.loc 1 811 0
 490 004c 5B6C     		ldr	r3, [r3, #68]
 491 004e FA22     		movs	r2, #250
 492 0050 1201     		lsls	r2, r2, #4
 493 0052 5A80     		strh	r2, [r3, #2]
 494              	.L37:
 816:Generated_Source\PSoC4/CyBle.c ****             apiResult = CyBle_GappEnterDiscoveryMode(&cyBle_discoveryModeInfo);
 495              		.loc 1 816 0
ARM GAS  C:\Users\Tymek\AppData\Local\Temp\ccFLwXgx.s 			page 33


 496 0054 0E4B     		ldr	r3, .L41+12
 497 0056 1870     		strb	r0, [r3]
 817:Generated_Source\PSoC4/CyBle.c ****         
 498              		.loc 1 817 0
 499 0058 0C48     		ldr	r0, .L41+8
 500              	.LVL47:
 501 005a 4030     		adds	r0, r0, #64
 502 005c FFF7FEFF 		bl	CyBle_GappEnterDiscoveryMode
 503              	.LVL48:
 819:Generated_Source\PSoC4/CyBle.c ****             {
 504              		.loc 1 819 0
 505 0060 0028     		cmp	r0, #0
 506 0062 0DD1     		bne	.L35
 821:Generated_Source\PSoC4/CyBle.c ****             }
 507              		.loc 1 821 0
 508 0064 084A     		ldr	r2, .L41+4
 509 0066 1178     		ldrb	r1, [r2]
 510 0068 0423     		movs	r3, #4
 511 006a 0B43     		orrs	r3, r1
 512 006c DBB2     		uxtb	r3, r3
 513 006e 1370     		strb	r3, [r2]
 514 0070 06E0     		b	.L35
 515              	.LVL49:
 516              	.L38:
 797:Generated_Source\PSoC4/CyBle.c ****         }
 517              		.loc 1 797 0
 518 0072 0120     		movs	r0, #1
 519              	.LVL50:
 520 0074 04E0     		b	.L35
 521              	.LVL51:
 522              	.L39:
 826:Generated_Source\PSoC4/CyBle.c ****         }
 523              		.loc 1 826 0
 524 0076 0420     		movs	r0, #4
 525              	.LVL52:
 526 0078 FF30     		adds	r0, r0, #255
 527 007a 01E0     		b	.L35
 528              	.LVL53:
 529              	.L40:
 530 007c 0420     		movs	r0, #4
 531              	.LVL54:
 532 007e FF30     		adds	r0, r0, #255
 533              	.L35:
 534              	.LVL55:
 830:Generated_Source\PSoC4/CyBle.c **** 
 535              		.loc 1 830 0
 536              		@ sp needed
 537 0080 10BD     		pop	{r4, pc}
 538              	.L42:
 539 0082 C046     		.align	2
 540              	.L41:
 541 0084 00000000 		.word	cyBle_state
 542 0088 00000000 		.word	cyBle_eventHandlerFlag
 543 008c 00000000 		.word	.LANCHOR0
 544 0090 00000000 		.word	cyBle_advertisingIntervalType
 545              		.cfi_endproc
 546              	.LFE6:
ARM GAS  C:\Users\Tymek\AppData\Local\Temp\ccFLwXgx.s 			page 34


 547              		.size	CyBle_GappStartAdvertisement, .-CyBle_GappStartAdvertisement
 548              		.section	.text.CyBle_GappStopAdvertisement,"ax",%progbits
 549              		.align	2
 550              		.global	CyBle_GappStopAdvertisement
 551              		.code	16
 552              		.thumb_func
 553              		.type	CyBle_GappStopAdvertisement, %function
 554              	CyBle_GappStopAdvertisement:
 555              	.LFB7:
 853:Generated_Source\PSoC4/CyBle.c ****         CyBle_GappExitDiscoveryMode();
 556              		.loc 1 853 0
 557              		.cfi_startproc
 558              		@ args = 0, pretend = 0, frame = 0
 559              		@ frame_needed = 0, uses_anonymous_args = 0
 560 0000 10B5     		push	{r4, lr}
 561              		.cfi_def_cfa_offset 8
 562              		.cfi_offset 4, -8
 563              		.cfi_offset 14, -4
 854:Generated_Source\PSoC4/CyBle.c ****         cyBle_eventHandlerFlag |= CYBLE_STOP_FLAG;
 564              		.loc 1 854 0
 565 0002 FFF7FEFF 		bl	CyBle_GappExitDiscoveryMode
 566              	.LVL56:
 855:Generated_Source\PSoC4/CyBle.c ****     }
 567              		.loc 1 855 0
 568 0006 034A     		ldr	r2, .L44
 569 0008 1178     		ldrb	r1, [r2]
 570 000a 0823     		movs	r3, #8
 571 000c 0B43     		orrs	r3, r1
 572 000e DBB2     		uxtb	r3, r3
 573 0010 1370     		strb	r3, [r2]
 856:Generated_Source\PSoC4/CyBle.c ****     
 574              		.loc 1 856 0
 575              		@ sp needed
 576 0012 10BD     		pop	{r4, pc}
 577              	.L45:
 578              		.align	2
 579              	.L44:
 580 0014 00000000 		.word	cyBle_eventHandlerFlag
 581              		.cfi_endproc
 582              	.LFE7:
 583              		.size	CyBle_GappStopAdvertisement, .-CyBle_GappStopAdvertisement
 584              		.section	.text.CyBle_ChangeAdDeviceAddress,"ax",%progbits
 585              		.align	2
 586              		.global	CyBle_ChangeAdDeviceAddress
 587              		.code	16
 588              		.thumb_func
 589              		.type	CyBle_ChangeAdDeviceAddress, %function
 590              	CyBle_ChangeAdDeviceAddress:
 591              	.LFB8:
 875:Generated_Source\PSoC4/CyBle.c ****         uint8 i;
 592              		.loc 1 875 0
 593              		.cfi_startproc
 594              		@ args = 0, pretend = 0, frame = 0
 595              		@ frame_needed = 0, uses_anonymous_args = 0
 596              		@ link register save eliminated.
 597              	.LVL57:
 902:Generated_Source\PSoC4/CyBle.c ****   
ARM GAS  C:\Users\Tymek\AppData\Local\Temp\ccFLwXgx.s 			page 35


 598              		.loc 1 902 0
 599              		@ sp needed
 600 0000 7047     		bx	lr
 601              		.cfi_endproc
 602              	.LFE8:
 603              		.size	CyBle_ChangeAdDeviceAddress, .-CyBle_ChangeAdDeviceAddress
 604 0002 C046     		.section	.text.CyBle_GapSetLocalName,"ax",%progbits
 605              		.align	2
 606              		.global	CyBle_GapSetLocalName
 607              		.code	16
 608              		.thumb_func
 609              		.type	CyBle_GapSetLocalName, %function
 610              	CyBle_GapSetLocalName:
 611              	.LFB10:
1264:Generated_Source\PSoC4/CyBle.c ****         
1265:Generated_Source\PSoC4/CyBle.c **** #endif /* (CYBLE_GAP_ROLE_PERIPHERAL) */  
1266:Generated_Source\PSoC4/CyBle.c ****     
1267:Generated_Source\PSoC4/CyBle.c ****     
1268:Generated_Source\PSoC4/CyBle.c ****     /******************************************************************************
1269:Generated_Source\PSoC4/CyBle.c ****     * Function Name: CyBle_GapSetLocalName
1270:Generated_Source\PSoC4/CyBle.c ****     ***************************************************************************//**
1271:Generated_Source\PSoC4/CyBle.c ****     *  This function is used to set the local device name - a Characteristic of the 
1272:Generated_Source\PSoC4/CyBle.c ****     *  GAP Service. If the characteristic length entered in the component customizer
1273:Generated_Source\PSoC4/CyBle.c ****     *  is shorter than the string specified by the "name" parameter, the local device
1274:Generated_Source\PSoC4/CyBle.c ****     *  name will be cut to the length specified in the customizer.
1275:Generated_Source\PSoC4/CyBle.c ****     * 
1276:Generated_Source\PSoC4/CyBle.c ****     *  \param name: The local device name string. The name string to be written as
1277:Generated_Source\PSoC4/CyBle.c ****     *              the local device name. It represents a UTF-8 encoded User
1278:Generated_Source\PSoC4/CyBle.c ****     *              Friendly Descriptive Name for the device. The length of the local
1279:Generated_Source\PSoC4/CyBle.c ****     *              device string is entered into the component customizer and it can
1280:Generated_Source\PSoC4/CyBle.c ****     *              be set to a value from 0 to 248 bytes. If the name contained in
1281:Generated_Source\PSoC4/CyBle.c ****     *              the parameter is shorter than the length from the customizer, the
1282:Generated_Source\PSoC4/CyBle.c ****     *              end of the name is indicated by a NULL octet (0x00).
1283:Generated_Source\PSoC4/CyBle.c ****     * 
1284:Generated_Source\PSoC4/CyBle.c ****     * \return
1285:Generated_Source\PSoC4/CyBle.c ****     *  CYBLE_API_RESULT_T : Return value indicates if the function succeeded or 
1286:Generated_Source\PSoC4/CyBle.c ****     *  failed. Following are the possible error codes.
1287:Generated_Source\PSoC4/CyBle.c ****     *
1288:Generated_Source\PSoC4/CyBle.c ****     *   Errors codes                       | Description
1289:Generated_Source\PSoC4/CyBle.c ****     *   ------------                       | -----------
1290:Generated_Source\PSoC4/CyBle.c ****     *   CYBLE_ERROR_OK                     | Function completed successfully.
1291:Generated_Source\PSoC4/CyBle.c ****     *   CYBLE_ERROR_INVALID_PARAMETER      | On specifying NULL as input parameter
1292:Generated_Source\PSoC4/CyBle.c ****     *  
1293:Generated_Source\PSoC4/CyBle.c ****     *******************************************************************************/
1294:Generated_Source\PSoC4/CyBle.c ****     CYBLE_API_RESULT_T CyBle_GapSetLocalName(const char8 name[])
1295:Generated_Source\PSoC4/CyBle.c ****     {
 612              		.loc 1 1295 0
 613              		.cfi_startproc
 614              		@ args = 0, pretend = 0, frame = 0
 615              		@ frame_needed = 0, uses_anonymous_args = 0
 616              	.LVL58:
 617 0000 70B5     		push	{r4, r5, r6, lr}
 618              		.cfi_def_cfa_offset 16
 619              		.cfi_offset 4, -16
 620              		.cfi_offset 5, -12
 621              		.cfi_offset 6, -8
 622              		.cfi_offset 14, -4
ARM GAS  C:\Users\Tymek\AppData\Local\Temp\ccFLwXgx.s 			page 36


 623 0002 041E     		subs	r4, r0, #0
 624              	.LVL59:
1296:Generated_Source\PSoC4/CyBle.c ****         CYBLE_API_RESULT_T apiResult = CYBLE_ERROR_OK;
1297:Generated_Source\PSoC4/CyBle.c ****         uint8 i;
1298:Generated_Source\PSoC4/CyBle.c ****         char8 *ptr;
1299:Generated_Source\PSoC4/CyBle.c ****         uint8 charLen;
1300:Generated_Source\PSoC4/CyBle.c **** 
1301:Generated_Source\PSoC4/CyBle.c ****         if(NULL != name)
 625              		.loc 1 1301 0
 626 0004 26D0     		beq	.L53
1302:Generated_Source\PSoC4/CyBle.c ****         {
1303:Generated_Source\PSoC4/CyBle.c ****             /* Get the pointer to the Device Name characteristic  */
1304:Generated_Source\PSoC4/CyBle.c ****             ptr = (char8 *) CYBLE_GATT_DB_ATTR_GET_ATTR_GEN_PTR(cyBle_gaps.deviceNameCharHandle);
 627              		.loc 1 1304 0
 628 0006 144B     		ldr	r3, .L54
 629 0008 5B88     		ldrh	r3, [r3, #2]
 630 000a 013B     		subs	r3, r3, #1
 631 000c 134D     		ldr	r5, .L54+4
 632 000e 9A00     		lsls	r2, r3, #2
 633 0010 D018     		adds	r0, r2, r3
 634              	.LVL60:
 635 0012 8100     		lsls	r1, r0, #2
 636 0014 6918     		adds	r1, r5, r1
 637 0016 0969     		ldr	r1, [r1, #16]
 638 0018 4868     		ldr	r0, [r1, #4]
 639              	.LVL61:
1305:Generated_Source\PSoC4/CyBle.c **** 
1306:Generated_Source\PSoC4/CyBle.c ****             /* First need to get the maximum length of the characteristic data in the GATT
1307:Generated_Source\PSoC4/CyBle.c ****                 database to make sure there is enough place for the data. The length
1308:Generated_Source\PSoC4/CyBle.c ****                 can't be longer than 248, so only the LSB of 16 bit of length is to
1309:Generated_Source\PSoC4/CyBle.c ****                 be used. */
1310:Generated_Source\PSoC4/CyBle.c ****             charLen = (uint8)CYBLE_GATT_DB_ATTR_GET_ATTR_GEN_MAX_LEN(cyBle_gaps.deviceNameCharHandl
 640              		.loc 1 1310 0
 641 001a D318     		adds	r3, r2, r3
 642 001c 9A00     		lsls	r2, r3, #2
 643 001e AA18     		adds	r2, r5, r2
 644 0020 117B     		ldrb	r1, [r2, #12]
 645              	.LVL62:
1311:Generated_Source\PSoC4/CyBle.c **** 
1312:Generated_Source\PSoC4/CyBle.c ****             /* Copy name into characteristic */
1313:Generated_Source\PSoC4/CyBle.c ****             for(i = 0u; ((i < charLen) && (CYBLE_NULL_CHARCTER != name[i])); i++)
 646              		.loc 1 1313 0
 647 0022 0023     		movs	r3, #0
 648 0024 02E0     		b	.L49
 649              	.LVL63:
 650              	.L51:
1314:Generated_Source\PSoC4/CyBle.c ****             {
1315:Generated_Source\PSoC4/CyBle.c ****                 ptr[i] = name[i];
 651              		.loc 1 1315 0 discriminator 4
 652 0026 C254     		strb	r2, [r0, r3]
1313:Generated_Source\PSoC4/CyBle.c ****             {
 653              		.loc 1 1313 0 discriminator 4
 654 0028 0133     		adds	r3, r3, #1
 655              	.LVL64:
 656 002a DBB2     		uxtb	r3, r3
 657              	.LVL65:
 658              	.L49:
ARM GAS  C:\Users\Tymek\AppData\Local\Temp\ccFLwXgx.s 			page 37


1313:Generated_Source\PSoC4/CyBle.c ****             {
 659              		.loc 1 1313 0 is_stmt 0 discriminator 1
 660 002c 8B42     		cmp	r3, r1
 661 002e 02D2     		bcs	.L50
1313:Generated_Source\PSoC4/CyBle.c ****             {
 662              		.loc 1 1313 0 discriminator 3
 663 0030 E25C     		ldrb	r2, [r4, r3]
 664 0032 002A     		cmp	r2, #0
 665 0034 F7D1     		bne	.L51
 666              	.L50:
1316:Generated_Source\PSoC4/CyBle.c ****             }
1317:Generated_Source\PSoC4/CyBle.c **** 
1318:Generated_Source\PSoC4/CyBle.c ****             if(i < charLen)
 667              		.loc 1 1318 0 is_stmt 1
 668 0036 8B42     		cmp	r3, r1
 669 0038 02D2     		bcs	.L52
1319:Generated_Source\PSoC4/CyBle.c ****             {
1320:Generated_Source\PSoC4/CyBle.c ****                 /* Terminate string */
1321:Generated_Source\PSoC4/CyBle.c ****                 ptr[i] = CYBLE_NULL_CHARCTER;
 670              		.loc 1 1321 0
 671 003a C318     		adds	r3, r0, r3
 672              	.LVL66:
 673 003c 0022     		movs	r2, #0
 674 003e 1A70     		strb	r2, [r3]
 675              	.L52:
1322:Generated_Source\PSoC4/CyBle.c ****             }
1323:Generated_Source\PSoC4/CyBle.c ****             
1324:Generated_Source\PSoC4/CyBle.c ****             /* Set new actual length */
1325:Generated_Source\PSoC4/CyBle.c ****             
1326:Generated_Source\PSoC4/CyBle.c ****             /* Update device name in advertising and scan response structure */
1327:Generated_Source\PSoC4/CyBle.c ****             #if(CYBLE_GAP_ROLE_PERIPHERAL)
1328:Generated_Source\PSoC4/CyBle.c ****                 CyBle_ChangeAdLocalName(name, 0u);
 676              		.loc 1 1328 0
 677 0040 0021     		movs	r1, #0
 678              	.LVL67:
 679 0042 2000     		movs	r0, r4
 680              	.LVL68:
 681 0044 FFF7FEFF 		bl	CyBle_ChangeAdLocalName
 682              	.LVL69:
1329:Generated_Source\PSoC4/CyBle.c ****                 CyBle_ChangeAdLocalName(name, 1u);
 683              		.loc 1 1329 0
 684 0048 0121     		movs	r1, #1
 685 004a 2000     		movs	r0, r4
 686 004c FFF7FEFF 		bl	CyBle_ChangeAdLocalName
 687              	.LVL70:
1296:Generated_Source\PSoC4/CyBle.c ****         uint8 i;
 688              		.loc 1 1296 0
 689 0050 0020     		movs	r0, #0
 690 0052 00E0     		b	.L48
 691              	.LVL71:
 692              	.L53:
1330:Generated_Source\PSoC4/CyBle.c ****             #endif /* (CYBLE_GAP_ROLE_PERIPHERAL) */
1331:Generated_Source\PSoC4/CyBle.c ****         }
1332:Generated_Source\PSoC4/CyBle.c ****         else
1333:Generated_Source\PSoC4/CyBle.c ****         {
1334:Generated_Source\PSoC4/CyBle.c ****             apiResult = CYBLE_ERROR_INVALID_PARAMETER;
 693              		.loc 1 1334 0
ARM GAS  C:\Users\Tymek\AppData\Local\Temp\ccFLwXgx.s 			page 38


 694 0054 0120     		movs	r0, #1
 695              	.LVL72:
 696              	.L48:
1335:Generated_Source\PSoC4/CyBle.c ****         }
1336:Generated_Source\PSoC4/CyBle.c ****         
1337:Generated_Source\PSoC4/CyBle.c ****         return(apiResult);
1338:Generated_Source\PSoC4/CyBle.c ****     }
 697              		.loc 1 1338 0
 698              		@ sp needed
 699              	.LVL73:
 700 0056 70BD     		pop	{r4, r5, r6, pc}
 701              	.L55:
 702              		.align	2
 703              	.L54:
 704 0058 00000000 		.word	cyBle_gaps
 705 005c 00000000 		.word	cyBle_gattDB
 706              		.cfi_endproc
 707              	.LFE10:
 708              		.size	CyBle_GapSetLocalName, .-CyBle_GapSetLocalName
 709              		.section	.text.CyBle_GapGetLocalName,"ax",%progbits
 710              		.align	2
 711              		.global	CyBle_GapGetLocalName
 712              		.code	16
 713              		.thumb_func
 714              		.type	CyBle_GapGetLocalName, %function
 715              	CyBle_GapGetLocalName:
 716              	.LFB11:
1339:Generated_Source\PSoC4/CyBle.c **** 
1340:Generated_Source\PSoC4/CyBle.c **** 
1341:Generated_Source\PSoC4/CyBle.c ****     /******************************************************************************
1342:Generated_Source\PSoC4/CyBle.c ****     * Function Name: CyBle_GapGetLocalName
1343:Generated_Source\PSoC4/CyBle.c ****     ***************************************************************************//**
1344:Generated_Source\PSoC4/CyBle.c ****     *  
1345:Generated_Source\PSoC4/CyBle.c ****     *  This function is used to read the local device name - a Characteristic of the 
1346:Generated_Source\PSoC4/CyBle.c ****     *  GAP Service.
1347:Generated_Source\PSoC4/CyBle.c ****     * 
1348:Generated_Source\PSoC4/CyBle.c ****     * \param name: The local device name string. Used to read the local name to the
1349:Generated_Source\PSoC4/CyBle.c ****     *             given string array. It represents a UTF-8 encoded User Friendly 
1350:Generated_Source\PSoC4/CyBle.c ****     *             Descriptive Name for the device. The length of the local device
1351:Generated_Source\PSoC4/CyBle.c ****     *             string is entered into the component customizer and it can be set
1352:Generated_Source\PSoC4/CyBle.c ****     *             to a value from 0 to 248 bytes. If the name contained in the
1353:Generated_Source\PSoC4/CyBle.c ****     *             parameter is shorter than the length from the customizer, the end
1354:Generated_Source\PSoC4/CyBle.c ****     *             of the name is indicated by a NULL octet (0x00).
1355:Generated_Source\PSoC4/CyBle.c ****     * 
1356:Generated_Source\PSoC4/CyBle.c ****     * \return
1357:Generated_Source\PSoC4/CyBle.c ****     *  CYBLE_API_RESULT_T : Return value indicates if the function succeeded or 
1358:Generated_Source\PSoC4/CyBle.c ****     *  failed. Following are the possible error codes.
1359:Generated_Source\PSoC4/CyBle.c ****     *
1360:Generated_Source\PSoC4/CyBle.c ****     *   Errors codes                       | Description
1361:Generated_Source\PSoC4/CyBle.c ****     *   ------------                       | -----------
1362:Generated_Source\PSoC4/CyBle.c ****     *   CYBLE_ERROR_OK                     | Function completed successfully.
1363:Generated_Source\PSoC4/CyBle.c ****     *   CYBLE_ERROR_INVALID_PARAMETER      | On specifying NULL as input parameter
1364:Generated_Source\PSoC4/CyBle.c ****     *
1365:Generated_Source\PSoC4/CyBle.c ****     *******************************************************************************/
1366:Generated_Source\PSoC4/CyBle.c ****     CYBLE_API_RESULT_T CyBle_GapGetLocalName(char8 name[])
1367:Generated_Source\PSoC4/CyBle.c ****     {
 717              		.loc 1 1367 0
ARM GAS  C:\Users\Tymek\AppData\Local\Temp\ccFLwXgx.s 			page 39


 718              		.cfi_startproc
 719              		@ args = 0, pretend = 0, frame = 0
 720              		@ frame_needed = 0, uses_anonymous_args = 0
 721              	.LVL74:
 722 0000 10B5     		push	{r4, lr}
 723              		.cfi_def_cfa_offset 8
 724              		.cfi_offset 4, -8
 725              		.cfi_offset 14, -4
 726              	.LVL75:
1368:Generated_Source\PSoC4/CyBle.c ****         CYBLE_API_RESULT_T apiResult = CYBLE_ERROR_OK;
1369:Generated_Source\PSoC4/CyBle.c ****         uint8 charLen;
1370:Generated_Source\PSoC4/CyBle.c ****         uint8 i;
1371:Generated_Source\PSoC4/CyBle.c ****         char8 *ptr;
1372:Generated_Source\PSoC4/CyBle.c **** 
1373:Generated_Source\PSoC4/CyBle.c ****         if(NULL != name)
 727              		.loc 1 1373 0
 728 0002 0028     		cmp	r0, #0
 729 0004 19D0     		beq	.L61
1374:Generated_Source\PSoC4/CyBle.c ****         {
1375:Generated_Source\PSoC4/CyBle.c ****             /* Get the pointer to the Device Name characteristic  */
1376:Generated_Source\PSoC4/CyBle.c ****             ptr = (char8 *) CYBLE_GATT_DB_ATTR_GET_ATTR_GEN_PTR(cyBle_gaps.deviceNameCharHandle);
 730              		.loc 1 1376 0
 731 0006 0E4B     		ldr	r3, .L62
 732 0008 5B88     		ldrh	r3, [r3, #2]
 733 000a 013B     		subs	r3, r3, #1
 734 000c 9A00     		lsls	r2, r3, #2
 735 000e D318     		adds	r3, r2, r3
 736 0010 9A00     		lsls	r2, r3, #2
 737 0012 0C4B     		ldr	r3, .L62+4
 738 0014 9A18     		adds	r2, r3, r2
 739 0016 1369     		ldr	r3, [r2, #16]
 740 0018 5C68     		ldr	r4, [r3, #4]
 741              	.LVL76:
1377:Generated_Source\PSoC4/CyBle.c **** 
1378:Generated_Source\PSoC4/CyBle.c ****             /* First need to get the length of the characteristic data in the GATT
1379:Generated_Source\PSoC4/CyBle.c ****                 database to make sure there is enough place for the data. The length
1380:Generated_Source\PSoC4/CyBle.c ****                 can't be longer than 248, so only the LSB of 16 bit of length is to
1381:Generated_Source\PSoC4/CyBle.c ****                 be used. */
1382:Generated_Source\PSoC4/CyBle.c ****             charLen = (uint8)CYBLE_GATT_DB_ATTR_GET_ATTR_GEN_LEN(cyBle_gaps.deviceNameCharHandle);
 742              		.loc 1 1382 0
 743 001a 1978     		ldrb	r1, [r3]
 744              	.LVL77:
1383:Generated_Source\PSoC4/CyBle.c **** 
1384:Generated_Source\PSoC4/CyBle.c ****             /* Copy name from characteristic */
1385:Generated_Source\PSoC4/CyBle.c ****             for(i = 0u; ((i < charLen) && (CYBLE_NULL_CHARCTER != ptr[i])); i++)
 745              		.loc 1 1385 0
 746 001c 0023     		movs	r3, #0
 747 001e 02E0     		b	.L58
 748              	.LVL78:
 749              	.L60:
1386:Generated_Source\PSoC4/CyBle.c ****             {
1387:Generated_Source\PSoC4/CyBle.c ****                 name[i] = ptr[i];
 750              		.loc 1 1387 0 discriminator 4
 751 0020 C254     		strb	r2, [r0, r3]
1385:Generated_Source\PSoC4/CyBle.c ****             {
 752              		.loc 1 1385 0 discriminator 4
 753 0022 0133     		adds	r3, r3, #1
ARM GAS  C:\Users\Tymek\AppData\Local\Temp\ccFLwXgx.s 			page 40


 754              	.LVL79:
 755 0024 DBB2     		uxtb	r3, r3
 756              	.LVL80:
 757              	.L58:
1385:Generated_Source\PSoC4/CyBle.c ****             {
 758              		.loc 1 1385 0 is_stmt 0 discriminator 1
 759 0026 8B42     		cmp	r3, r1
 760 0028 02D2     		bcs	.L59
1385:Generated_Source\PSoC4/CyBle.c ****             {
 761              		.loc 1 1385 0 discriminator 3
 762 002a E25C     		ldrb	r2, [r4, r3]
 763 002c 002A     		cmp	r2, #0
 764 002e F7D1     		bne	.L60
 765              	.L59:
1388:Generated_Source\PSoC4/CyBle.c ****             }
1389:Generated_Source\PSoC4/CyBle.c **** 
1390:Generated_Source\PSoC4/CyBle.c ****             /* Terminate string */
1391:Generated_Source\PSoC4/CyBle.c ****             name[i] = CYBLE_NULL_CHARCTER;
 766              		.loc 1 1391 0 is_stmt 1
 767 0030 C318     		adds	r3, r0, r3
 768              	.LVL81:
 769 0032 0022     		movs	r2, #0
 770 0034 1A70     		strb	r2, [r3]
1368:Generated_Source\PSoC4/CyBle.c ****         uint8 charLen;
 771              		.loc 1 1368 0
 772 0036 0020     		movs	r0, #0
 773              	.LVL82:
 774 0038 00E0     		b	.L57
 775              	.LVL83:
 776              	.L61:
1392:Generated_Source\PSoC4/CyBle.c ****         }
1393:Generated_Source\PSoC4/CyBle.c ****         else
1394:Generated_Source\PSoC4/CyBle.c ****         {
1395:Generated_Source\PSoC4/CyBle.c ****             apiResult = CYBLE_ERROR_INVALID_PARAMETER;
 777              		.loc 1 1395 0
 778 003a 0120     		movs	r0, #1
 779              	.LVL84:
 780              	.L57:
1396:Generated_Source\PSoC4/CyBle.c ****         }
1397:Generated_Source\PSoC4/CyBle.c ****         
1398:Generated_Source\PSoC4/CyBle.c ****         return(apiResult);
1399:Generated_Source\PSoC4/CyBle.c ****     }
 781              		.loc 1 1399 0
 782              		@ sp needed
 783 003c 10BD     		pop	{r4, pc}
 784              	.L63:
 785 003e C046     		.align	2
 786              	.L62:
 787 0040 00000000 		.word	cyBle_gaps
 788 0044 00000000 		.word	cyBle_gattDB
 789              		.cfi_endproc
 790              	.LFE11:
 791              		.size	CyBle_GapGetLocalName, .-CyBle_GapGetLocalName
 792              		.section	.text.CyBle_Get16ByPtr,"ax",%progbits
 793              		.align	2
 794              		.global	CyBle_Get16ByPtr
 795              		.code	16
ARM GAS  C:\Users\Tymek\AppData\Local\Temp\ccFLwXgx.s 			page 41


 796              		.thumb_func
 797              		.type	CyBle_Get16ByPtr, %function
 798              	CyBle_Get16ByPtr:
 799              	.LFB12:
1400:Generated_Source\PSoC4/CyBle.c **** 
1401:Generated_Source\PSoC4/CyBle.c **** #endif /* (CYBLE_GATT_ROLE_SERVER) */
1402:Generated_Source\PSoC4/CyBle.c **** 
1403:Generated_Source\PSoC4/CyBle.c **** 
1404:Generated_Source\PSoC4/CyBle.c **** /******************************************************************************
1405:Generated_Source\PSoC4/CyBle.c **** * Function Name: CyBle_Get16ByPtr
1406:Generated_Source\PSoC4/CyBle.c **** ***************************************************************************//**
1407:Generated_Source\PSoC4/CyBle.c **** * 
1408:Generated_Source\PSoC4/CyBle.c **** *  Returns the two-bytes value by using a pointer to the LSB.
1409:Generated_Source\PSoC4/CyBle.c **** * 
1410:Generated_Source\PSoC4/CyBle.c **** *  \param ptr: Pointer to the LSB of two-bytes data (little endian).
1411:Generated_Source\PSoC4/CyBle.c **** * 
1412:Generated_Source\PSoC4/CyBle.c **** *  \return
1413:Generated_Source\PSoC4/CyBle.c **** *  uint16: Two-bytes data.
1414:Generated_Source\PSoC4/CyBle.c **** * 
1415:Generated_Source\PSoC4/CyBle.c **** ******************************************************************************/
1416:Generated_Source\PSoC4/CyBle.c **** uint16 CyBle_Get16ByPtr(const uint8 ptr[])
1417:Generated_Source\PSoC4/CyBle.c **** {
 800              		.loc 1 1417 0
 801              		.cfi_startproc
 802              		@ args = 0, pretend = 0, frame = 0
 803              		@ frame_needed = 0, uses_anonymous_args = 0
 804              		@ link register save eliminated.
 805              	.LVL85:
1418:Generated_Source\PSoC4/CyBle.c ****     return ((uint16) ptr[0u] | ((uint16) (((uint16) ptr[1u]) << 8u)));
 806              		.loc 1 1418 0
 807 0000 0378     		ldrb	r3, [r0]
 808 0002 4078     		ldrb	r0, [r0, #1]
 809              	.LVL86:
 810 0004 0002     		lsls	r0, r0, #8
 811 0006 1843     		orrs	r0, r3
1419:Generated_Source\PSoC4/CyBle.c **** }
 812              		.loc 1 1419 0
 813              		@ sp needed
 814 0008 7047     		bx	lr
 815              		.cfi_endproc
 816              	.LFE12:
 817              		.size	CyBle_Get16ByPtr, .-CyBle_Get16ByPtr
 818 000a C046     		.section	.text.CyBle_Set16ByPtr,"ax",%progbits
 819              		.align	2
 820              		.global	CyBle_Set16ByPtr
 821              		.code	16
 822              		.thumb_func
 823              		.type	CyBle_Set16ByPtr, %function
 824              	CyBle_Set16ByPtr:
 825              	.LFB13:
1420:Generated_Source\PSoC4/CyBle.c **** 
1421:Generated_Source\PSoC4/CyBle.c **** 
1422:Generated_Source\PSoC4/CyBle.c **** /******************************************************************************
1423:Generated_Source\PSoC4/CyBle.c **** * Function Name: CyBle_Set16ByPtr
1424:Generated_Source\PSoC4/CyBle.c **** ***************************************************************************//**
1425:Generated_Source\PSoC4/CyBle.c **** * 
1426:Generated_Source\PSoC4/CyBle.c **** *  Sets the two-bytes value by using a pointer to the LSB.
ARM GAS  C:\Users\Tymek\AppData\Local\Temp\ccFLwXgx.s 			page 42


1427:Generated_Source\PSoC4/CyBle.c **** * 
1428:Generated_Source\PSoC4/CyBle.c **** *  \param ptr:    Pointer to the LSB of two-bytes data (little endian).
1429:Generated_Source\PSoC4/CyBle.c **** *  \param value:  Two-bytes data to be written.
1430:Generated_Source\PSoC4/CyBle.c **** * 
1431:Generated_Source\PSoC4/CyBle.c **** *  \return
1432:Generated_Source\PSoC4/CyBle.c **** *  None
1433:Generated_Source\PSoC4/CyBle.c **** * 
1434:Generated_Source\PSoC4/CyBle.c **** ******************************************************************************/
1435:Generated_Source\PSoC4/CyBle.c **** void CyBle_Set16ByPtr(uint8 ptr[], uint16 value)
1436:Generated_Source\PSoC4/CyBle.c **** {
 826              		.loc 1 1436 0
 827              		.cfi_startproc
 828              		@ args = 0, pretend = 0, frame = 0
 829              		@ frame_needed = 0, uses_anonymous_args = 0
 830              		@ link register save eliminated.
 831              	.LVL87:
1437:Generated_Source\PSoC4/CyBle.c ****     ptr[0u] = (uint8) value;
 832              		.loc 1 1437 0
 833 0000 0170     		strb	r1, [r0]
1438:Generated_Source\PSoC4/CyBle.c ****     ptr[1u] = (uint8) (value >> 8u);
 834              		.loc 1 1438 0
 835 0002 090A     		lsrs	r1, r1, #8
 836              	.LVL88:
 837 0004 4170     		strb	r1, [r0, #1]
1439:Generated_Source\PSoC4/CyBle.c **** }
 838              		.loc 1 1439 0
 839              		@ sp needed
 840 0006 7047     		bx	lr
 841              		.cfi_endproc
 842              	.LFE13:
 843              		.size	CyBle_Set16ByPtr, .-CyBle_Set16ByPtr
 844              		.global	cyBle_sflashDeviceAddress
 845              		.global	cyBle_deviceAddress
 846              		.comm	CyBle_ApplCallback,4,4
 847              		.global	cyBle_discoveryModeInfo
 848              		.global	cyBle_scanRspData
 849              		.global	cyBle_discoveryData
 850              		.global	cyBle_discoveryParam
 851              		.global	cyBle_stackMemoryRam
 852              		.global	cyBle_initVar
 853              		.section	.rodata
 854              		.align	2
 855              		.set	.LANCHOR1,. + 0
 856              	.LC0:
 857 0000 3801     		.short	312
 858 0002 03       		.byte	3
 859 0003 00       		.space	1
 860 0004 3000     		.short	48
 861 0006 01       		.byte	1
 862 0007 00       		.space	1
 863 0008 2800     		.short	40
 864 000a 02       		.byte	2
 865 000b 00       		.space	1
 866 000c 3801     		.short	312
 867 000e 01       		.byte	1
 868 000f 00       		.space	1
 869 0010 3801     		.short	312
ARM GAS  C:\Users\Tymek\AppData\Local\Temp\ccFLwXgx.s 			page 43


 870 0012 01       		.byte	1
 871 0013 00       		.space	1
 872              		.data
 873              		.align	2
 874              		.set	.LANCHOR0,. + 0
 875              		.type	cyBle_discoveryData, %object
 876              		.size	cyBle_discoveryData, 32
 877              	cyBle_discoveryData:
 878 0000 02       		.byte	2
 879 0001 01       		.byte	1
 880 0002 06       		.byte	6
 881 0003 0F       		.byte	15
 882 0004 09       		.byte	9
 883 0005 4F       		.byte	79
 884 0006 54       		.byte	84
 885 0007 41       		.byte	65
 886 0008 20       		.byte	32
 887 0009 42       		.byte	66
 888 000a 6F       		.byte	111
 889 000b 6F       		.byte	111
 890 000c 74       		.byte	116
 891 000d 6C       		.byte	108
 892 000e 6F       		.byte	111
 893 000f 61       		.byte	97
 894 0010 64       		.byte	100
 895 0011 65       		.byte	101
 896 0012 72       		.byte	114
 897 0013 00       		.byte	0
 898 0014 00       		.byte	0
 899 0015 00       		.byte	0
 900 0016 00       		.byte	0
 901 0017 00       		.byte	0
 902 0018 00       		.byte	0
 903 0019 00       		.byte	0
 904 001a 00       		.byte	0
 905 001b 00       		.byte	0
 906 001c 00       		.byte	0
 907 001d 00       		.byte	0
 908 001e 00       		.byte	0
 909 001f 13       		.byte	19
 910              		.type	cyBle_scanRspData, %object
 911              		.size	cyBle_scanRspData, 32
 912              	cyBle_scanRspData:
 913 0020 0F       		.byte	15
 914 0021 09       		.byte	9
 915 0022 4F       		.byte	79
 916 0023 54       		.byte	84
 917 0024 41       		.byte	65
 918 0025 20       		.byte	32
 919 0026 42       		.byte	66
 920 0027 6F       		.byte	111
 921 0028 6F       		.byte	111
 922 0029 74       		.byte	116
 923 002a 6C       		.byte	108
 924 002b 6F       		.byte	111
 925 002c 61       		.byte	97
 926 002d 64       		.byte	100
ARM GAS  C:\Users\Tymek\AppData\Local\Temp\ccFLwXgx.s 			page 44


 927 002e 65       		.byte	101
 928 002f 72       		.byte	114
 929 0030 00       		.byte	0
 930 0031 00       		.byte	0
 931 0032 00       		.byte	0
 932 0033 00       		.byte	0
 933 0034 00       		.byte	0
 934 0035 00       		.byte	0
 935 0036 00       		.byte	0
 936 0037 00       		.byte	0
 937 0038 00       		.byte	0
 938 0039 00       		.byte	0
 939 003a 00       		.byte	0
 940 003b 00       		.byte	0
 941 003c 00       		.byte	0
 942 003d 00       		.byte	0
 943 003e 00       		.byte	0
 944 003f 10       		.byte	16
 945              		.type	cyBle_discoveryModeInfo, %object
 946              		.size	cyBle_discoveryModeInfo, 20
 947              	cyBle_discoveryModeInfo:
 948 0040 02       		.byte	2
 949 0041 000000   		.space	3
 950 0044 00000000 		.word	cyBle_discoveryParam
 951 0048 00000000 		.word	cyBle_discoveryData
 952 004c 00000000 		.word	cyBle_scanRspData
 953 0050 9001     		.short	400
 954 0052 0000     		.space	2
 955              		.type	cyBle_sflashDeviceAddress, %object
 956              		.size	cyBle_sflashDeviceAddress, 4
 957              	cyBle_sflashDeviceAddress:
 958 0054 00F4FF0F 		.word	268432384
 959              		.type	cyBle_deviceAddress, %object
 960              		.size	cyBle_deviceAddress, 7
 961              	cyBle_deviceAddress:
 962 0058 14       		.byte	20
 963 0059 06       		.byte	6
 964 005a 00       		.byte	0
 965 005b 50       		.byte	80
 966 005c A0       		.byte	-96
 967 005d 00       		.byte	0
 968 005e 00       		.byte	0
 969 005f 00       		.space	1
 970              		.type	cyBle_discoveryParam, %object
 971              		.size	cyBle_discoveryParam, 16
 972              	cyBle_discoveryParam:
 973 0060 A000     		.short	160
 974 0062 4001     		.short	320
 975 0064 00       		.byte	0
 976 0065 00       		.byte	0
 977 0066 00       		.byte	0
 978 0067 14       		.byte	20
 979 0068 06       		.byte	6
 980 0069 00       		.byte	0
 981 006a 50       		.byte	80
 982 006b A0       		.byte	-96
 983 006c 00       		.byte	0
ARM GAS  C:\Users\Tymek\AppData\Local\Temp\ccFLwXgx.s 			page 45


 984 006d 07       		.byte	7
 985 006e 00       		.byte	0
 986 006f 00       		.space	1
 987              		.bss
 988              		.align	2
 989              		.set	.LANCHOR2,. + 0
 990              		.type	cyBle_initVar, %object
 991              		.size	cyBle_initVar, 1
 992              	cyBle_initVar:
 993 0000 00       		.space	1
 994 0001 000000   		.space	3
 995              		.type	cyBle_stackMemoryRam, %object
 996              		.size	cyBle_stackMemoryRam, 4
 997              	cyBle_stackMemoryRam:
 998 0004 00000000 		.space	4
 999              		.text
 1000              	.Letext0:
 1001              		.file 2 "Generated_Source\\PSoC4\\cytypes.h"
 1002              		.file 3 "Generated_Source\\PSoC4\\CyBle_Stack.h"
 1003              		.file 4 "Generated_Source\\PSoC4\\CyBle_StackGap.h"
 1004              		.file 5 "Generated_Source\\PSoC4\\CyBle_StackGatt.h"
 1005              		.file 6 "Generated_Source\\PSoC4\\CyBle_StackGattDb.h"
 1006              		.file 7 "Generated_Source\\PSoC4\\CyBle.h"
 1007              		.file 8 "Generated_Source\\PSoC4\\CyBle_eventHandler.h"
 1008              		.file 9 "Generated_Source\\PSoC4\\CyBle_gatt.h"
 1009              		.file 10 "d:\\apps\\cypress psoc creator\\psoc creator\\4.1\\psoc creator\\import\\gnu\\arm\\5.4.1