ARM GAS  C:\Users\Tymek\AppData\Local\Temp\ccpPNbJV.s 			page 1


   1              		.syntax unified
   2              		.cpu cortex-m0
   3              		.fpu softvfp
   4              		.eabi_attribute 20, 1
   5              		.eabi_attribute 21, 1
   6              		.eabi_attribute 23, 3
   7              		.eabi_attribute 24, 1
   8              		.eabi_attribute 25, 1
   9              		.eabi_attribute 26, 1
  10              		.eabi_attribute 30, 1
  11              		.eabi_attribute 34, 0
  12              		.eabi_attribute 18, 4
  13              		.thumb
  14              		.syntax unified
  15              		.file	"CyBle_gatt.c"
  16              		.text
  17              	.Ltext0:
  18              		.cfi_sections	.debug_frame
  19              		.section	.text.CyBle_GattsReInitGattDb,"ax",%progbits
  20              		.align	2
  21              		.global	CyBle_GattsReInitGattDb
  22              		.code	16
  23              		.thumb_func
  24              		.type	CyBle_GattsReInitGattDb, %function
  25              	CyBle_GattsReInitGattDb:
  26              	.LFB2:
  27              		.file 1 "Generated_Source\\PSoC4\\CyBle_gatt.c"
   1:Generated_Source\PSoC4/CyBle_gatt.c **** /***************************************************************************//**
   2:Generated_Source\PSoC4/CyBle_gatt.c **** * \file CYBLE_gatt.c
   3:Generated_Source\PSoC4/CyBle_gatt.c **** * \version 3.40
   4:Generated_Source\PSoC4/CyBle_gatt.c **** * 
   5:Generated_Source\PSoC4/CyBle_gatt.c **** * \brief
   6:Generated_Source\PSoC4/CyBle_gatt.c **** *  This file contains the source code for the GATT API of the BLE Component.
   7:Generated_Source\PSoC4/CyBle_gatt.c **** * 
   8:Generated_Source\PSoC4/CyBle_gatt.c **** ********************************************************************************
   9:Generated_Source\PSoC4/CyBle_gatt.c **** * \copyright
  10:Generated_Source\PSoC4/CyBle_gatt.c **** * Copyright 2014-2016, Cypress Semiconductor Corporation.  All rights reserved.
  11:Generated_Source\PSoC4/CyBle_gatt.c **** * You may use this file only in accordance with the license, terms, conditions,
  12:Generated_Source\PSoC4/CyBle_gatt.c **** * disclaimers, and limitations in the end user license agreement accompanying
  13:Generated_Source\PSoC4/CyBle_gatt.c **** * the software package with which this file was provided.
  14:Generated_Source\PSoC4/CyBle_gatt.c **** *******************************************************************************/
  15:Generated_Source\PSoC4/CyBle_gatt.c **** 
  16:Generated_Source\PSoC4/CyBle_gatt.c **** 
  17:Generated_Source\PSoC4/CyBle_gatt.c **** #include "CyBle_eventHandler.h"
  18:Generated_Source\PSoC4/CyBle_gatt.c **** 
  19:Generated_Source\PSoC4/CyBle_gatt.c **** 
  20:Generated_Source\PSoC4/CyBle_gatt.c **** /***************************************
  21:Generated_Source\PSoC4/CyBle_gatt.c **** * Global variables
  22:Generated_Source\PSoC4/CyBle_gatt.c **** ***************************************/
  23:Generated_Source\PSoC4/CyBle_gatt.c **** 
  24:Generated_Source\PSoC4/CyBle_gatt.c **** CYBLE_STATE_T cyBle_state;
  25:Generated_Source\PSoC4/CyBle_gatt.c **** 
  26:Generated_Source\PSoC4/CyBle_gatt.c **** #if ((CYBLE_MODE_PROFILE) && (CYBLE_BONDING_REQUIREMENT == CYBLE_BONDING_YES))
  27:Generated_Source\PSoC4/CyBle_gatt.c ****     
  28:Generated_Source\PSoC4/CyBle_gatt.c **** #if(CYBLE_MODE_PROFILE)
  29:Generated_Source\PSoC4/CyBle_gatt.c ****     #if defined(__ARMCC_VERSION)
  30:Generated_Source\PSoC4/CyBle_gatt.c ****         CY_ALIGN(CYDEV_FLS_ROW_SIZE) const CY_BLE_FLASH_STORAGE cyBle_flashStorage CY_SECTION(".cy_
ARM GAS  C:\Users\Tymek\AppData\Local\Temp\ccpPNbJV.s 			page 2


  31:Generated_Source\PSoC4/CyBle_gatt.c ****     #elif defined (__GNUC__)
  32:Generated_Source\PSoC4/CyBle_gatt.c ****         const CY_BLE_FLASH_STORAGE cyBle_flashStorage CY_SECTION(".cy_checksum_exclude")
  33:Generated_Source\PSoC4/CyBle_gatt.c ****             CY_ALIGN(CYDEV_FLS_ROW_SIZE) =
  34:Generated_Source\PSoC4/CyBle_gatt.c ****     #elif defined (__ICCARM__)
  35:Generated_Source\PSoC4/CyBle_gatt.c ****         #pragma data_alignment=CY_FLASH_SIZEOF_ROW
  36:Generated_Source\PSoC4/CyBle_gatt.c ****         #pragma location=".cy_checksum_exclude"
  37:Generated_Source\PSoC4/CyBle_gatt.c ****         const CY_BLE_FLASH_STORAGE cyBle_flashStorage =
  38:Generated_Source\PSoC4/CyBle_gatt.c ****     #endif  /* (__ARMCC_VERSION) */
  39:Generated_Source\PSoC4/CyBle_gatt.c ****     {
  40:Generated_Source\PSoC4/CyBle_gatt.c ****         { 0x00u, 0x00u, 0x00u, 0x00u, 0x00u, 0x00u, 0x00u, 0x00u, 0x00u, 0x00u, 0x00u, 0x00u, 0x00u
  41:Generated_Source\PSoC4/CyBle_gatt.c ****         0x00u, 0x00u, 0x00u, 0x00u, 0x00u, 0x00u, 0x00u, 0x00u, 0x00u, 0x00u, 0x00u, 0x00u, 0x00u, 
  42:Generated_Source\PSoC4/CyBle_gatt.c ****         0x00u, 0x00u, 0x00u, 0x00u, 0x00u, 0x00u, 0x00u, 0x00u, 0x00u, 0x00u, 0x00u, 0x00u, 0x00u, 
  43:Generated_Source\PSoC4/CyBle_gatt.c ****         0x00u, 0x00u, 0x00u, 0x00u, 0x00u, 0x00u, 0x00u, 0x00u, 0x00u, 0x00u, 0x00u, 0x00u, 0x00u, 
  44:Generated_Source\PSoC4/CyBle_gatt.c ****         0x00u, 0x00u, 0x00u, 0x00u, 0x00u, 0x00u, 0x00u, 0x00u, 0x00u, 0x00u, 0x00u, 0x00u, 0x00u, 
  45:Generated_Source\PSoC4/CyBle_gatt.c ****         0x00u, 0x00u, 0x00u, 0x00u, 0x00u, 0x00u, 0x00u, 0x00u, 0x00u, 0x00u, 0x00u, 0x00u, 0x00u, 
  46:Generated_Source\PSoC4/CyBle_gatt.c ****         0x00u, 0x00u, 0x00u, 0x00u, 0x00u, 0x00u, 0x00u, 0x00u, 0x00u, 0x00u, 0x00u, 0x00u, 0x00u, 
  47:Generated_Source\PSoC4/CyBle_gatt.c ****         0x00u, 0x00u, 0x00u, 0x00u, 0x00u, 0x00u, 0x00u, 0x00u, 0x00u, 0x00u, 0x00u, 0x00u, 0x00u, 
  48:Generated_Source\PSoC4/CyBle_gatt.c ****         0x00u, 0x00u, 0x00u, 0x00u, 0x00u, 0x00u, 0x00u, 0x00u, 0x00u, 0x00u, 0x00u, 0x00u, 0x00u, 
  49:Generated_Source\PSoC4/CyBle_gatt.c ****         0x00u, 0x00u, 0x00u, 0x00u, 0x00u, 0x00u, 0x00u, 0x00u, 0x00u, 0x00u, 0x00u, 0x00u, 0x00u, 
  50:Generated_Source\PSoC4/CyBle_gatt.c ****         0x00u, 0x00u, 0x00u, 0x00u, 0x00u, 0x00u, 0x00u, 0x00u, 0x00u, 0x00u, 0x00u, 0x00u, 0x00u, 
  51:Generated_Source\PSoC4/CyBle_gatt.c ****         0x00u, 0x00u, 0x00u, 0x00u, 0x00u, 0x00u, 0x00u, 0x00u, 0x00u, 0x00u, 0x00u, 0x00u, 0x00u, 
  52:Generated_Source\PSoC4/CyBle_gatt.c ****         0x00u, 0x00u, 0x00u, 0x00u, 0x00u, 0x00u, 0x00u, 0x00u, 0x00u, 0x00u, 0x00u, 0x00u, 0x00u, 
  53:Generated_Source\PSoC4/CyBle_gatt.c ****         0x00u, 0x00u, 0x00u, 0x00u, 0x00u, 0x00u, 0x00u, 0x00u, 0x00u, 0x00u, 0x00u, 0x00u, 0x00u, 
  54:Generated_Source\PSoC4/CyBle_gatt.c ****         0x00u, 0x00u, 0x00u, 0x00u, 0x00u, 0x00u, 0x00u, 0x00u, 0x00u, 0x00u, 0x00u, 0x00u, 0x00u, 
  55:Generated_Source\PSoC4/CyBle_gatt.c ****         0x00u, 0x00u, 0x00u, 0x00u, 0x00u, 0x00u, 0x00u, 0x00u, 0x00u, 0x00u, 0x00u, 0x00u, 0x00u, 
  56:Generated_Source\PSoC4/CyBle_gatt.c ****         0x00u, 0x00u, 0x00u, 0x00u, 0x00u, 0x00u, 0x00u, 0x00u, 0x00u, 0x00u, 0x00u, 0x00u, 0x00u, 
  57:Generated_Source\PSoC4/CyBle_gatt.c ****         0x00u, 0x00u, 0x00u, 0x00u, 0x00u, 0x00u, 0x00u, 0x00u, 0x00u, 0x00u, 0x00u, 0x00u, 0x00u, 
  58:Generated_Source\PSoC4/CyBle_gatt.c ****         0x00u, 0x00u, 0x00u, 0x00u, 0x00u, 0x00u, 0x00u, 0x00u, 0x00u, 0x00u, 0x00u, 0x00u, 0x00u, 
  59:Generated_Source\PSoC4/CyBle_gatt.c ****         0x00u, 0x00u, 0x00u, 0x00u, 0x00u, 0x00u, 0x00u, 0x00u, 0x00u, 0x00u, 0x00u, 0x00u, 0x00u, 
  60:Generated_Source\PSoC4/CyBle_gatt.c ****         0x00u, 0x00u, 0x00u, 0x00u, 0x00u, 0x00u, 0x00u, 0x00u, 0x00u, 0x00u, 0x00u, 0x00u, 0x00u, 
  61:Generated_Source\PSoC4/CyBle_gatt.c ****         0x00u, 0x00u, 0x00u, 0x00u, 0x00u, 0x00u, 0x00u, 0x00u, 0x00u, 0x00u, 0x00u, 0x00u, 0x00u, 
  62:Generated_Source\PSoC4/CyBle_gatt.c ****         0x00u, 0x00u, 0x00u, 0x00u, 0x00u, 0x00u, 0x00u, 0x00u, 0x00u, 0x00u, 0x00u, 0x00u, 0x00u, 
  63:Generated_Source\PSoC4/CyBle_gatt.c ****         0x00u, 0x00u, 0x00u, 0x00u, 0x00u, 0x00u, 0x00u, 0x00u, 0x00u, 0x00u, 0x00u, 0x00u, 0x00u, 
  64:Generated_Source\PSoC4/CyBle_gatt.c ****         0x00u, 0x00u, 0x00u, 0x00u, 0x00u, 0x00u, 0x00u, 0x00u, 0x00u, 0x00u, 0x00u, 0x00u, 0x00u, 
  65:Generated_Source\PSoC4/CyBle_gatt.c ****         0x00u, 0x00u, 0x00u, 0x00u, 0x00u, 0x00u, 0x00u, 0x00u, 0x00u, 0x00u, 0x00u, 0x00u, 0x00u, 
  66:Generated_Source\PSoC4/CyBle_gatt.c ****         0x00u, 0x00u, 0x00u, 0x00u, 0x00u, 0x00u, 0x00u, 0x00u, 0x00u, 0x00u, 0x00u, 0x00u, 0x00u, 
  67:Generated_Source\PSoC4/CyBle_gatt.c ****         0x00u, 0x00u, 0x00u, 0x00u, 0x00u, 0x00u, 0x00u, 0x00u, 0x00u, 0x00u, 0x00u, 0x00u, 0x00u, 
  68:Generated_Source\PSoC4/CyBle_gatt.c ****         0x00u, 0x00u, 0x00u, 0x00u, 0x00u, 0x00u, 0x00u, 0x00u, 0x00u, 0x00u, 0x00u, 0x00u, 0x00u, 
  69:Generated_Source\PSoC4/CyBle_gatt.c ****         0x00u, 0x00u, 0x00u, 0x00u, 0x00u, 0x00u, 0x00u, 0x00u, 0x00u, 0x00u, 0x00u, 0x00u, 0x00u, 
  70:Generated_Source\PSoC4/CyBle_gatt.c ****         0x00u, 0x00u, 0x00u, 0x00u, 0x00u, 0x00u, 0x00u, 0x00u, 0x00u, 0x00u, 0x00u, 0x00u, 0x00u, 
  71:Generated_Source\PSoC4/CyBle_gatt.c ****         0x00u, 0x00u, 0x00u, 0x00u, 0x00u, 0x00u, 0x00u, 0x00u, 0x00u, 0x00u, 0x00u, 0x00u, 0x00u, 
  72:Generated_Source\PSoC4/CyBle_gatt.c ****         0x00u, 0x00u, 0x00u, 0x00u, 0x00u, 0x00u, 0x00u, 0x00u, 0x00u, 0x00u, 0x00u, 0x00u, 0x00u, 
  73:Generated_Source\PSoC4/CyBle_gatt.c ****         0x00u, 0x00u, 0x00u, 0x00u, 0x00u, 0x00u, 0x00u, 0x00u, 0x00u, 0x00u, 0x00u, 0x00u, 0x00u, 
  74:Generated_Source\PSoC4/CyBle_gatt.c ****         0x00u, 0x00u, 0x00u, 0x00u, 0x00u, 0x00u, 0x00u, 0x00u, 0x00u, 0x00u, 0x00u, 0x00u, 0x00u, 
  75:Generated_Source\PSoC4/CyBle_gatt.c ****         0x00u, 0x00u, 0x00u, 0x00u, 0x00u, 0x00u, 0x00u, 0x00u, 0x00u, 0x00u, 0x00u, 0x00u, 0x00u, 
  76:Generated_Source\PSoC4/CyBle_gatt.c ****         0x00u, 0x00u, 0x00u, 0x00u, 0x00u, 0x00u, 0x00u, 0x00u, 0x00u, 0x00u, 0x00u, 0x00u, 0x00u, 
  77:Generated_Source\PSoC4/CyBle_gatt.c ****         0x00u, 0x00u, 0x00u, 0x00u, 0x00u, 0x00u, 0x00u, 0x00u, 0x00u, 0x00u, 0x00u, 0x00u, 0x00u, 
  78:Generated_Source\PSoC4/CyBle_gatt.c ****         0x00u, 0x00u, 0x00u, 0x00u, 0x00u, 0x00u, 0x00u, 0x00u, 0x00u, 0x00u, 0x00u, 0x00u, 0x00u, 
  79:Generated_Source\PSoC4/CyBle_gatt.c ****         0x00u, 0x00u, 0x00u, 0x00u, 0x00u, 0x00u, 0x00u, 0x00u, 0x00u, 0x00u }, 
  80:Generated_Source\PSoC4/CyBle_gatt.c ****         {{
  81:Generated_Source\PSoC4/CyBle_gatt.c ****             0x00u, 0x00u,
  82:Generated_Source\PSoC4/CyBle_gatt.c ****             0x00u, 0x00u,
  83:Generated_Source\PSoC4/CyBle_gatt.c ****         },
  84:Generated_Source\PSoC4/CyBle_gatt.c ****         {
  85:Generated_Source\PSoC4/CyBle_gatt.c ****             0x00u, 0x00u,
  86:Generated_Source\PSoC4/CyBle_gatt.c ****             0x00u, 0x00u,
  87:Generated_Source\PSoC4/CyBle_gatt.c ****         },
ARM GAS  C:\Users\Tymek\AppData\Local\Temp\ccpPNbJV.s 			page 3


  88:Generated_Source\PSoC4/CyBle_gatt.c ****         {
  89:Generated_Source\PSoC4/CyBle_gatt.c ****             0x00u, 0x00u,
  90:Generated_Source\PSoC4/CyBle_gatt.c ****             0x00u, 0x00u,
  91:Generated_Source\PSoC4/CyBle_gatt.c ****         },
  92:Generated_Source\PSoC4/CyBle_gatt.c ****         {
  93:Generated_Source\PSoC4/CyBle_gatt.c ****             0x00u, 0x00u,
  94:Generated_Source\PSoC4/CyBle_gatt.c ****             0x00u, 0x00u,
  95:Generated_Source\PSoC4/CyBle_gatt.c ****         },
  96:Generated_Source\PSoC4/CyBle_gatt.c ****         {
  97:Generated_Source\PSoC4/CyBle_gatt.c ****             0x00u, 0x00u,
  98:Generated_Source\PSoC4/CyBle_gatt.c ****             0x00u, 0x00u,
  99:Generated_Source\PSoC4/CyBle_gatt.c ****         }}, 
 100:Generated_Source\PSoC4/CyBle_gatt.c ****         0x04u, /* CYBLE_GATT_DB_CCCD_COUNT */ 
 101:Generated_Source\PSoC4/CyBle_gatt.c ****         0x05u, /* CYBLE_GAP_MAX_BONDED_DEVICE */ 
 102:Generated_Source\PSoC4/CyBle_gatt.c ****     };
 103:Generated_Source\PSoC4/CyBle_gatt.c **** #endif /* (CYBLE_MODE_PROFILE) */
 104:Generated_Source\PSoC4/CyBle_gatt.c **** 
 105:Generated_Source\PSoC4/CyBle_gatt.c **** #endif  /* (CYBLE_MODE_PROFILE) && (CYBLE_BONDING_REQUIREMENT == CYBLE_BONDING_YES) */
 106:Generated_Source\PSoC4/CyBle_gatt.c **** 
 107:Generated_Source\PSoC4/CyBle_gatt.c **** #if(CYBLE_GATT_ROLE_SERVER)
 108:Generated_Source\PSoC4/CyBle_gatt.c ****     
 109:Generated_Source\PSoC4/CyBle_gatt.c ****     const CYBLE_GATTS_T cyBle_gatts =
 110:Generated_Source\PSoC4/CyBle_gatt.c **** {
 111:Generated_Source\PSoC4/CyBle_gatt.c ****     0x0008u,    /* Handle of the GATT service */
 112:Generated_Source\PSoC4/CyBle_gatt.c ****     0x000Au,    /* Handle of the Service Changed characteristic */
 113:Generated_Source\PSoC4/CyBle_gatt.c ****     0x000Bu,    /* Handle of the Client Characteristic Configuration descriptor */
 114:Generated_Source\PSoC4/CyBle_gatt.c **** };
 115:Generated_Source\PSoC4/CyBle_gatt.c ****     
 116:Generated_Source\PSoC4/CyBle_gatt.c ****     static uint8 cyBle_attValues[0x012Cu] = {
 117:Generated_Source\PSoC4/CyBle_gatt.c ****     /* Device Name */
 118:Generated_Source\PSoC4/CyBle_gatt.c ****     (uint8)'O', (uint8)'T', (uint8)'A', (uint8)' ', (uint8)'B', (uint8)'o', (uint8)'o', (uint8)'t',
 119:Generated_Source\PSoC4/CyBle_gatt.c ****     (uint8)'o', (uint8)'a', (uint8)'d', (uint8)'e', (uint8)'r',
 120:Generated_Source\PSoC4/CyBle_gatt.c **** 
 121:Generated_Source\PSoC4/CyBle_gatt.c ****     /* Appearance */
 122:Generated_Source\PSoC4/CyBle_gatt.c ****     0x00u, 0x02u,
 123:Generated_Source\PSoC4/CyBle_gatt.c **** 
 124:Generated_Source\PSoC4/CyBle_gatt.c ****     /* Peripheral Preferred Connection Parameters */
 125:Generated_Source\PSoC4/CyBle_gatt.c ****     0x06u, 0x00u, 0x06u, 0x00u, 0x00u, 0x00u, 0x64u, 0x00u,
 126:Generated_Source\PSoC4/CyBle_gatt.c **** 
 127:Generated_Source\PSoC4/CyBle_gatt.c ****     /* Service Changed */
 128:Generated_Source\PSoC4/CyBle_gatt.c ****     0x00u, 0x00u, 0x00u, 0x00u,
 129:Generated_Source\PSoC4/CyBle_gatt.c **** 
 130:Generated_Source\PSoC4/CyBle_gatt.c ****     /* Command */
 131:Generated_Source\PSoC4/CyBle_gatt.c ****     0x00u, 0x00u, 0x00u, 0x00u, 0x00u, 0x00u, 0x00u, 0x00u, 0x00u, 0x00u, 0x00u, 0x00u, 0x00u, 0x00
 132:Generated_Source\PSoC4/CyBle_gatt.c ****     0x00u, 0x00u, 0x00u, 0x00u, 0x00u, 0x00u, 0x00u, 0x00u, 0x00u, 0x00u, 0x00u, 0x00u, 0x00u, 0x00
 133:Generated_Source\PSoC4/CyBle_gatt.c ****     0x00u, 0x00u, 0x00u, 0x00u, 0x00u, 0x00u, 0x00u, 0x00u, 0x00u, 0x00u, 0x00u, 0x00u, 0x00u, 0x00
 134:Generated_Source\PSoC4/CyBle_gatt.c ****     0x00u, 0x00u, 0x00u, 0x00u, 0x00u, 0x00u, 0x00u, 0x00u, 0x00u, 0x00u, 0x00u, 0x00u, 0x00u, 0x00
 135:Generated_Source\PSoC4/CyBle_gatt.c ****     0x00u, 0x00u, 0x00u, 0x00u, 0x00u, 0x00u, 0x00u, 0x00u, 0x00u, 0x00u, 0x00u, 0x00u, 0x00u, 0x00
 136:Generated_Source\PSoC4/CyBle_gatt.c ****     0x00u, 0x00u, 0x00u, 0x00u, 0x00u, 0x00u, 0x00u, 0x00u, 0x00u, 0x00u, 0x00u, 0x00u, 0x00u, 0x00
 137:Generated_Source\PSoC4/CyBle_gatt.c ****     0x00u, 0x00u, 0x00u, 0x00u, 0x00u, 0x00u, 0x00u, 0x00u, 0x00u, 0x00u, 0x00u, 0x00u, 0x00u, 0x00
 138:Generated_Source\PSoC4/CyBle_gatt.c ****     0x00u, 0x00u, 0x00u, 0x00u, 0x00u, 0x00u, 0x00u, 0x00u, 0x00u, 0x00u, 0x00u, 0x00u, 0x00u, 0x00
 139:Generated_Source\PSoC4/CyBle_gatt.c ****     0x00u, 0x00u, 0x00u, 0x00u, 0x00u, 0x00u, 0x00u, 0x00u, 0x00u, 0x00u, 0x00u, 0x00u, 0x00u, 0x00
 140:Generated_Source\PSoC4/CyBle_gatt.c ****     0x00u, 0x00u, 0x00u, 0x00u, 0x00u, 0x00u, 0x00u, 0x00u, 0x00u, 0x00u, 0x00u, 0x00u, 0x00u, 0x00
 141:Generated_Source\PSoC4/CyBle_gatt.c ****     0x00u, 0x00u, 0x00u, 0x00u, 0x00u, 0x00u, 0x00u, 0x00u, 0x00u, 0x00u, 0x00u, 0x00u, 0x00u, 0x00
 142:Generated_Source\PSoC4/CyBle_gatt.c ****     0x00u, 0x00u, 0x00u, 0x00u, 0x00u, 0x00u, 0x00u, 0x00u, 0x00u, 0x00u, 0x00u, 0x00u, 0x00u, 0x00
 143:Generated_Source\PSoC4/CyBle_gatt.c ****     0x00u, 0x00u, 0x00u, 0x00u, 0x00u, 0x00u, 0x00u, 0x00u, 0x00u, 0x00u, 0x00u, 0x00u, 0x00u, 0x00
 144:Generated_Source\PSoC4/CyBle_gatt.c ****     0x00u, 0x00u, 0x00u, 0x00u, 0x00u, 0x00u, 0x00u, 0x00u, 0x00u, 0x00u, 0x00u, 0x00u, 0x00u, 0x00
ARM GAS  C:\Users\Tymek\AppData\Local\Temp\ccpPNbJV.s 			page 4


 145:Generated_Source\PSoC4/CyBle_gatt.c ****     0x00u, 0x00u, 0x00u, 0x00u, 0x00u, 0x00u, 0x00u, 0x00u, 0x00u, 0x00u, 0x00u, 0x00u, 0x00u, 0x00
 146:Generated_Source\PSoC4/CyBle_gatt.c ****     0x00u, 0x00u, 0x00u, 0x00u, 0x00u, 0x00u, 0x00u, 0x00u, 0x00u, 0x00u, 0x00u, 0x00u, 0x00u, 0x00
 147:Generated_Source\PSoC4/CyBle_gatt.c ****     0x00u, 0x00u, 0x00u, 0x00u, 0x00u, 0x00u, 0x00u, 0x00u, 0x00u, 0x00u, 0x00u, 0x00u, 0x00u, 0x00
 148:Generated_Source\PSoC4/CyBle_gatt.c **** 
 149:Generated_Source\PSoC4/CyBle_gatt.c **** };
 150:Generated_Source\PSoC4/CyBle_gatt.c **** #if(CYBLE_GATT_DB_CCCD_COUNT != 0u)
 151:Generated_Source\PSoC4/CyBle_gatt.c **** uint8 cyBle_attValuesCCCD[CYBLE_GATT_DB_CCCD_COUNT];
 152:Generated_Source\PSoC4/CyBle_gatt.c **** #endif /* CYBLE_GATT_DB_CCCD_COUNT != 0u */
 153:Generated_Source\PSoC4/CyBle_gatt.c **** 
 154:Generated_Source\PSoC4/CyBle_gatt.c **** const uint8 cyBle_attUuid128[][16u] = {
 155:Generated_Source\PSoC4/CyBle_gatt.c ****     /* Bootloader */
 156:Generated_Source\PSoC4/CyBle_gatt.c ****     { 0x1Bu, 0xC5u, 0xD5u, 0xA5u, 0x02u, 0x00u, 0xF4u, 0xABu, 0xE4u, 0x11u, 0xCEu, 0xF8u, 0x00u, 0x
 157:Generated_Source\PSoC4/CyBle_gatt.c ****     /* Command */
 158:Generated_Source\PSoC4/CyBle_gatt.c ****     { 0x1Bu, 0xC5u, 0xD5u, 0xA5u, 0x02u, 0x00u, 0xF4u, 0xABu, 0xE4u, 0x11u, 0xCEu, 0xF8u, 0x01u, 0x
 159:Generated_Source\PSoC4/CyBle_gatt.c **** };
 160:Generated_Source\PSoC4/CyBle_gatt.c **** 
 161:Generated_Source\PSoC4/CyBle_gatt.c **** CYBLE_GATTS_ATT_GEN_VAL_LEN_T cyBle_attValuesLen[CYBLE_GATT_DB_ATT_VAL_COUNT] = {
 162:Generated_Source\PSoC4/CyBle_gatt.c ****     { 0x000Eu, (void *)&cyBle_attValues[0] }, /* Device Name */
 163:Generated_Source\PSoC4/CyBle_gatt.c ****     { 0x0002u, (void *)&cyBle_attValues[14] }, /* Appearance */
 164:Generated_Source\PSoC4/CyBle_gatt.c ****     { 0x0008u, (void *)&cyBle_attValues[16] }, /* Peripheral Preferred Connection Parameters */
 165:Generated_Source\PSoC4/CyBle_gatt.c ****     { 0x0004u, (void *)&cyBle_attValues[24] }, /* Service Changed */
 166:Generated_Source\PSoC4/CyBle_gatt.c ****     { 0x0002u, (void *)&cyBle_attValuesCCCD[0] }, /* Client Characteristic Configuration */
 167:Generated_Source\PSoC4/CyBle_gatt.c ****     { 0x0010u, (void *)&cyBle_attUuid128[0] }, /* Bootloader UUID */
 168:Generated_Source\PSoC4/CyBle_gatt.c ****     { 0x0010u, (void *)&cyBle_attUuid128[1] }, /* Command UUID */
 169:Generated_Source\PSoC4/CyBle_gatt.c ****     { 0x0110u, (void *)&cyBle_attValues[28] }, /* Command */
 170:Generated_Source\PSoC4/CyBle_gatt.c ****     { 0x0002u, (void *)&cyBle_attValuesCCCD[2] }, /* Client Characteristic Configuration */
 171:Generated_Source\PSoC4/CyBle_gatt.c **** };
 172:Generated_Source\PSoC4/CyBle_gatt.c **** 
 173:Generated_Source\PSoC4/CyBle_gatt.c **** const CYBLE_GATTS_DB_T cyBle_gattDB[0x0Fu] = {
 174:Generated_Source\PSoC4/CyBle_gatt.c ****     { 0x0001u, 0x2800u /* Primary service                     */, 0x00000001u /*        */, 0x0007u
 175:Generated_Source\PSoC4/CyBle_gatt.c ****     { 0x0002u, 0x2803u /* Characteristic                      */, 0x00020001u /* rd     */, 0x0003u
 176:Generated_Source\PSoC4/CyBle_gatt.c ****     { 0x0003u, 0x2A00u /* Device Name                         */, 0x01020001u /* rd     */, 0x0003u
 177:Generated_Source\PSoC4/CyBle_gatt.c ****     { 0x0004u, 0x2803u /* Characteristic                      */, 0x00020001u /* rd     */, 0x0005u
 178:Generated_Source\PSoC4/CyBle_gatt.c ****     { 0x0005u, 0x2A01u /* Appearance                          */, 0x01020001u /* rd     */, 0x0005u
 179:Generated_Source\PSoC4/CyBle_gatt.c ****     { 0x0006u, 0x2803u /* Characteristic                      */, 0x00020001u /* rd     */, 0x0007u
 180:Generated_Source\PSoC4/CyBle_gatt.c ****     { 0x0007u, 0x2A04u /* Peripheral Preferred Connection Par */, 0x01020001u /* rd     */, 0x0007u
 181:Generated_Source\PSoC4/CyBle_gatt.c ****     { 0x0008u, 0x2800u /* Primary service                     */, 0x00000001u /*        */, 0x000Bu
 182:Generated_Source\PSoC4/CyBle_gatt.c ****     { 0x0009u, 0x2803u /* Characteristic                      */, 0x00220001u /* rd,ind */, 0x000Bu
 183:Generated_Source\PSoC4/CyBle_gatt.c ****     { 0x000Au, 0x2A05u /* Service Changed                     */, 0x01220001u /* rd,ind */, 0x000Bu
 184:Generated_Source\PSoC4/CyBle_gatt.c ****     { 0x000Bu, 0x2902u /* Client Characteristic Configuration */, 0x010A0301u /* rd,wr  */, 0x000Bu
 185:Generated_Source\PSoC4/CyBle_gatt.c ****     { 0x000Cu, 0x2800u /* Primary service                     */, 0x08000001u /*        */, 0x000Fu
 186:Generated_Source\PSoC4/CyBle_gatt.c ****     { 0x000Du, 0x2803u /* Characteristic                      */, 0x00180001u /* wr,ntf */, 0x000Fu
 187:Generated_Source\PSoC4/CyBle_gatt.c ****     { 0x000Eu, 0x0001u /* Command                             */, 0x09180300u /* wr,ntf */, 0x000Fu
 188:Generated_Source\PSoC4/CyBle_gatt.c ****     { 0x000Fu, 0x2902u /* Client Characteristic Configuration */, 0x010A0301u /* rd,wr  */, 0x000Fu
 189:Generated_Source\PSoC4/CyBle_gatt.c **** };
 190:Generated_Source\PSoC4/CyBle_gatt.c **** 
 191:Generated_Source\PSoC4/CyBle_gatt.c **** 
 192:Generated_Source\PSoC4/CyBle_gatt.c **** #endif /* (CYBLE_GATT_ROLE_SERVER) */
 193:Generated_Source\PSoC4/CyBle_gatt.c **** 
 194:Generated_Source\PSoC4/CyBle_gatt.c **** #if(CYBLE_GATT_ROLE_CLIENT)
 195:Generated_Source\PSoC4/CyBle_gatt.c ****     
 196:Generated_Source\PSoC4/CyBle_gatt.c **** CYBLE_CLIENT_STATE_T cyBle_clientState;
 197:Generated_Source\PSoC4/CyBle_gatt.c **** CYBLE_GATTC_T cyBle_gattc;
 198:Generated_Source\PSoC4/CyBle_gatt.c **** CYBLE_GATT_ATTR_HANDLE_RANGE_T cyBle_gattcDiscoveryRange;
 199:Generated_Source\PSoC4/CyBle_gatt.c ****     
 200:Generated_Source\PSoC4/CyBle_gatt.c **** #endif /* (CYBLE_GATT_ROLE_CLIENT) */
 201:Generated_Source\PSoC4/CyBle_gatt.c **** 
ARM GAS  C:\Users\Tymek\AppData\Local\Temp\ccpPNbJV.s 			page 5


 202:Generated_Source\PSoC4/CyBle_gatt.c **** 
 203:Generated_Source\PSoC4/CyBle_gatt.c **** #if(CYBLE_GATT_ROLE_SERVER)
 204:Generated_Source\PSoC4/CyBle_gatt.c **** 
 205:Generated_Source\PSoC4/CyBle_gatt.c **** /****************************************************************************** 
 206:Generated_Source\PSoC4/CyBle_gatt.c **** * Function Name: CyBle_GattsReInitGattDb
 207:Generated_Source\PSoC4/CyBle_gatt.c **** ***************************************************************************//**
 208:Generated_Source\PSoC4/CyBle_gatt.c **** * 
 209:Generated_Source\PSoC4/CyBle_gatt.c **** *  Reinitializes the GATT database.
 210:Generated_Source\PSoC4/CyBle_gatt.c **** * 
 211:Generated_Source\PSoC4/CyBle_gatt.c **** *  \return
 212:Generated_Source\PSoC4/CyBle_gatt.c **** *  CYBLE_API_RESULT_T: A function result states if it succeeded or failed with
 213:Generated_Source\PSoC4/CyBle_gatt.c **** *  error codes:
 214:Generated_Source\PSoC4/CyBle_gatt.c **** 
 215:Generated_Source\PSoC4/CyBle_gatt.c **** *  Errors codes                          | Description
 216:Generated_Source\PSoC4/CyBle_gatt.c **** *  ------------                          | -----------
 217:Generated_Source\PSoC4/CyBle_gatt.c **** *  CYBLE_ERROR_OK						 | GATT database was reinitialized successfully.
 218:Generated_Source\PSoC4/CyBle_gatt.c **** *  CYBLE_ERROR_INVALID_STATE             | If the function is called in any state except CYBLE_STAT
 219:Generated_Source\PSoC4/CyBle_gatt.c **** *  CYBLE_ERROR_INVALID_PARAMETER         | If the Database has zero entries or is a NULL pointer.
 220:Generated_Source\PSoC4/CyBle_gatt.c **** * 
 221:Generated_Source\PSoC4/CyBle_gatt.c **** ******************************************************************************/
 222:Generated_Source\PSoC4/CyBle_gatt.c **** CYBLE_API_RESULT_T CyBle_GattsReInitGattDb(void)
 223:Generated_Source\PSoC4/CyBle_gatt.c **** {
  28              		.loc 1 223 0
  29              		.cfi_startproc
  30              		@ args = 0, pretend = 0, frame = 0
  31              		@ frame_needed = 0, uses_anonymous_args = 0
  32 0000 10B5     		push	{r4, lr}
  33              		.cfi_def_cfa_offset 8
  34              		.cfi_offset 4, -8
  35              		.cfi_offset 14, -4
 224:Generated_Source\PSoC4/CyBle_gatt.c ****     CYBLE_API_RESULT_T apiResult;
 225:Generated_Source\PSoC4/CyBle_gatt.c ****     
 226:Generated_Source\PSoC4/CyBle_gatt.c ****     if(CyBle_GetState() == CYBLE_STATE_DISCONNECTED)
  36              		.loc 1 226 0
  37 0002 074B     		ldr	r3, .L4
  38 0004 1B78     		ldrb	r3, [r3]
  39 0006 042B     		cmp	r3, #4
  40 0008 06D1     		bne	.L3
 227:Generated_Source\PSoC4/CyBle_gatt.c ****     {
 228:Generated_Source\PSoC4/CyBle_gatt.c ****         apiResult = CyBle_GattsDbRegister(cyBle_gattDB, CYBLE_GATT_DB_INDEX_COUNT, CYBLE_GATT_DB_MA
  41              		.loc 1 228 0
  42 000a 8822     		movs	r2, #136
  43 000c 5200     		lsls	r2, r2, #1
  44 000e 0F21     		movs	r1, #15
  45 0010 0448     		ldr	r0, .L4+4
  46 0012 FFF7FEFF 		bl	CyBle_GattsDbRegister
  47              	.LVL0:
  48 0016 01E0     		b	.L2
  49              	.LVL1:
  50              	.L3:
 229:Generated_Source\PSoC4/CyBle_gatt.c ****     }
 230:Generated_Source\PSoC4/CyBle_gatt.c ****     else
 231:Generated_Source\PSoC4/CyBle_gatt.c ****     {
 232:Generated_Source\PSoC4/CyBle_gatt.c ****         apiResult = CYBLE_ERROR_INVALID_STATE;
  51              		.loc 1 232 0
  52 0018 0420     		movs	r0, #4
  53 001a FF30     		adds	r0, r0, #255
ARM GAS  C:\Users\Tymek\AppData\Local\Temp\ccpPNbJV.s 			page 6


  54              	.L2:
  55              	.LVL2:
 233:Generated_Source\PSoC4/CyBle_gatt.c ****     }
 234:Generated_Source\PSoC4/CyBle_gatt.c ****     
 235:Generated_Source\PSoC4/CyBle_gatt.c ****     return(apiResult);
 236:Generated_Source\PSoC4/CyBle_gatt.c **** }
  56              		.loc 1 236 0
  57              		@ sp needed
  58 001c 10BD     		pop	{r4, pc}
  59              	.L5:
  60 001e C046     		.align	2
  61              	.L4:
  62 0020 00000000 		.word	cyBle_state
  63 0024 00000000 		.word	.LANCHOR0
  64              		.cfi_endproc
  65              	.LFE2:
  66              		.size	CyBle_GattsReInitGattDb, .-CyBle_GattsReInitGattDb
  67              		.section	.text.CyBle_GattsWriteEventHandler,"ax",%progbits
  68              		.align	2
  69              		.global	CyBle_GattsWriteEventHandler
  70              		.code	16
  71              		.thumb_func
  72              		.type	CyBle_GattsWriteEventHandler, %function
  73              	CyBle_GattsWriteEventHandler:
  74              	.LFB3:
 237:Generated_Source\PSoC4/CyBle_gatt.c **** 
 238:Generated_Source\PSoC4/CyBle_gatt.c **** 
 239:Generated_Source\PSoC4/CyBle_gatt.c **** /****************************************************************************** 
 240:Generated_Source\PSoC4/CyBle_gatt.c **** * Function Name: CyBle_GattsWriteEventHandler
 241:Generated_Source\PSoC4/CyBle_gatt.c **** ***************************************************************************//**
 242:Generated_Source\PSoC4/CyBle_gatt.c **** * 
 243:Generated_Source\PSoC4/CyBle_gatt.c **** *  Handles the Write Request Event for GATT service.
 244:Generated_Source\PSoC4/CyBle_gatt.c **** * 
 245:Generated_Source\PSoC4/CyBle_gatt.c **** *  \param eventParam: The pointer to the data structure specified by the event.
 246:Generated_Source\PSoC4/CyBle_gatt.c **** * 
 247:Generated_Source\PSoC4/CyBle_gatt.c **** *  \return
 248:Generated_Source\PSoC4/CyBle_gatt.c **** *  CYBLE_GATT_ERR_CODE_T: A function returns one of the following status 
 249:Generated_Source\PSoC4/CyBle_gatt.c **** *  values.
 250:Generated_Source\PSoC4/CyBle_gatt.c **** 
 251:Generated_Source\PSoC4/CyBle_gatt.c **** *  Errors codes                          | Description
 252:Generated_Source\PSoC4/CyBle_gatt.c **** *  --------------------                  | -----------
 253:Generated_Source\PSoC4/CyBle_gatt.c **** *  CYBLE_GATT_ERR_NONE                   | Write is successful.
 254:Generated_Source\PSoC4/CyBle_gatt.c **** * 
 255:Generated_Source\PSoC4/CyBle_gatt.c **** ******************************************************************************/
 256:Generated_Source\PSoC4/CyBle_gatt.c **** CYBLE_GATT_ERR_CODE_T CyBle_GattsWriteEventHandler(CYBLE_GATTS_WRITE_REQ_PARAM_T *eventParam)
 257:Generated_Source\PSoC4/CyBle_gatt.c **** {
  75              		.loc 1 257 0
  76              		.cfi_startproc
  77              		@ args = 0, pretend = 0, frame = 0
  78              		@ frame_needed = 0, uses_anonymous_args = 0
  79              	.LVL3:
  80 0000 70B5     		push	{r4, r5, r6, lr}
  81              		.cfi_def_cfa_offset 16
  82              		.cfi_offset 4, -16
  83              		.cfi_offset 5, -12
  84              		.cfi_offset 6, -8
  85              		.cfi_offset 14, -4
ARM GAS  C:\Users\Tymek\AppData\Local\Temp\ccpPNbJV.s 			page 7


  86 0002 0500     		movs	r5, r0
  87              	.LVL4:
 258:Generated_Source\PSoC4/CyBle_gatt.c ****     CYBLE_GATT_ERR_CODE_T gattErr = CYBLE_GATT_ERR_NONE;
 259:Generated_Source\PSoC4/CyBle_gatt.c ****     
 260:Generated_Source\PSoC4/CyBle_gatt.c ****     /* Client Characteristic Configuration descriptor write request */
 261:Generated_Source\PSoC4/CyBle_gatt.c ****     if(eventParam->handleValPair.attrHandle == cyBle_gatts.cccdHandle)
  88              		.loc 1 261 0
  89 0004 8389     		ldrh	r3, [r0, #12]
  90 0006 0B2B     		cmp	r3, #11
  91 0008 1FD1     		bne	.L10
 262:Generated_Source\PSoC4/CyBle_gatt.c ****     {
 263:Generated_Source\PSoC4/CyBle_gatt.c ****         /* Store value to database */
 264:Generated_Source\PSoC4/CyBle_gatt.c ****         gattErr = CyBle_GattsWriteAttributeValue(&eventParam->handleValPair, 0u, 
  92              		.loc 1 264 0
  93 000a 0430     		adds	r0, r0, #4
  94              	.LVL5:
  95 000c 3533     		adds	r3, r3, #53
  96 000e 2A00     		movs	r2, r5
  97 0010 0021     		movs	r1, #0
  98 0012 FFF7FEFF 		bl	CyBle_GattsWriteAttributeValue
  99              	.LVL6:
 100 0016 041E     		subs	r4, r0, #0
 101              	.LVL7:
 265:Generated_Source\PSoC4/CyBle_gatt.c ****                         &eventParam->connHandle, CYBLE_GATT_DB_PEER_INITIATED);
 266:Generated_Source\PSoC4/CyBle_gatt.c ****         
 267:Generated_Source\PSoC4/CyBle_gatt.c ****         if(gattErr == CYBLE_GATT_ERR_NONE)
 102              		.loc 1 267 0
 103 0018 11D1     		bne	.L8
 268:Generated_Source\PSoC4/CyBle_gatt.c ****         {
 269:Generated_Source\PSoC4/CyBle_gatt.c ****             if(CYBLE_IS_INDICATION_ENABLED_IN_PTR(eventParam->handleValPair.value.val))
 104              		.loc 1 269 0
 105 001a 6868     		ldr	r0, [r5, #4]
 106              	.LVL8:
 107 001c FFF7FEFF 		bl	CyBle_Get16ByPtr
 108              	.LVL9:
 109 0020 8307     		lsls	r3, r0, #30
 110 0022 06D5     		bpl	.L9
 270:Generated_Source\PSoC4/CyBle_gatt.c ****             {
 271:Generated_Source\PSoC4/CyBle_gatt.c ****                 CyBle_ApplCallback((uint32)CYBLE_EVT_GATTS_INDICATION_ENABLED, eventParam);
 111              		.loc 1 271 0
 112 0024 0A4B     		ldr	r3, .L11
 113 0026 1B68     		ldr	r3, [r3]
 114 0028 2900     		movs	r1, r5
 115 002a 8220     		movs	r0, #130
 116 002c 4000     		lsls	r0, r0, #1
 117 002e 9847     		blx	r3
 118              	.LVL10:
 119 0030 05E0     		b	.L8
 120              	.L9:
 272:Generated_Source\PSoC4/CyBle_gatt.c ****             }
 273:Generated_Source\PSoC4/CyBle_gatt.c ****             else
 274:Generated_Source\PSoC4/CyBle_gatt.c ****             {
 275:Generated_Source\PSoC4/CyBle_gatt.c ****                 CyBle_ApplCallback((uint32)CYBLE_EVT_GATTS_INDICATION_DISABLED, eventParam);
 121              		.loc 1 275 0
 122 0032 074B     		ldr	r3, .L11
 123 0034 1B68     		ldr	r3, [r3]
 124 0036 2900     		movs	r1, r5
ARM GAS  C:\Users\Tymek\AppData\Local\Temp\ccpPNbJV.s 			page 8


 125 0038 0620     		movs	r0, #6
 126 003a FF30     		adds	r0, r0, #255
 127 003c 9847     		blx	r3
 128              	.LVL11:
 129              	.L8:
 276:Generated_Source\PSoC4/CyBle_gatt.c ****             }
 277:Generated_Source\PSoC4/CyBle_gatt.c ****         }
 278:Generated_Source\PSoC4/CyBle_gatt.c ****         cyBle_eventHandlerFlag &= (uint8)~CYBLE_CALLBACK;
 130              		.loc 1 278 0
 131 003e 054A     		ldr	r2, .L11+4
 132 0040 1378     		ldrb	r3, [r2]
 133 0042 0121     		movs	r1, #1
 134 0044 8B43     		bics	r3, r1
 135 0046 1370     		strb	r3, [r2]
 136 0048 00E0     		b	.L7
 137              	.LVL12:
 138              	.L10:
 258:Generated_Source\PSoC4/CyBle_gatt.c ****     
 139              		.loc 1 258 0
 140 004a 0024     		movs	r4, #0
 141              	.LVL13:
 142              	.L7:
 279:Generated_Source\PSoC4/CyBle_gatt.c ****     }
 280:Generated_Source\PSoC4/CyBle_gatt.c ****     return (gattErr);
 281:Generated_Source\PSoC4/CyBle_gatt.c **** }
 143              		.loc 1 281 0
 144 004c 2000     		movs	r0, r4
 145              		@ sp needed
 146              	.LVL14:
 147              	.LVL15:
 148 004e 70BD     		pop	{r4, r5, r6, pc}
 149              	.L12:
 150              		.align	2
 151              	.L11:
 152 0050 00000000 		.word	CyBle_ApplCallback
 153 0054 00000000 		.word	cyBle_eventHandlerFlag
 154              		.cfi_endproc
 155              	.LFE3:
 156              		.size	CyBle_GattsWriteEventHandler, .-CyBle_GattsWriteEventHandler
 157              		.global	cyBle_gattDB
 158              		.global	cyBle_attValuesLen
 159              		.global	cyBle_attUuid128
 160              		.comm	cyBle_attValuesCCCD,4,4
 161              		.global	cyBle_gatts
 162              		.comm	cyBle_state,1,1
 163              		.section	.rodata
 164              		.align	2
 165              		.set	.LANCHOR0,. + 0
 166              		.type	cyBle_gattDB, %object
 167              		.size	cyBle_gattDB, 300
 168              	cyBle_gattDB:
 169 0000 0100     		.short	1
 170 0002 0028     		.short	10240
 171 0004 01000000 		.word	1
 172 0008 0700     		.short	7
 173 000a 0000     		.space	2
 174 000c 0018     		.short	6144
ARM GAS  C:\Users\Tymek\AppData\Local\Temp\ccpPNbJV.s 			page 9


 175 000e 0000     		.space	2
 176 0010 00000000 		.word	0
 177 0014 0200     		.short	2
 178 0016 0328     		.short	10243
 179 0018 01000200 		.word	131073
 180 001c 0300     		.short	3
 181 001e 0000     		.space	2
 182 0020 002A     		.short	10752
 183 0022 0000     		.space	2
 184 0024 00000000 		.word	0
 185 0028 0300     		.short	3
 186 002a 002A     		.short	10752
 187 002c 01000201 		.word	16908289
 188 0030 0300     		.short	3
 189 0032 0000     		.space	2
 190 0034 0E00     		.short	14
 191 0036 0000     		.space	2
 192 0038 00000000 		.word	cyBle_attValuesLen
 193 003c 0400     		.short	4
 194 003e 0328     		.short	10243
 195 0040 01000200 		.word	131073
 196 0044 0500     		.short	5
 197 0046 0000     		.space	2
 198 0048 012A     		.short	10753
 199 004a 0000     		.space	2
 200 004c 00000000 		.word	0
 201 0050 0500     		.short	5
 202 0052 012A     		.short	10753
 203 0054 01000201 		.word	16908289
 204 0058 0500     		.short	5
 205 005a 0000     		.space	2
 206 005c 0200     		.short	2
 207 005e 0000     		.space	2
 208 0060 08000000 		.word	cyBle_attValuesLen+8
 209 0064 0600     		.short	6
 210 0066 0328     		.short	10243
 211 0068 01000200 		.word	131073
 212 006c 0700     		.short	7
 213 006e 0000     		.space	2
 214 0070 042A     		.short	10756
 215 0072 0000     		.space	2
 216 0074 00000000 		.word	0
 217 0078 0700     		.short	7
 218 007a 042A     		.short	10756
 219 007c 01000201 		.word	16908289
 220 0080 0700     		.short	7
 221 0082 0000     		.space	2
 222 0084 0800     		.short	8
 223 0086 0000     		.space	2
 224 0088 10000000 		.word	cyBle_attValuesLen+16
 225 008c 0800     		.short	8
 226 008e 0028     		.short	10240
 227 0090 01000000 		.word	1
 228 0094 0B00     		.short	11
 229 0096 0000     		.space	2
 230 0098 0118     		.short	6145
 231 009a 0000     		.space	2
ARM GAS  C:\Users\Tymek\AppData\Local\Temp\ccpPNbJV.s 			page 10


 232 009c 00000000 		.word	0
 233 00a0 0900     		.short	9
 234 00a2 0328     		.short	10243
 235 00a4 01002200 		.word	2228225
 236 00a8 0B00     		.short	11
 237 00aa 0000     		.space	2
 238 00ac 052A     		.short	10757
 239 00ae 0000     		.space	2
 240 00b0 00000000 		.word	0
 241 00b4 0A00     		.short	10
 242 00b6 052A     		.short	10757
 243 00b8 01002201 		.word	19005441
 244 00bc 0B00     		.short	11
 245 00be 0000     		.space	2
 246 00c0 0400     		.short	4
 247 00c2 0000     		.space	2
 248 00c4 18000000 		.word	cyBle_attValuesLen+24
 249 00c8 0B00     		.short	11
 250 00ca 0229     		.short	10498
 251 00cc 01030A01 		.word	17433345
 252 00d0 0B00     		.short	11
 253 00d2 0000     		.space	2
 254 00d4 0200     		.short	2
 255 00d6 0000     		.space	2
 256 00d8 20000000 		.word	cyBle_attValuesLen+32
 257 00dc 0C00     		.short	12
 258 00de 0028     		.short	10240
 259 00e0 01000008 		.word	134217729
 260 00e4 0F00     		.short	15
 261 00e6 0000     		.space	2
 262 00e8 1000     		.short	16
 263 00ea 0000     		.space	2
 264 00ec 28000000 		.word	cyBle_attValuesLen+40
 265 00f0 0D00     		.short	13
 266 00f2 0328     		.short	10243
 267 00f4 01001800 		.word	1572865
 268 00f8 0F00     		.short	15
 269 00fa 0000     		.space	2
 270 00fc 1000     		.short	16
 271 00fe 0000     		.space	2
 272 0100 30000000 		.word	cyBle_attValuesLen+48
 273 0104 0E00     		.short	14
 274 0106 0100     		.short	1
 275 0108 00031809 		.word	152568576
 276 010c 0F00     		.short	15
 277 010e 0000     		.space	2
 278 0110 1001     		.short	272
 279 0112 0000     		.space	2
 280 0114 38000000 		.word	cyBle_attValuesLen+56
 281 0118 0F00     		.short	15
 282 011a 0229     		.short	10498
 283 011c 01030A01 		.word	17433345
 284 0120 0F00     		.short	15
 285 0122 0000     		.space	2
 286 0124 0200     		.short	2
 287 0126 0000     		.space	2
 288 0128 40000000 		.word	cyBle_attValuesLen+64
ARM GAS  C:\Users\Tymek\AppData\Local\Temp\ccpPNbJV.s 			page 11


 289              		.type	cyBle_attUuid128, %object
 290              		.size	cyBle_attUuid128, 32
 291              	cyBle_attUuid128:
 292 012c 1B       		.byte	27
 293 012d C5       		.byte	-59
 294 012e D5       		.byte	-43
 295 012f A5       		.byte	-91
 296 0130 02       		.byte	2
 297 0131 00       		.byte	0
 298 0132 F4       		.byte	-12
 299 0133 AB       		.byte	-85
 300 0134 E4       		.byte	-28
 301 0135 11       		.byte	17
 302 0136 CE       		.byte	-50
 303 0137 F8       		.byte	-8
 304 0138 00       		.byte	0
 305 0139 00       		.byte	0
 306 013a 06       		.byte	6
 307 013b 00       		.byte	0
 308 013c 1B       		.byte	27
 309 013d C5       		.byte	-59
 310 013e D5       		.byte	-43
 311 013f A5       		.byte	-91
 312 0140 02       		.byte	2
 313 0141 00       		.byte	0
 314 0142 F4       		.byte	-12
 315 0143 AB       		.byte	-85
 316 0144 E4       		.byte	-28
 317 0145 11       		.byte	17
 318 0146 CE       		.byte	-50
 319 0147 F8       		.byte	-8
 320 0148 01       		.byte	1
 321 0149 00       		.byte	0
 322 014a 06       		.byte	6
 323 014b 00       		.byte	0
 324              		.type	cyBle_gatts, %object
 325              		.size	cyBle_gatts, 6
 326              	cyBle_gatts:
 327 014c 0800     		.short	8
 328 014e 0A00     		.short	10
 329 0150 0B00     		.short	11
 330              		.data
 331              		.align	2
 332              		.type	cyBle_attValuesLen, %object
 333              		.size	cyBle_attValuesLen, 72
 334              	cyBle_attValuesLen:
 335 0000 0E00     		.short	14
 336 0002 0000     		.space	2
 337 0004 48000000 		.word	cyBle_attValues
 338 0008 0200     		.short	2
 339 000a 0000     		.space	2
 340 000c 56000000 		.word	cyBle_attValues+14
 341 0010 0800     		.short	8
 342 0012 0000     		.space	2
 343 0014 58000000 		.word	cyBle_attValues+16
 344 0018 0400     		.short	4
 345 001a 0000     		.space	2
ARM GAS  C:\Users\Tymek\AppData\Local\Temp\ccpPNbJV.s 			page 12


 346 001c 60000000 		.word	cyBle_attValues+24
 347 0020 0200     		.short	2
 348 0022 0000     		.space	2
 349 0024 00000000 		.word	cyBle_attValuesCCCD
 350 0028 1000     		.short	16
 351 002a 0000     		.space	2
 352 002c 00000000 		.word	cyBle_attUuid128
 353 0030 1000     		.short	16
 354 0032 0000     		.space	2
 355 0034 10000000 		.word	cyBle_attUuid128+16
 356 0038 1001     		.short	272
 357 003a 0000     		.space	2
 358 003c 64000000 		.word	cyBle_attValues+28
 359 0040 0200     		.short	2
 360 0042 0000     		.space	2
 361 0044 02000000 		.word	cyBle_attValuesCCCD+2
 362              		.type	cyBle_attValues, %object
 363              		.size	cyBle_attValues, 300
 364              	cyBle_attValues:
 365 0048 4F       		.byte	79
 366 0049 54       		.byte	84
 367 004a 41       		.byte	65
 368 004b 20       		.byte	32
 369 004c 42       		.byte	66
 370 004d 6F       		.byte	111
 371 004e 6F       		.byte	111
 372 004f 74       		.byte	116
 373 0050 6C       		.byte	108
 374 0051 6F       		.byte	111
 375 0052 61       		.byte	97
 376 0053 64       		.byte	100
 377 0054 65       		.byte	101
 378 0055 72       		.byte	114
 379 0056 00       		.byte	0
 380 0057 02       		.byte	2
 381 0058 06       		.byte	6
 382 0059 00       		.byte	0
 383 005a 06       		.byte	6
 384 005b 00       		.byte	0
 385 005c 00       		.byte	0
 386 005d 00       		.byte	0
 387 005e 64       		.byte	100
 388 005f 00       		.byte	0
 389 0060 00       		.byte	0
 390 0061 00       		.byte	0
 391 0062 00       		.byte	0
 392 0063 00       		.byte	0
 393 0064 00       		.byte	0
 394 0065 00       		.byte	0
 395 0066 00       		.byte	0
 396 0067 00       		.byte	0
 397 0068 00       		.byte	0
 398 0069 00       		.byte	0
 399 006a 00       		.byte	0
 400 006b 00       		.byte	0
 401 006c 00       		.byte	0
 402 006d 00       		.byte	0
ARM GAS  C:\Users\Tymek\AppData\Local\Temp\ccpPNbJV.s 			page 13


 403 006e 00       		.byte	0
 404 006f 00       		.byte	0
 405 0070 00       		.byte	0
 406 0071 00       		.byte	0
 407 0072 00       		.byte	0
 408 0073 00       		.byte	0
 409 0074 00       		.byte	0
 410 0075 00       		.byte	0
 411 0076 00       		.byte	0
 412 0077 00       		.byte	0
 413 0078 00       		.byte	0
 414 0079 00       		.byte	0
 415 007a 00       		.byte	0
 416 007b 00       		.byte	0
 417 007c 00       		.byte	0
 418 007d 00       		.byte	0
 419 007e 00       		.byte	0
 420 007f 00       		.byte	0
 421 0080 00       		.byte	0
 422 0081 00       		.byte	0
 423 0082 00       		.byte	0
 424 0083 00       		.byte	0
 425 0084 00       		.byte	0
 426 0085 00       		.byte	0
 427 0086 00       		.byte	0
 428 0087 00       		.byte	0
 429 0088 00       		.byte	0
 430 0089 00       		.byte	0
 431 008a 00       		.byte	0
 432 008b 00       		.byte	0
 433 008c 00       		.byte	0
 434 008d 00       		.byte	0
 435 008e 00       		.byte	0
 436 008f 00       		.byte	0
 437 0090 00       		.byte	0
 438 0091 00       		.byte	0
 439 0092 00       		.byte	0
 440 0093 00       		.byte	0
 441 0094 00       		.byte	0
 442 0095 00       		.byte	0
 443 0096 00       		.byte	0
 444 0097 00       		.byte	0
 445 0098 00       		.byte	0
 446 0099 00       		.byte	0
 447 009a 00       		.byte	0
 448 009b 00       		.byte	0
 449 009c 00       		.byte	0
 450 009d 00       		.byte	0
 451 009e 00       		.byte	0
 452 009f 00       		.byte	0
 453 00a0 00       		.byte	0
 454 00a1 00       		.byte	0
 455 00a2 00       		.byte	0
 456 00a3 00       		.byte	0
 457 00a4 00       		.byte	0
 458 00a5 00       		.byte	0
 459 00a6 00       		.byte	0
ARM GAS  C:\Users\Tymek\AppData\Local\Temp\ccpPNbJV.s 			page 14


 460 00a7 00       		.byte	0
 461 00a8 00       		.byte	0
 462 00a9 00       		.byte	0
 463 00aa 00       		.byte	0
 464 00ab 00       		.byte	0
 465 00ac 00       		.byte	0
 466 00ad 00       		.byte	0
 467 00ae 00       		.byte	0
 468 00af 00       		.byte	0
 469 00b0 00       		.byte	0
 470 00b1 00       		.byte	0
 471 00b2 00       		.byte	0
 472 00b3 00       		.byte	0
 473 00b4 00       		.byte	0
 474 00b5 00       		.byte	0
 475 00b6 00       		.byte	0
 476 00b7 00       		.byte	0
 477 00b8 00       		.byte	0
 478 00b9 00       		.byte	0
 479 00ba 00       		.byte	0
 480 00bb 00       		.byte	0
 481 00bc 00       		.byte	0
 482 00bd 00       		.byte	0
 483 00be 00       		.byte	0
 484 00bf 00       		.byte	0
 485 00c0 00       		.byte	0
 486 00c1 00       		.byte	0
 487 00c2 00       		.byte	0
 488 00c3 00       		.byte	0
 489 00c4 00       		.byte	0
 490 00c5 00       		.byte	0
 491 00c6 00       		.byte	0
 492 00c7 00       		.byte	0
 493 00c8 00       		.byte	0
 494 00c9 00       		.byte	0
 495 00ca 00       		.byte	0
 496 00cb 00       		.byte	0
 497 00cc 00       		.byte	0
 498 00cd 00       		.byte	0
 499 00ce 00       		.byte	0
 500 00cf 00       		.byte	0
 501 00d0 00       		.byte	0
 502 00d1 00       		.byte	0
 503 00d2 00       		.byte	0
 504 00d3 00       		.byte	0
 505 00d4 00       		.byte	0
 506 00d5 00       		.byte	0
 507 00d6 00       		.byte	0
 508 00d7 00       		.byte	0
 509 00d8 00       		.byte	0
 510 00d9 00       		.byte	0
 511 00da 00       		.byte	0
 512 00db 00       		.byte	0
 513 00dc 00       		.byte	0
 514 00dd 00       		.byte	0
 515 00de 00       		.byte	0
 516 00df 00       		.byte	0
ARM GAS  C:\Users\Tymek\AppData\Local\Temp\ccpPNbJV.s 			page 15


 517 00e0 00       		.byte	0
 518 00e1 00       		.byte	0
 519 00e2 00       		.byte	0
 520 00e3 00       		.byte	0
 521 00e4 00       		.byte	0
 522 00e5 00       		.byte	0
 523 00e6 00       		.byte	0
 524 00e7 00       		.byte	0
 525 00e8 00       		.byte	0
 526 00e9 00       		.byte	0
 527 00ea 00       		.byte	0
 528 00eb 00       		.byte	0
 529 00ec 00       		.byte	0
 530 00ed 00       		.byte	0
 531 00ee 00       		.byte	0
 532 00ef 00       		.byte	0
 533 00f0 00       		.byte	0
 534 00f1 00       		.byte	0
 535 00f2 00       		.byte	0
 536 00f3 00       		.byte	0
 537 00f4 00       		.byte	0
 538 00f5 00       		.byte	0
 539 00f6 00       		.byte	0
 540 00f7 00       		.byte	0
 541 00f8 00       		.byte	0
 542 00f9 00       		.byte	0
 543 00fa 00       		.byte	0
 544 00fb 00       		.byte	0
 545 00fc 00       		.byte	0
 546 00fd 00       		.byte	0
 547 00fe 00       		.byte	0
 548 00ff 00       		.byte	0
 549 0100 00       		.byte	0
 550 0101 00       		.byte	0
 551 0102 00       		.byte	0
 552 0103 00       		.byte	0
 553 0104 00       		.byte	0
 554 0105 00       		.byte	0
 555 0106 00       		.byte	0
 556 0107 00       		.byte	0
 557 0108 00       		.byte	0
 558 0109 00       		.byte	0
 559 010a 00       		.byte	0
 560 010b 00       		.byte	0
 561 010c 00       		.byte	0
 562 010d 00       		.byte	0
 563 010e 00       		.byte	0
 564 010f 00       		.byte	0
 565 0110 00       		.byte	0
 566 0111 00       		.byte	0
 567 0112 00       		.byte	0
 568 0113 00       		.byte	0
 569 0114 00       		.byte	0
 570 0115 00       		.byte	0
 571 0116 00       		.byte	0
 572 0117 00       		.byte	0
 573 0118 00       		.byte	0
ARM GAS  C:\Users\Tymek\AppData\Local\Temp\ccpPNbJV.s 			page 16


 574 0119 00       		.byte	0
 575 011a 00       		.byte	0
 576 011b 00       		.byte	0
 577 011c 00       		.byte	0
 578 011d 00       		.byte	0
 579 011e 00       		.byte	0
 580 011f 00       		.byte	0
 581 0120 00       		.byte	0
 582 0121 00       		.byte	0
 583 0122 00       		.byte	0
 584 0123 00       		.byte	0
 585 0124 00       		.byte	0
 586 0125 00       		.byte	0
 587 0126 00       		.byte	0
 588 0127 00       		.byte	0
 589 0128 00       		.byte	0
 590 0129 00       		.byte	0
 591 012a 00       		.byte	0
 592 012b 00       		.byte	0
 593 012c 00       		.byte	0
 594 012d 00       		.byte	0
 595 012e 00       		.byte	0
 596 012f 00       		.byte	0
 597 0130 00       		.byte	0
 598 0131 00       		.byte	0
 599 0132 00       		.byte	0
 600 0133 00       		.byte	0
 601 0134 00       		.byte	0
 602 0135 00       		.byte	0
 603 0136 00       		.byte	0
 604 0137 00       		.byte	0
 605 0138 00       		.byte	0
 606 0139 00       		.byte	0
 607 013a 00       		.byte	0
 608 013b 00       		.byte	0
 609 013c 00       		.byte	0
 610 013d 00       		.byte	0
 611 013e 00       		.byte	0
 612 013f 00       		.byte	0
 613 0140 00       		.byte	0
 614 0141 00       		.byte	0
 615 0142 00       		.byte	0
 616 0143 00       		.byte	0
 617 0144 00       		.byte	0
 618 0145 00       		.byte	0
 619 0146 00       		.byte	0
 620 0147 00       		.byte	0
 621 0148 00       		.byte	0
 622 0149 00       		.byte	0
 623 014a 00       		.byte	0
 624 014b 00       		.byte	0
 625 014c 00       		.byte	0
 626 014d 00       		.byte	0
 627 014e 00       		.byte	0
 628 014f 00       		.byte	0
 629 0150 00       		.byte	0
 630 0151 00       		.byte	0
ARM GAS  C:\Users\Tymek\AppData\Local\Temp\ccpPNbJV.s 			page 17


 631 0152 00       		.byte	0
 632 0153 00       		.byte	0
 633 0154 00       		.byte	0
 634 0155 00       		.byte	0
 635 0156 00       		.byte	0
 636 0157 00       		.byte	0
 637 0158 00       		.byte	0
 638 0159 00       		.byte	0
 639 015a 00       		.byte	0
 640 015b 00       		.byte	0
 641 015c 00       		.byte	0
 642 015d 00       		.byte	0
 643 015e 00       		.byte	0
 644 015f 00       		.byte	0
 645 0160 00       		.byte	0
 646 0161 00       		.byte	0
 647 0162 00       		.byte	0
 648 0163 00       		.byte	0
 649 0164 00       		.byte	0
 650 0165 00       		.byte	0
 651 0166 00       		.byte	0
 652 0167 00       		.byte	0
 653 0168 00       		.byte	0
 654 0169 00       		.byte	0
 655 016a 00       		.byte	0
 656 016b 00       		.byte	0
 657 016c 00       		.byte	0
 658 016d 00       		.byte	0
 659 016e 00       		.byte	0
 660 016f 00       		.byte	0
 661 0170 00       		.byte	0
 662 0171 00       		.byte	0
 663 0172 00       		.byte	0
 664 0173 00       		.byte	0
 665              		.text
 666              	.Letext0:
 667              		.file 2 "Generated_Source\\PSoC4\\cytypes.h"
 668              		.file 3 "Generated_Source\\PSoC4\\CyBle_Stack.h"
 669              		.file 4 "Generated_Source\\PSoC4\\CyBle_StackGatt.h"
 670              		.file 5 "Generated_Source\\PSoC4\\CyBle_StackGattServer.h"
 671              		.file 6 "Generated_Source\\PSoC4\\CyBle_StackGattDb.h"
 672              		.file 7 "Generated_Source\\PSoC4\\CyBle.h"
 673              		.file 8 "Generated_Source\\PSoC4\\CyBle_gatt.h"
 674              		.file 9 "Generated_Source\\PSoC4\\CyBle_eventHandler.h"