ARM GAS  C:\Users\Tymek\AppData\Local\Temp\ccJhKwfb.s 			page 1


   1              		.syntax unified
   2              		.cpu cortex-m0
   3              		.fpu softvfp
   4              		.eabi_attribute 20, 1
   5              		.eabi_attribute 21, 1
   6              		.eabi_attribute 23, 3
   7              		.eabi_attribute 24, 1
   8              		.eabi_attribute 25, 1
   9              		.eabi_attribute 26, 1
  10              		.eabi_attribute 30, 1
  11              		.eabi_attribute 34, 0
  12              		.eabi_attribute 18, 4
  13              		.thumb
  14              		.syntax unified
  15              		.file	"CyBle_eventHandler.c"
  16              		.text
  17              	.Ltext0:
  18              		.cfi_sections	.debug_frame
  19              		.section	.text.CyBle_GattDisconnectEventHandler,"ax",%progbits
  20              		.align	2
  21              		.code	16
  22              		.thumb_func
  23              		.type	CyBle_GattDisconnectEventHandler, %function
  24              	CyBle_GattDisconnectEventHandler:
  25              	.LFB4:
  26              		.file 1 "Generated_Source\\PSoC4\\CyBle_eventHandler.c"
   1:Generated_Source\PSoC4/CyBle_eventHandler.c **** /***************************************************************************//**
   2:Generated_Source\PSoC4/CyBle_eventHandler.c **** * \file CYBLE_eventHandler.c
   3:Generated_Source\PSoC4/CyBle_eventHandler.c **** * \version 3.40
   4:Generated_Source\PSoC4/CyBle_eventHandler.c **** * 
   5:Generated_Source\PSoC4/CyBle_eventHandler.c **** * \brief
   6:Generated_Source\PSoC4/CyBle_eventHandler.c **** *  This file contains the source code for the Event Handler State Machine
   7:Generated_Source\PSoC4/CyBle_eventHandler.c **** *  of the BLE Component.
   8:Generated_Source\PSoC4/CyBle_eventHandler.c **** * 
   9:Generated_Source\PSoC4/CyBle_eventHandler.c **** ********************************************************************************
  10:Generated_Source\PSoC4/CyBle_eventHandler.c **** * \copyright
  11:Generated_Source\PSoC4/CyBle_eventHandler.c **** * Copyright 2014-2016, Cypress Semiconductor Corporation.  All rights reserved.
  12:Generated_Source\PSoC4/CyBle_eventHandler.c **** * You may use this file only in accordance with the license, terms, conditions,
  13:Generated_Source\PSoC4/CyBle_eventHandler.c **** * disclaimers, and limitations in the end user license agreement accompanying
  14:Generated_Source\PSoC4/CyBle_eventHandler.c **** * the software package with which this file was provided.
  15:Generated_Source\PSoC4/CyBle_eventHandler.c **** *******************************************************************************/
  16:Generated_Source\PSoC4/CyBle_eventHandler.c **** 
  17:Generated_Source\PSoC4/CyBle_eventHandler.c **** #include "CyBle_eventHandler.h"
  18:Generated_Source\PSoC4/CyBle_eventHandler.c **** 
  19:Generated_Source\PSoC4/CyBle_eventHandler.c **** 
  20:Generated_Source\PSoC4/CyBle_eventHandler.c **** /***************************************
  21:Generated_Source\PSoC4/CyBle_eventHandler.c **** * Private Function Prototypes
  22:Generated_Source\PSoC4/CyBle_eventHandler.c **** ***************************************/
  23:Generated_Source\PSoC4/CyBle_eventHandler.c **** 
  24:Generated_Source\PSoC4/CyBle_eventHandler.c **** static void CyBle_GattDisconnectEventHandler(void);
  25:Generated_Source\PSoC4/CyBle_eventHandler.c **** static void CyBle_TimeOutEventHandler(const CYBLE_TO_REASON_CODE_T *eventParam);
  26:Generated_Source\PSoC4/CyBle_eventHandler.c **** static void CyBle_GattConnectReqHandler(void);
  27:Generated_Source\PSoC4/CyBle_eventHandler.c **** static void CyBle_L2Cap_ConnParamUpdateRspEventHandler(uint16 response);
  28:Generated_Source\PSoC4/CyBle_eventHandler.c **** static void CyBle_GapConnUpdateCompleteEventHandler(const CYBLE_GAP_CONN_PARAM_UPDATED_IN_CONTROLLE
  29:Generated_Source\PSoC4/CyBle_eventHandler.c **** 
  30:Generated_Source\PSoC4/CyBle_eventHandler.c **** 
  31:Generated_Source\PSoC4/CyBle_eventHandler.c **** #if (CYBLE_GATT_ROLE_SERVER)
ARM GAS  C:\Users\Tymek\AppData\Local\Temp\ccJhKwfb.s 			page 2


  32:Generated_Source\PSoC4/CyBle_eventHandler.c **** 
  33:Generated_Source\PSoC4/CyBle_eventHandler.c **** static void CyBle_WriteReqHandler(CYBLE_GATTS_WRITE_REQ_PARAM_T *eventParam);
  34:Generated_Source\PSoC4/CyBle_eventHandler.c **** static void CyBle_ValueConfirmation(const CYBLE_CONN_HANDLE_T *eventParam);
  35:Generated_Source\PSoC4/CyBle_eventHandler.c **** 
  36:Generated_Source\PSoC4/CyBle_eventHandler.c **** #endif /* CYBLE_GATT_ROLE_SERVER */
  37:Generated_Source\PSoC4/CyBle_eventHandler.c **** 
  38:Generated_Source\PSoC4/CyBle_eventHandler.c **** #if (CYBLE_GATT_ROLE_CLIENT)
  39:Generated_Source\PSoC4/CyBle_eventHandler.c **** 
  40:Generated_Source\PSoC4/CyBle_eventHandler.c **** static void CyBle_GapcDiscoverCharacteristicsEventHandler(CYBLE_DISC_CHAR_INFO_T *discCharInfo);
  41:Generated_Source\PSoC4/CyBle_eventHandler.c **** static CYBLE_GATT_ATTR_HANDLE_RANGE_T CyBle_GetCharRange(void);
  42:Generated_Source\PSoC4/CyBle_eventHandler.c **** static void CyBle_GattcWriteResponseEventHandler(const CYBLE_CONN_HANDLE_T *eventParam);
  43:Generated_Source\PSoC4/CyBle_eventHandler.c **** static void CyBle_NotificationEventHandler(CYBLE_GATTC_HANDLE_VALUE_NTF_PARAM_T *eventParam);
  44:Generated_Source\PSoC4/CyBle_eventHandler.c **** static void CyBle_IndicationEventHandler(CYBLE_GATTC_HANDLE_VALUE_IND_PARAM_T *eventParam);
  45:Generated_Source\PSoC4/CyBle_eventHandler.c **** static void CyBle_ReadResponseEventHandler(CYBLE_GATTC_READ_RSP_PARAM_T *eventParam);
  46:Generated_Source\PSoC4/CyBle_eventHandler.c **** static void CyBle_ReadMultipleResponseEventHandler(CYBLE_GATTC_READ_RSP_PARAM_T *eventParam);
  47:Generated_Source\PSoC4/CyBle_eventHandler.c **** 
  48:Generated_Source\PSoC4/CyBle_eventHandler.c **** #endif /* CYBLE_GATT_ROLE_CLIENT */
  49:Generated_Source\PSoC4/CyBle_eventHandler.c **** 
  50:Generated_Source\PSoC4/CyBle_eventHandler.c **** 
  51:Generated_Source\PSoC4/CyBle_eventHandler.c **** /***************************************
  52:Generated_Source\PSoC4/CyBle_eventHandler.c **** * Global Variables
  53:Generated_Source\PSoC4/CyBle_eventHandler.c **** ***************************************/
  54:Generated_Source\PSoC4/CyBle_eventHandler.c **** 
  55:Generated_Source\PSoC4/CyBle_eventHandler.c **** /* This global variable is initialized after connection with peer device, 
  56:Generated_Source\PSoC4/CyBle_eventHandler.c ****    after CYBLE_EVT_GATT_CONNECT_IND event, and could be used by application code
  57:Generated_Source\PSoC4/CyBle_eventHandler.c ****    to send data to peer device. 
  58:Generated_Source\PSoC4/CyBle_eventHandler.c **** */
  59:Generated_Source\PSoC4/CyBle_eventHandler.c **** CYBLE_CONN_HANDLE_T cyBle_connHandle;
  60:Generated_Source\PSoC4/CyBle_eventHandler.c **** 
  61:Generated_Source\PSoC4/CyBle_eventHandler.c **** volatile uint8 cyBle_eventHandlerFlag;
  62:Generated_Source\PSoC4/CyBle_eventHandler.c **** volatile uint8 cyBle_busyStatus;
  63:Generated_Source\PSoC4/CyBle_eventHandler.c **** 
  64:Generated_Source\PSoC4/CyBle_eventHandler.c **** const CYBLE_GAPS_T cyBle_gaps =
  65:Generated_Source\PSoC4/CyBle_eventHandler.c **** {
  66:Generated_Source\PSoC4/CyBle_eventHandler.c ****     0x0001u,    /* Handle of the GAP service */
  67:Generated_Source\PSoC4/CyBle_eventHandler.c ****     0x0003u,    /* Handle of the Device Name characteristic */
  68:Generated_Source\PSoC4/CyBle_eventHandler.c ****     0x0005u,    /* Handle of the Appearance characteristic */
  69:Generated_Source\PSoC4/CyBle_eventHandler.c ****     0x0007u,    /* Handle of the Peripheral Preferred Connection Parameters characteristic */
  70:Generated_Source\PSoC4/CyBle_eventHandler.c ****     CYBLE_GATT_INVALID_ATTR_HANDLE_VALUE, /* Handle of the Central Address Resolution characteristi
  71:Generated_Source\PSoC4/CyBle_eventHandler.c ****     CYBLE_GATT_INVALID_ATTR_HANDLE_VALUE, /* Handle of the Resolvable Private Address Only characte
  72:Generated_Source\PSoC4/CyBle_eventHandler.c **** };
  73:Generated_Source\PSoC4/CyBle_eventHandler.c **** 
  74:Generated_Source\PSoC4/CyBle_eventHandler.c **** 
  75:Generated_Source\PSoC4/CyBle_eventHandler.c **** #if(CYBLE_GAP_ROLE_PERIPHERAL || CYBLE_GAP_ROLE_BROADCASTER) 
  76:Generated_Source\PSoC4/CyBle_eventHandler.c ****     uint8 cyBle_advertisingIntervalType;
  77:Generated_Source\PSoC4/CyBle_eventHandler.c **** #endif /* CYBLE_GAP_ROLE_PERIPHERAL || CYBLE_GAP_ROLE_BROADCASTER) */
  78:Generated_Source\PSoC4/CyBle_eventHandler.c **** 
  79:Generated_Source\PSoC4/CyBle_eventHandler.c **** #if(CYBLE_GAP_ROLE_CENTRAL || CYBLE_GAP_ROLE_OBSERVER) 
  80:Generated_Source\PSoC4/CyBle_eventHandler.c ****     uint8 cyBle_scanningIntervalType;
  81:Generated_Source\PSoC4/CyBle_eventHandler.c **** #endif /* CYBLE_GAP_ROLE_CENTRAL || CYBLE_GAP_ROLE_OBSERVER */
  82:Generated_Source\PSoC4/CyBle_eventHandler.c **** 
  83:Generated_Source\PSoC4/CyBle_eventHandler.c **** #if(CYBLE_GATT_ROLE_SERVER)
  84:Generated_Source\PSoC4/CyBle_eventHandler.c **** #if defined CYBLE_CTS_SERVER || defined CYBLE_ESS_SERVER
  85:Generated_Source\PSoC4/CyBle_eventHandler.c **** CYBLE_GATT_ERR_CODE_T cyBle_gattError;
  86:Generated_Source\PSoC4/CyBle_eventHandler.c **** #endif /* defined CYBLE_CTS_SERVER || defined CYBLE_ESS_SERVER */
  87:Generated_Source\PSoC4/CyBle_eventHandler.c **** #endif /* CYBLE_GATT_ROLE_SERVER */
  88:Generated_Source\PSoC4/CyBle_eventHandler.c **** 
ARM GAS  C:\Users\Tymek\AppData\Local\Temp\ccJhKwfb.s 			page 3


  89:Generated_Source\PSoC4/CyBle_eventHandler.c **** #if(CYBLE_GATT_ROLE_CLIENT)
  90:Generated_Source\PSoC4/CyBle_eventHandler.c **** uint8 cyBle_disCount; /* Counter for discovery procedures */
  91:Generated_Source\PSoC4/CyBle_eventHandler.c **** 
  92:Generated_Source\PSoC4/CyBle_eventHandler.c **** #ifdef CYBLE_CUSTOM_CLIENT
  93:Generated_Source\PSoC4/CyBle_eventHandler.c **** /* Discovery included service information, used for 128-bit UUID read response handle 
  94:Generated_Source\PSoC4/CyBle_eventHandler.c ****    and for continue discovery. 
  95:Generated_Source\PSoC4/CyBle_eventHandler.c **** */
  96:Generated_Source\PSoC4/CyBle_eventHandler.c **** static CYBLE_DISC_INCL_INFO_T cyBle_discInclInfo;
  97:Generated_Source\PSoC4/CyBle_eventHandler.c **** #endif /* CYBLE_CUSTOM_CLIENT */
  98:Generated_Source\PSoC4/CyBle_eventHandler.c **** 
  99:Generated_Source\PSoC4/CyBle_eventHandler.c **** #ifdef CYBLE_HIDS_CLIENT
 100:Generated_Source\PSoC4/CyBle_eventHandler.c ****     static uint8 disServiceIndex;      /* To discovery descriptors for multiple HID service instanc
 101:Generated_Source\PSoC4/CyBle_eventHandler.c **** #endif /* CYBLE_HIDS_CLIENT */
 102:Generated_Source\PSoC4/CyBle_eventHandler.c **** 
 103:Generated_Source\PSoC4/CyBle_eventHandler.c **** CYBLE_DISC_SRVC_INFO_T cyBle_serverInfo[CYBLE_SRVI_COUNT] = /*3*/
 104:Generated_Source\PSoC4/CyBle_eventHandler.c **** {
 105:Generated_Source\PSoC4/CyBle_eventHandler.c ****     {{CYBLE_GATT_INVALID_ATTR_HANDLE_VALUE, CYBLE_GATT_INVALID_ATTR_HANDLE_VALUE}, CYBLE_UUID_GAP_S
 106:Generated_Source\PSoC4/CyBle_eventHandler.c ****     {{CYBLE_GATT_INVALID_ATTR_HANDLE_VALUE, CYBLE_GATT_INVALID_ATTR_HANDLE_VALUE}, CYBLE_UUID_GATT_
 107:Generated_Source\PSoC4/CyBle_eventHandler.c **** #ifdef CYBLE_AIOS_CLIENT
 108:Generated_Source\PSoC4/CyBle_eventHandler.c ****     {{CYBLE_GATT_INVALID_ATTR_HANDLE_VALUE, CYBLE_GATT_INVALID_ATTR_HANDLE_VALUE}, CYBLE_UUID_AUTOM
 109:Generated_Source\PSoC4/CyBle_eventHandler.c **** #endif /* CYBLE_BCS_CLIENT */
 110:Generated_Source\PSoC4/CyBle_eventHandler.c **** #ifdef CYBLE_ANCS_CLIENT
 111:Generated_Source\PSoC4/CyBle_eventHandler.c ****     {{CYBLE_GATT_INVALID_ATTR_HANDLE_VALUE, CYBLE_GATT_INVALID_ATTR_HANDLE_VALUE}, 0x0000u},
 112:Generated_Source\PSoC4/CyBle_eventHandler.c **** #endif /* CYBLE_ANCS_CLIENT */
 113:Generated_Source\PSoC4/CyBle_eventHandler.c **** #ifdef CYBLE_ANS_CLIENT
 114:Generated_Source\PSoC4/CyBle_eventHandler.c ****     {{CYBLE_GATT_INVALID_ATTR_HANDLE_VALUE, CYBLE_GATT_INVALID_ATTR_HANDLE_VALUE}, 
 115:Generated_Source\PSoC4/CyBle_eventHandler.c ****         CYBLE_UUID_ALERT_NOTIFICATION_SERVICE},
 116:Generated_Source\PSoC4/CyBle_eventHandler.c **** #endif /* CYBLE_ANS_CLIENT */
 117:Generated_Source\PSoC4/CyBle_eventHandler.c **** #ifdef CYBLE_BAS_CLIENT
 118:Generated_Source\PSoC4/CyBle_eventHandler.c ****     {{CYBLE_GATT_INVALID_ATTR_HANDLE_VALUE, CYBLE_GATT_INVALID_ATTR_HANDLE_VALUE}, CYBLE_UUID_BAS_S
 119:Generated_Source\PSoC4/CyBle_eventHandler.c ****     #if(CYBLE_BASC_SERVICE_COUNT > 1u) /* Generate it by GUI */
 120:Generated_Source\PSoC4/CyBle_eventHandler.c ****         
 121:Generated_Source\PSoC4/CyBle_eventHandler.c ****     #endif /* CYBLE_BASC_SERVICE_COUNT > 1u */
 122:Generated_Source\PSoC4/CyBle_eventHandler.c **** #endif /* CYBLE_BAS_CLIENT */
 123:Generated_Source\PSoC4/CyBle_eventHandler.c **** #ifdef CYBLE_BCS_CLIENT
 124:Generated_Source\PSoC4/CyBle_eventHandler.c ****     {{CYBLE_GATT_INVALID_ATTR_HANDLE_VALUE, CYBLE_GATT_INVALID_ATTR_HANDLE_VALUE}, CYBLE_UUID_BODY_
 125:Generated_Source\PSoC4/CyBle_eventHandler.c **** #endif /* CYBLE_BCS_CLIENT */
 126:Generated_Source\PSoC4/CyBle_eventHandler.c **** #ifdef CYBLE_BLS_CLIENT
 127:Generated_Source\PSoC4/CyBle_eventHandler.c ****     {{CYBLE_GATT_INVALID_ATTR_HANDLE_VALUE, CYBLE_GATT_INVALID_ATTR_HANDLE_VALUE}, CYBLE_UUID_BLOOD
 128:Generated_Source\PSoC4/CyBle_eventHandler.c **** #endif /* CYBLE_BLS_CLIENT */
 129:Generated_Source\PSoC4/CyBle_eventHandler.c **** #ifdef CYBLE_BMS_CLIENT
 130:Generated_Source\PSoC4/CyBle_eventHandler.c ****     {{CYBLE_GATT_INVALID_ATTR_HANDLE_VALUE, CYBLE_GATT_INVALID_ATTR_HANDLE_VALUE}, CYBLE_UUID_BOND_
 131:Generated_Source\PSoC4/CyBle_eventHandler.c **** #endif /* CYBLE_BMS_CLIENT */
 132:Generated_Source\PSoC4/CyBle_eventHandler.c **** #ifdef CYBLE_CGMS_CLIENT
 133:Generated_Source\PSoC4/CyBle_eventHandler.c ****     {{CYBLE_GATT_INVALID_ATTR_HANDLE_VALUE, CYBLE_GATT_INVALID_ATTR_HANDLE_VALUE}, CYBLE_UUID_CGM_S
 134:Generated_Source\PSoC4/CyBle_eventHandler.c **** #endif /* CYBLE_CGMS_CLIENT */
 135:Generated_Source\PSoC4/CyBle_eventHandler.c **** #ifdef CYBLE_CPS_CLIENT
 136:Generated_Source\PSoC4/CyBle_eventHandler.c ****     {{CYBLE_GATT_INVALID_ATTR_HANDLE_VALUE, CYBLE_GATT_INVALID_ATTR_HANDLE_VALUE}, CYBLE_UUID_CPS_S
 137:Generated_Source\PSoC4/CyBle_eventHandler.c **** #endif /* CYBLE_CPS_CLIENT */
 138:Generated_Source\PSoC4/CyBle_eventHandler.c **** #ifdef CYBLE_CSCS_CLIENT
 139:Generated_Source\PSoC4/CyBle_eventHandler.c ****     {{CYBLE_GATT_INVALID_ATTR_HANDLE_VALUE, CYBLE_GATT_INVALID_ATTR_HANDLE_VALUE}, 
 140:Generated_Source\PSoC4/CyBle_eventHandler.c ****         CYBLE_UUID_CYCLING_SPEED_AND_CADENCE_SERVICE},
 141:Generated_Source\PSoC4/CyBle_eventHandler.c **** #endif /* CYBLE_CSCS_CLIENT */
 142:Generated_Source\PSoC4/CyBle_eventHandler.c **** #ifdef CYBLE_CTS_CLIENT
 143:Generated_Source\PSoC4/CyBle_eventHandler.c ****     {{CYBLE_GATT_INVALID_ATTR_HANDLE_VALUE, CYBLE_GATT_INVALID_ATTR_HANDLE_VALUE}, CYBLE_UUID_CURRE
 144:Generated_Source\PSoC4/CyBle_eventHandler.c **** #endif /* CYBLE_CTS_CLIENT */
 145:Generated_Source\PSoC4/CyBle_eventHandler.c **** #ifdef CYBLE_CUSTOM_CLIENT
ARM GAS  C:\Users\Tymek\AppData\Local\Temp\ccJhKwfb.s 			page 4


 146:Generated_Source\PSoC4/CyBle_eventHandler.c ****     
 147:Generated_Source\PSoC4/CyBle_eventHandler.c **** #endif /* CYBLE_CUSTOM_CLIENT */
 148:Generated_Source\PSoC4/CyBle_eventHandler.c **** #ifdef CYBLE_DIS_CLIENT
 149:Generated_Source\PSoC4/CyBle_eventHandler.c ****     {{CYBLE_GATT_INVALID_ATTR_HANDLE_VALUE, CYBLE_GATT_INVALID_ATTR_HANDLE_VALUE}, CYBLE_UUID_DEVIC
 150:Generated_Source\PSoC4/CyBle_eventHandler.c **** #endif /* CYBLE_DIS_CLIENT */
 151:Generated_Source\PSoC4/CyBle_eventHandler.c **** #ifdef CYBLE_ESS_CLIENT
 152:Generated_Source\PSoC4/CyBle_eventHandler.c ****     {{CYBLE_GATT_INVALID_ATTR_HANDLE_VALUE, CYBLE_GATT_INVALID_ATTR_HANDLE_VALUE}, 
 153:Generated_Source\PSoC4/CyBle_eventHandler.c ****         CYBLE_UUID_ENVIRONMENTAL_SENSING_SERVICE},
 154:Generated_Source\PSoC4/CyBle_eventHandler.c **** #endif /* CYBLE_ESS_CLIENT */
 155:Generated_Source\PSoC4/CyBle_eventHandler.c **** #ifdef CYBLE_GLS_CLIENT
 156:Generated_Source\PSoC4/CyBle_eventHandler.c ****     {{CYBLE_GATT_INVALID_ATTR_HANDLE_VALUE, CYBLE_GATT_INVALID_ATTR_HANDLE_VALUE}, CYBLE_UUID_GLUCO
 157:Generated_Source\PSoC4/CyBle_eventHandler.c **** #endif /* CYBLE_GLS_CLIENT */
 158:Generated_Source\PSoC4/CyBle_eventHandler.c **** #ifdef CYBLE_HIDS_CLIENT
 159:Generated_Source\PSoC4/CyBle_eventHandler.c ****     {{CYBLE_GATT_INVALID_ATTR_HANDLE_VALUE, CYBLE_GATT_INVALID_ATTR_HANDLE_VALUE}, CYBLE_UUID_HIDS_
 160:Generated_Source\PSoC4/CyBle_eventHandler.c ****     #if(CYBLE_HIDSC_SERVICE_COUNT > 1u) /* Generate it by GUI */
 161:Generated_Source\PSoC4/CyBle_eventHandler.c ****         
 162:Generated_Source\PSoC4/CyBle_eventHandler.c ****     #endif /* CYBLE_HIDSC_SERVICE_COUNT > 1u */
 163:Generated_Source\PSoC4/CyBle_eventHandler.c **** #endif /* CYBLE_HIDS_CLIENT */
 164:Generated_Source\PSoC4/CyBle_eventHandler.c **** #ifdef CYBLE_HPS_CLIENT
 165:Generated_Source\PSoC4/CyBle_eventHandler.c ****     {{CYBLE_GATT_INVALID_ATTR_HANDLE_VALUE, CYBLE_GATT_INVALID_ATTR_HANDLE_VALUE}, CYBLE_UUID_HTTP_
 166:Generated_Source\PSoC4/CyBle_eventHandler.c **** #endif /* CYBLE_HPS_CLIENT */
 167:Generated_Source\PSoC4/CyBle_eventHandler.c **** #ifdef CYBLE_HRS_CLIENT
 168:Generated_Source\PSoC4/CyBle_eventHandler.c ****     {{CYBLE_GATT_INVALID_ATTR_HANDLE_VALUE, CYBLE_GATT_INVALID_ATTR_HANDLE_VALUE}, CYBLE_UUID_HEART
 169:Generated_Source\PSoC4/CyBle_eventHandler.c **** #endif /* CYBLE_HRS_CLIENT */
 170:Generated_Source\PSoC4/CyBle_eventHandler.c **** #ifdef CYBLE_HTS_CLIENT
 171:Generated_Source\PSoC4/CyBle_eventHandler.c ****     {{CYBLE_GATT_INVALID_ATTR_HANDLE_VALUE, CYBLE_GATT_INVALID_ATTR_HANDLE_VALUE}, CYBLE_UUID_HEALT
 172:Generated_Source\PSoC4/CyBle_eventHandler.c **** #endif /* CYBLE_HTS_CLIENT */
 173:Generated_Source\PSoC4/CyBle_eventHandler.c **** #ifdef CYBLE_IAS_CLIENT
 174:Generated_Source\PSoC4/CyBle_eventHandler.c ****     {{CYBLE_GATT_INVALID_ATTR_HANDLE_VALUE, CYBLE_GATT_INVALID_ATTR_HANDLE_VALUE}, CYBLE_UUID_IMMED
 175:Generated_Source\PSoC4/CyBle_eventHandler.c **** #endif /* CYBLE_IAS_CLIENT */
 176:Generated_Source\PSoC4/CyBle_eventHandler.c **** #ifdef CYBLE_IPS_CLIENT
 177:Generated_Source\PSoC4/CyBle_eventHandler.c ****     {{CYBLE_GATT_INVALID_ATTR_HANDLE_VALUE, CYBLE_GATT_INVALID_ATTR_HANDLE_VALUE}, CYBLE_UUID_IPS_S
 178:Generated_Source\PSoC4/CyBle_eventHandler.c **** #endif /* CYBLE_IPS_CLIENT */
 179:Generated_Source\PSoC4/CyBle_eventHandler.c **** #ifdef CYBLE_LLS_CLIENT
 180:Generated_Source\PSoC4/CyBle_eventHandler.c ****     {{CYBLE_GATT_INVALID_ATTR_HANDLE_VALUE, CYBLE_GATT_INVALID_ATTR_HANDLE_VALUE}, CYBLE_UUID_LINK_
 181:Generated_Source\PSoC4/CyBle_eventHandler.c **** #endif /* CYBLE_LLS_CLIENT */
 182:Generated_Source\PSoC4/CyBle_eventHandler.c **** #ifdef CYBLE_LNS_CLIENT
 183:Generated_Source\PSoC4/CyBle_eventHandler.c ****     {{CYBLE_GATT_INVALID_ATTR_HANDLE_VALUE, CYBLE_GATT_INVALID_ATTR_HANDLE_VALUE}, CYBLE_UUID_LOCAT
 184:Generated_Source\PSoC4/CyBle_eventHandler.c **** #endif /* CYBLE_LNS_CLIENT */
 185:Generated_Source\PSoC4/CyBle_eventHandler.c **** #ifdef CYBLE_NDCS_CLIENT
 186:Generated_Source\PSoC4/CyBle_eventHandler.c ****     {{CYBLE_GATT_INVALID_ATTR_HANDLE_VALUE, CYBLE_GATT_INVALID_ATTR_HANDLE_VALUE}, CYBLE_UUID_NEXT_
 187:Generated_Source\PSoC4/CyBle_eventHandler.c **** #endif /* CYBLE_NDCS_CLIENT */
 188:Generated_Source\PSoC4/CyBle_eventHandler.c **** #ifdef CYBLE_IPSS_CLIENT
 189:Generated_Source\PSoC4/CyBle_eventHandler.c ****     {{CYBLE_GATT_INVALID_ATTR_HANDLE_VALUE, CYBLE_GATT_INVALID_ATTR_HANDLE_VALUE}, CYBLE_UUID_INTER
 190:Generated_Source\PSoC4/CyBle_eventHandler.c **** #endif /* CYBLE_IPSS_CLIENT */
 191:Generated_Source\PSoC4/CyBle_eventHandler.c **** #ifdef CYBLE_PASS_CLIENT
 192:Generated_Source\PSoC4/CyBle_eventHandler.c ****     {{CYBLE_GATT_INVALID_ATTR_HANDLE_VALUE, CYBLE_GATT_INVALID_ATTR_HANDLE_VALUE}, CYBLE_UUID_PHONE
 193:Generated_Source\PSoC4/CyBle_eventHandler.c **** #endif /* CYBLE_PASS_CLIENT */
 194:Generated_Source\PSoC4/CyBle_eventHandler.c **** #ifdef CYBLE_PLXS_CLIENT
 195:Generated_Source\PSoC4/CyBle_eventHandler.c ****     {{CYBLE_GATT_INVALID_ATTR_HANDLE_VALUE, CYBLE_GATT_INVALID_ATTR_HANDLE_VALUE}, CYBLE_UUID_PLX_S
 196:Generated_Source\PSoC4/CyBle_eventHandler.c **** #endif /* CYBLE_PLXS_CLIENT */
 197:Generated_Source\PSoC4/CyBle_eventHandler.c **** #ifdef CYBLE_RSCS_CLIENT
 198:Generated_Source\PSoC4/CyBle_eventHandler.c ****     {{CYBLE_GATT_INVALID_ATTR_HANDLE_VALUE, CYBLE_GATT_INVALID_ATTR_HANDLE_VALUE}, CYBLE_UUID_RUNNI
 199:Generated_Source\PSoC4/CyBle_eventHandler.c **** #endif /* CYBLE_RSCS_CLIENT */
 200:Generated_Source\PSoC4/CyBle_eventHandler.c **** #ifdef CYBLE_RTUS_CLIENT
 201:Generated_Source\PSoC4/CyBle_eventHandler.c ****     {{CYBLE_GATT_INVALID_ATTR_HANDLE_VALUE, CYBLE_GATT_INVALID_ATTR_HANDLE_VALUE}, CYBLE_UUID_REF_T
 202:Generated_Source\PSoC4/CyBle_eventHandler.c **** #endif /* CYBLE_RTUS_CLIENT */
ARM GAS  C:\Users\Tymek\AppData\Local\Temp\ccJhKwfb.s 			page 5


 203:Generated_Source\PSoC4/CyBle_eventHandler.c **** #ifdef CYBLE_SCPS_CLIENT
 204:Generated_Source\PSoC4/CyBle_eventHandler.c ****     {{CYBLE_GATT_INVALID_ATTR_HANDLE_VALUE, CYBLE_GATT_INVALID_ATTR_HANDLE_VALUE}, CYBLE_UUID_SCAN_
 205:Generated_Source\PSoC4/CyBle_eventHandler.c **** #endif /* CYBLE_SCPS_CLIENT */
 206:Generated_Source\PSoC4/CyBle_eventHandler.c **** #ifdef CYBLE_TPS_CLIENT
 207:Generated_Source\PSoC4/CyBle_eventHandler.c ****     {{CYBLE_GATT_INVALID_ATTR_HANDLE_VALUE, CYBLE_GATT_INVALID_ATTR_HANDLE_VALUE}, CYBLE_UUID_TX_PO
 208:Generated_Source\PSoC4/CyBle_eventHandler.c **** #endif /* CYBLE_TPS_CLIENT */
 209:Generated_Source\PSoC4/CyBle_eventHandler.c **** #ifdef CYBLE_UDS_CLIENT
 210:Generated_Source\PSoC4/CyBle_eventHandler.c ****     {{CYBLE_GATT_INVALID_ATTR_HANDLE_VALUE, CYBLE_GATT_INVALID_ATTR_HANDLE_VALUE}, CYBLE_UUID_USER_
 211:Generated_Source\PSoC4/CyBle_eventHandler.c **** #endif /* CYBLE_UDS_CLIENT */
 212:Generated_Source\PSoC4/CyBle_eventHandler.c **** #ifdef CYBLE_WSS_CLIENT
 213:Generated_Source\PSoC4/CyBle_eventHandler.c ****     {{CYBLE_GATT_INVALID_ATTR_HANDLE_VALUE, CYBLE_GATT_INVALID_ATTR_HANDLE_VALUE}, CYBLE_UUID_WEIGH
 214:Generated_Source\PSoC4/CyBle_eventHandler.c **** #endif /* CYBLE_WSS_CLIENT */
 215:Generated_Source\PSoC4/CyBle_eventHandler.c **** #ifdef CYBLE_WPTS_CLIENT
 216:Generated_Source\PSoC4/CyBle_eventHandler.c ****     {{CYBLE_GATT_INVALID_ATTR_HANDLE_VALUE, CYBLE_GATT_INVALID_ATTR_HANDLE_VALUE}, CYBLE_UUID_WIREL
 217:Generated_Source\PSoC4/CyBle_eventHandler.c **** #endif /* CYBLE_WPTS_CLIENT */
 218:Generated_Source\PSoC4/CyBle_eventHandler.c **** };
 219:Generated_Source\PSoC4/CyBle_eventHandler.c **** 
 220:Generated_Source\PSoC4/CyBle_eventHandler.c **** CYBLE_GAPC_T cyBle_gapc;
 221:Generated_Source\PSoC4/CyBle_eventHandler.c **** 
 222:Generated_Source\PSoC4/CyBle_eventHandler.c **** #endif /* CYBLE_GATT_ROLE_CLIENT */
 223:Generated_Source\PSoC4/CyBle_eventHandler.c **** 
 224:Generated_Source\PSoC4/CyBle_eventHandler.c **** /* Default device security */
 225:Generated_Source\PSoC4/CyBle_eventHandler.c **** CYBLE_GAP_AUTH_INFO_T cyBle_authInfo =
 226:Generated_Source\PSoC4/CyBle_eventHandler.c **** {
 227:Generated_Source\PSoC4/CyBle_eventHandler.c ****     (CYBLE_GAP_SEC_MODE_1 | CYBLE_GAP_SEC_LEVEL_2 ), /* uint8 security */
 228:Generated_Source\PSoC4/CyBle_eventHandler.c ****     CYBLE_GAP_BONDING_NONE, /* uint8 bonding */
 229:Generated_Source\PSoC4/CyBle_eventHandler.c ****     0x10u,      /* uint8 ekeySize */
 230:Generated_Source\PSoC4/CyBle_eventHandler.c ****     CYBLE_GAP_AUTH_ERROR_NONE, /* CYBLE_AUTH_FAILED_REASON_T authErr */
 231:Generated_Source\PSoC4/CyBle_eventHandler.c ****     0x00u,      /* uint8 pairingProperties */
 232:Generated_Source\PSoC4/CyBle_eventHandler.c **** };
 233:Generated_Source\PSoC4/CyBle_eventHandler.c **** 
 234:Generated_Source\PSoC4/CyBle_eventHandler.c **** #if(CYBLE_GATT_ROLE_SERVER)
 235:Generated_Source\PSoC4/CyBle_eventHandler.c **** 
 236:Generated_Source\PSoC4/CyBle_eventHandler.c **** 
 237:Generated_Source\PSoC4/CyBle_eventHandler.c **** /******************************************************************************    
 238:Generated_Source\PSoC4/CyBle_eventHandler.c **** * Function Name: CyBle_WriteReqHandler
 239:Generated_Source\PSoC4/CyBle_eventHandler.c **** ***************************************************************************//**
 240:Generated_Source\PSoC4/CyBle_eventHandler.c **** * 
 241:Generated_Source\PSoC4/CyBle_eventHandler.c **** *  Handles the Write Request event from BLE stack.
 242:Generated_Source\PSoC4/CyBle_eventHandler.c **** * 
 243:Generated_Source\PSoC4/CyBle_eventHandler.c **** *  CYBLE_GATTS_WRITE_REQ_PARAM_T * eventParam - event parameter
 244:Generated_Source\PSoC4/CyBle_eventHandler.c **** * 
 245:Generated_Source\PSoC4/CyBle_eventHandler.c **** * \return
 246:Generated_Source\PSoC4/CyBle_eventHandler.c **** *  None
 247:Generated_Source\PSoC4/CyBle_eventHandler.c **** * 
 248:Generated_Source\PSoC4/CyBle_eventHandler.c **** ******************************************************************************/
 249:Generated_Source\PSoC4/CyBle_eventHandler.c **** static void CyBle_WriteReqHandler(CYBLE_GATTS_WRITE_REQ_PARAM_T *eventParam)
 250:Generated_Source\PSoC4/CyBle_eventHandler.c **** {
 251:Generated_Source\PSoC4/CyBle_eventHandler.c ****     CYBLE_GATT_ERR_CODE_T gattErr;
 252:Generated_Source\PSoC4/CyBle_eventHandler.c **** #if defined CYBLE_CTS_SERVER || defined CYBLE_ESS_SERVER
 253:Generated_Source\PSoC4/CyBle_eventHandler.c ****     cyBle_gattError = CYBLE_GATT_ERR_NONE;
 254:Generated_Source\PSoC4/CyBle_eventHandler.c **** #endif /* defined CYBLE_CTS_SERVER || defined CYBLE_ESS_SERVER */
 255:Generated_Source\PSoC4/CyBle_eventHandler.c ****     
 256:Generated_Source\PSoC4/CyBle_eventHandler.c ****     gattErr = CyBle_GattsWriteEventHandler(eventParam);
 257:Generated_Source\PSoC4/CyBle_eventHandler.c **** #ifdef CYBLE_AIOS_SERVER
 258:Generated_Source\PSoC4/CyBle_eventHandler.c ****     if(((cyBle_eventHandlerFlag & CYBLE_CALLBACK) != 0u) && (gattErr == CYBLE_GATT_ERR_NONE))
 259:Generated_Source\PSoC4/CyBle_eventHandler.c ****     {
ARM GAS  C:\Users\Tymek\AppData\Local\Temp\ccJhKwfb.s 			page 6


 260:Generated_Source\PSoC4/CyBle_eventHandler.c ****         gattErr = CyBle_AiossWriteEventHandler(eventParam);
 261:Generated_Source\PSoC4/CyBle_eventHandler.c ****     }
 262:Generated_Source\PSoC4/CyBle_eventHandler.c **** #endif /* CYBLE_AIOS_SERVER */
 263:Generated_Source\PSoC4/CyBle_eventHandler.c **** #ifdef CYBLE_ANCS_SERVER
 264:Generated_Source\PSoC4/CyBle_eventHandler.c ****     if(((cyBle_eventHandlerFlag & CYBLE_CALLBACK) != 0u) && (gattErr == CYBLE_GATT_ERR_NONE))
 265:Generated_Source\PSoC4/CyBle_eventHandler.c ****     {
 266:Generated_Source\PSoC4/CyBle_eventHandler.c ****         gattErr = CyBle_AncssWriteEventHandler(eventParam);
 267:Generated_Source\PSoC4/CyBle_eventHandler.c ****     }
 268:Generated_Source\PSoC4/CyBle_eventHandler.c **** #endif /* CYBLE_ANCS_SERVER */
 269:Generated_Source\PSoC4/CyBle_eventHandler.c **** #ifdef CYBLE_ANS_SERVER
 270:Generated_Source\PSoC4/CyBle_eventHandler.c ****     if(((cyBle_eventHandlerFlag & CYBLE_CALLBACK) != 0u) && (gattErr == CYBLE_GATT_ERR_NONE))
 271:Generated_Source\PSoC4/CyBle_eventHandler.c ****     {
 272:Generated_Source\PSoC4/CyBle_eventHandler.c ****         gattErr = CyBle_AnssWriteEventHandler(eventParam);
 273:Generated_Source\PSoC4/CyBle_eventHandler.c ****     }
 274:Generated_Source\PSoC4/CyBle_eventHandler.c **** #endif /* CYBLE_ANS_SERVER */
 275:Generated_Source\PSoC4/CyBle_eventHandler.c **** #ifdef CYBLE_BAS_SERVER
 276:Generated_Source\PSoC4/CyBle_eventHandler.c ****     if(((cyBle_eventHandlerFlag & CYBLE_CALLBACK) != 0u) && (gattErr == CYBLE_GATT_ERR_NONE))
 277:Generated_Source\PSoC4/CyBle_eventHandler.c ****     {
 278:Generated_Source\PSoC4/CyBle_eventHandler.c ****         gattErr = CyBle_BassWriteEventHandler(eventParam);
 279:Generated_Source\PSoC4/CyBle_eventHandler.c ****     }
 280:Generated_Source\PSoC4/CyBle_eventHandler.c **** #endif /* CYBLE_BAS_SERVER */
 281:Generated_Source\PSoC4/CyBle_eventHandler.c **** #ifdef CYBLE_BCS_SERVER
 282:Generated_Source\PSoC4/CyBle_eventHandler.c ****     if(((cyBle_eventHandlerFlag & CYBLE_CALLBACK) != 0u) && (gattErr == CYBLE_GATT_ERR_NONE))
 283:Generated_Source\PSoC4/CyBle_eventHandler.c ****     {
 284:Generated_Source\PSoC4/CyBle_eventHandler.c ****         gattErr = CyBle_BcssWriteEventHandler(eventParam);
 285:Generated_Source\PSoC4/CyBle_eventHandler.c ****     }
 286:Generated_Source\PSoC4/CyBle_eventHandler.c **** #endif /* CYBLE_BCS_SERVER */
 287:Generated_Source\PSoC4/CyBle_eventHandler.c **** #ifdef CYBLE_BLS_SERVER
 288:Generated_Source\PSoC4/CyBle_eventHandler.c ****     if(((cyBle_eventHandlerFlag & CYBLE_CALLBACK) != 0u) && (gattErr == CYBLE_GATT_ERR_NONE))
 289:Generated_Source\PSoC4/CyBle_eventHandler.c ****     {
 290:Generated_Source\PSoC4/CyBle_eventHandler.c ****         gattErr = CyBle_BlssWriteEventHandler(eventParam);
 291:Generated_Source\PSoC4/CyBle_eventHandler.c ****     }
 292:Generated_Source\PSoC4/CyBle_eventHandler.c **** #endif /* CYBLE_BLS_SERVER */
 293:Generated_Source\PSoC4/CyBle_eventHandler.c **** #ifdef CYBLE_BMS_SERVER
 294:Generated_Source\PSoC4/CyBle_eventHandler.c ****     if(((cyBle_eventHandlerFlag & CYBLE_CALLBACK) != 0u) && (gattErr == CYBLE_GATT_ERR_NONE))
 295:Generated_Source\PSoC4/CyBle_eventHandler.c ****     {
 296:Generated_Source\PSoC4/CyBle_eventHandler.c ****         gattErr = CyBle_BmssWriteEventHandler(eventParam);
 297:Generated_Source\PSoC4/CyBle_eventHandler.c ****     }
 298:Generated_Source\PSoC4/CyBle_eventHandler.c **** #endif /* CYBLE_BMS_SERVER */
 299:Generated_Source\PSoC4/CyBle_eventHandler.c **** #ifdef CYBLE_BTS_SERVER
 300:Generated_Source\PSoC4/CyBle_eventHandler.c ****     if((cyBle_eventHandlerFlag & CYBLE_CALLBACK) != 0u)
 301:Generated_Source\PSoC4/CyBle_eventHandler.c ****     {
 302:Generated_Source\PSoC4/CyBle_eventHandler.c ****         gattErr = CyBle_BtsWriteEventHandler(eventParam);
 303:Generated_Source\PSoC4/CyBle_eventHandler.c ****     }
 304:Generated_Source\PSoC4/CyBle_eventHandler.c **** #endif /* CYBLE_BTS_SERVER */
 305:Generated_Source\PSoC4/CyBle_eventHandler.c **** #ifdef CYBLE_CGMS_SERVER
 306:Generated_Source\PSoC4/CyBle_eventHandler.c ****     if(((cyBle_eventHandlerFlag & CYBLE_CALLBACK) != 0u) && (gattErr == CYBLE_GATT_ERR_NONE))
 307:Generated_Source\PSoC4/CyBle_eventHandler.c ****     {
 308:Generated_Source\PSoC4/CyBle_eventHandler.c ****         gattErr = CyBle_CgmssWriteEventHandler(eventParam);
 309:Generated_Source\PSoC4/CyBle_eventHandler.c ****     }
 310:Generated_Source\PSoC4/CyBle_eventHandler.c **** #endif /* CYBLE_CGMS_SERVER */
 311:Generated_Source\PSoC4/CyBle_eventHandler.c **** #ifdef CYBLE_CPS_SERVER
 312:Generated_Source\PSoC4/CyBle_eventHandler.c ****     if(((cyBle_eventHandlerFlag & CYBLE_CALLBACK) != 0u) && (gattErr == CYBLE_GATT_ERR_NONE))
 313:Generated_Source\PSoC4/CyBle_eventHandler.c ****     {
 314:Generated_Source\PSoC4/CyBle_eventHandler.c ****         gattErr = CyBle_CpssWriteEventHandler(eventParam);
 315:Generated_Source\PSoC4/CyBle_eventHandler.c ****     }
 316:Generated_Source\PSoC4/CyBle_eventHandler.c **** #endif /* CYBLE_CPS_SERVER */
ARM GAS  C:\Users\Tymek\AppData\Local\Temp\ccJhKwfb.s 			page 7


 317:Generated_Source\PSoC4/CyBle_eventHandler.c **** #ifdef CYBLE_CSCS_SERVER
 318:Generated_Source\PSoC4/CyBle_eventHandler.c ****     if(((cyBle_eventHandlerFlag & CYBLE_CALLBACK) != 0u) && (gattErr == CYBLE_GATT_ERR_NONE))
 319:Generated_Source\PSoC4/CyBle_eventHandler.c ****     {
 320:Generated_Source\PSoC4/CyBle_eventHandler.c ****         gattErr = CyBle_CscssWriteEventHandler(eventParam);
 321:Generated_Source\PSoC4/CyBle_eventHandler.c ****     }
 322:Generated_Source\PSoC4/CyBle_eventHandler.c **** #endif /* CYBLE_CSCS_SERVER */
 323:Generated_Source\PSoC4/CyBle_eventHandler.c **** #ifdef CYBLE_CTS_SERVER
 324:Generated_Source\PSoC4/CyBle_eventHandler.c ****     if(((cyBle_eventHandlerFlag & CYBLE_CALLBACK) != 0u) && (gattErr == CYBLE_GATT_ERR_NONE))
 325:Generated_Source\PSoC4/CyBle_eventHandler.c ****     {
 326:Generated_Source\PSoC4/CyBle_eventHandler.c ****         gattErr = CyBle_CtssWriteEventHandler(eventParam);
 327:Generated_Source\PSoC4/CyBle_eventHandler.c ****     }
 328:Generated_Source\PSoC4/CyBle_eventHandler.c **** #endif /* CYBLE_CTS_SERVER */
 329:Generated_Source\PSoC4/CyBle_eventHandler.c **** #ifdef CYBLE_ESS_SERVER
 330:Generated_Source\PSoC4/CyBle_eventHandler.c ****     if(((cyBle_eventHandlerFlag & CYBLE_CALLBACK) != 0u) && (gattErr == CYBLE_GATT_ERR_NONE))
 331:Generated_Source\PSoC4/CyBle_eventHandler.c ****     {
 332:Generated_Source\PSoC4/CyBle_eventHandler.c ****         gattErr = CyBle_EsssWriteEventHandler(eventParam);
 333:Generated_Source\PSoC4/CyBle_eventHandler.c ****     }
 334:Generated_Source\PSoC4/CyBle_eventHandler.c **** #endif /* CYBLE_ESS_SERVER */
 335:Generated_Source\PSoC4/CyBle_eventHandler.c **** #ifdef CYBLE_GLS_SERVER
 336:Generated_Source\PSoC4/CyBle_eventHandler.c ****     if(((cyBle_eventHandlerFlag & CYBLE_CALLBACK) != 0u) && (gattErr == CYBLE_GATT_ERR_NONE))
 337:Generated_Source\PSoC4/CyBle_eventHandler.c ****     {
 338:Generated_Source\PSoC4/CyBle_eventHandler.c ****         gattErr = CyBle_GlssWriteEventHandler(eventParam);
 339:Generated_Source\PSoC4/CyBle_eventHandler.c ****     }
 340:Generated_Source\PSoC4/CyBle_eventHandler.c **** #endif /* CYBLE_GLS_SERVER */
 341:Generated_Source\PSoC4/CyBle_eventHandler.c **** #ifdef CYBLE_HIDS_SERVER
 342:Generated_Source\PSoC4/CyBle_eventHandler.c ****     if(((cyBle_eventHandlerFlag & CYBLE_CALLBACK) != 0u) && (gattErr == CYBLE_GATT_ERR_NONE))
 343:Generated_Source\PSoC4/CyBle_eventHandler.c ****     {
 344:Generated_Source\PSoC4/CyBle_eventHandler.c ****         gattErr = CyBle_HidssWriteEventHandler(eventParam);
 345:Generated_Source\PSoC4/CyBle_eventHandler.c ****     }
 346:Generated_Source\PSoC4/CyBle_eventHandler.c **** #endif /* CYBLE_HIDS_SERVER */
 347:Generated_Source\PSoC4/CyBle_eventHandler.c **** #ifdef CYBLE_HPS_SERVER
 348:Generated_Source\PSoC4/CyBle_eventHandler.c ****     if(((cyBle_eventHandlerFlag & CYBLE_CALLBACK) != 0u) && (gattErr == CYBLE_GATT_ERR_NONE))
 349:Generated_Source\PSoC4/CyBle_eventHandler.c ****     {
 350:Generated_Source\PSoC4/CyBle_eventHandler.c ****         gattErr = CyBle_HpssWriteEventHandler(eventParam);
 351:Generated_Source\PSoC4/CyBle_eventHandler.c ****     }
 352:Generated_Source\PSoC4/CyBle_eventHandler.c **** #endif /* CYBLE_HPS_SERVER */
 353:Generated_Source\PSoC4/CyBle_eventHandler.c **** #ifdef CYBLE_HRS_SERVER
 354:Generated_Source\PSoC4/CyBle_eventHandler.c ****     if(((cyBle_eventHandlerFlag & CYBLE_CALLBACK) != 0u) && (gattErr == CYBLE_GATT_ERR_NONE))
 355:Generated_Source\PSoC4/CyBle_eventHandler.c ****     {
 356:Generated_Source\PSoC4/CyBle_eventHandler.c ****         gattErr = CyBle_HrssWriteEventHandler(eventParam);
 357:Generated_Source\PSoC4/CyBle_eventHandler.c ****     }
 358:Generated_Source\PSoC4/CyBle_eventHandler.c **** #endif /* CYBLE_HRS_SERVER */
 359:Generated_Source\PSoC4/CyBle_eventHandler.c **** #ifdef CYBLE_HTS_SERVER
 360:Generated_Source\PSoC4/CyBle_eventHandler.c ****     if(((cyBle_eventHandlerFlag & CYBLE_CALLBACK) != 0u) && (gattErr == CYBLE_GATT_ERR_NONE))
 361:Generated_Source\PSoC4/CyBle_eventHandler.c ****     {
 362:Generated_Source\PSoC4/CyBle_eventHandler.c ****         gattErr = CyBle_HtssWriteEventHandler(eventParam);
 363:Generated_Source\PSoC4/CyBle_eventHandler.c ****     }
 364:Generated_Source\PSoC4/CyBle_eventHandler.c **** #endif /* CYBLE_HTS_SERVER */
 365:Generated_Source\PSoC4/CyBle_eventHandler.c **** #ifdef CYBLE_IPS_SERVER
 366:Generated_Source\PSoC4/CyBle_eventHandler.c ****     if(((cyBle_eventHandlerFlag & CYBLE_CALLBACK) != 0u) && (gattErr == CYBLE_GATT_ERR_NONE))
 367:Generated_Source\PSoC4/CyBle_eventHandler.c ****     {
 368:Generated_Source\PSoC4/CyBle_eventHandler.c ****         gattErr = CyBle_IpssWriteEventHandler(eventParam);
 369:Generated_Source\PSoC4/CyBle_eventHandler.c ****     }
 370:Generated_Source\PSoC4/CyBle_eventHandler.c **** #endif /* CYBLE_IPS_SERVER */
 371:Generated_Source\PSoC4/CyBle_eventHandler.c **** #ifdef CYBLE_LLS_SERVER
 372:Generated_Source\PSoC4/CyBle_eventHandler.c ****     if(((cyBle_eventHandlerFlag & CYBLE_CALLBACK) != 0u) && (gattErr == CYBLE_GATT_ERR_NONE))
 373:Generated_Source\PSoC4/CyBle_eventHandler.c ****     {
ARM GAS  C:\Users\Tymek\AppData\Local\Temp\ccJhKwfb.s 			page 8


 374:Generated_Source\PSoC4/CyBle_eventHandler.c ****         gattErr = CyBle_LlssWriteEventHandler(eventParam);
 375:Generated_Source\PSoC4/CyBle_eventHandler.c ****     }
 376:Generated_Source\PSoC4/CyBle_eventHandler.c **** #endif /* CYBLE_LLS_SERVER */
 377:Generated_Source\PSoC4/CyBle_eventHandler.c **** #ifdef CYBLE_LNS_SERVER
 378:Generated_Source\PSoC4/CyBle_eventHandler.c ****     if(((cyBle_eventHandlerFlag & CYBLE_CALLBACK) != 0u) && (gattErr == CYBLE_GATT_ERR_NONE))
 379:Generated_Source\PSoC4/CyBle_eventHandler.c ****     {
 380:Generated_Source\PSoC4/CyBle_eventHandler.c ****         gattErr = CyBle_LnssWriteEventHandler(eventParam);
 381:Generated_Source\PSoC4/CyBle_eventHandler.c ****     }
 382:Generated_Source\PSoC4/CyBle_eventHandler.c **** #endif /* CYBLE_LNS_SERVER */
 383:Generated_Source\PSoC4/CyBle_eventHandler.c **** #ifdef CYBLE_PASS_SERVER
 384:Generated_Source\PSoC4/CyBle_eventHandler.c ****     if(((cyBle_eventHandlerFlag & CYBLE_CALLBACK) != 0u) && (gattErr == CYBLE_GATT_ERR_NONE))
 385:Generated_Source\PSoC4/CyBle_eventHandler.c ****     {
 386:Generated_Source\PSoC4/CyBle_eventHandler.c ****         gattErr = CyBle_PasssWriteEventHandler(eventParam);
 387:Generated_Source\PSoC4/CyBle_eventHandler.c ****     }
 388:Generated_Source\PSoC4/CyBle_eventHandler.c **** #endif /* CYBLE_PASS_SERVER */
 389:Generated_Source\PSoC4/CyBle_eventHandler.c **** #ifdef CYBLE_PLXS_SERVER
 390:Generated_Source\PSoC4/CyBle_eventHandler.c ****     if(((cyBle_eventHandlerFlag & CYBLE_CALLBACK) != 0u) && (gattErr == CYBLE_GATT_ERR_NONE))
 391:Generated_Source\PSoC4/CyBle_eventHandler.c ****     {
 392:Generated_Source\PSoC4/CyBle_eventHandler.c ****         gattErr = CyBle_PlxssWriteEventHandler(eventParam);
 393:Generated_Source\PSoC4/CyBle_eventHandler.c ****     }
 394:Generated_Source\PSoC4/CyBle_eventHandler.c **** #endif /* CYBLE_PLXS_SERVER */    
 395:Generated_Source\PSoC4/CyBle_eventHandler.c **** #ifdef CYBLE_RSCS_SERVER
 396:Generated_Source\PSoC4/CyBle_eventHandler.c ****     if(((cyBle_eventHandlerFlag & CYBLE_CALLBACK) != 0u) && (gattErr == CYBLE_GATT_ERR_NONE))
 397:Generated_Source\PSoC4/CyBle_eventHandler.c ****     {
 398:Generated_Source\PSoC4/CyBle_eventHandler.c ****         gattErr = CyBle_RscssWriteEventHandler(eventParam);
 399:Generated_Source\PSoC4/CyBle_eventHandler.c ****     }
 400:Generated_Source\PSoC4/CyBle_eventHandler.c **** #endif /* CYBLE_RSCS_SERVER */
 401:Generated_Source\PSoC4/CyBle_eventHandler.c **** #ifdef CYBLE_SCPS_SERVER
 402:Generated_Source\PSoC4/CyBle_eventHandler.c ****     if(((cyBle_eventHandlerFlag & CYBLE_CALLBACK) != 0u) && (gattErr == CYBLE_GATT_ERR_NONE))
 403:Generated_Source\PSoC4/CyBle_eventHandler.c ****     {
 404:Generated_Source\PSoC4/CyBle_eventHandler.c ****         gattErr = CyBle_ScpssWriteEventHandler(eventParam);
 405:Generated_Source\PSoC4/CyBle_eventHandler.c ****     }
 406:Generated_Source\PSoC4/CyBle_eventHandler.c **** #endif /* CYBLE_SCPS_SERVER */
 407:Generated_Source\PSoC4/CyBle_eventHandler.c **** #ifdef CYBLE_TPS_SERVER
 408:Generated_Source\PSoC4/CyBle_eventHandler.c ****     if(((cyBle_eventHandlerFlag & CYBLE_CALLBACK) != 0u) && (gattErr == CYBLE_GATT_ERR_NONE))
 409:Generated_Source\PSoC4/CyBle_eventHandler.c ****     {
 410:Generated_Source\PSoC4/CyBle_eventHandler.c ****         gattErr = CyBle_TpssWriteEventHandler(eventParam);
 411:Generated_Source\PSoC4/CyBle_eventHandler.c ****     }
 412:Generated_Source\PSoC4/CyBle_eventHandler.c **** #endif /* CYBLE_TPS_SERVER */
 413:Generated_Source\PSoC4/CyBle_eventHandler.c **** #ifdef CYBLE_UDS_SERVER
 414:Generated_Source\PSoC4/CyBle_eventHandler.c ****     if(((cyBle_eventHandlerFlag & CYBLE_CALLBACK) != 0u) && (gattErr == CYBLE_GATT_ERR_NONE))
 415:Generated_Source\PSoC4/CyBle_eventHandler.c ****     {
 416:Generated_Source\PSoC4/CyBle_eventHandler.c ****         gattErr = CyBle_UdssWriteEventHandler(eventParam);
 417:Generated_Source\PSoC4/CyBle_eventHandler.c ****     }
 418:Generated_Source\PSoC4/CyBle_eventHandler.c **** #endif /* CYBLE_UDS_SERVER */
 419:Generated_Source\PSoC4/CyBle_eventHandler.c **** #ifdef CYBLE_WPTS_SERVER
 420:Generated_Source\PSoC4/CyBle_eventHandler.c ****     if(((cyBle_eventHandlerFlag & CYBLE_CALLBACK) != 0u) && (gattErr == CYBLE_GATT_ERR_NONE))
 421:Generated_Source\PSoC4/CyBle_eventHandler.c ****     {
 422:Generated_Source\PSoC4/CyBle_eventHandler.c ****         gattErr = CyBle_WptssWriteEventHandler(eventParam);
 423:Generated_Source\PSoC4/CyBle_eventHandler.c ****     }
 424:Generated_Source\PSoC4/CyBle_eventHandler.c **** #endif /* CYBLE_WPTS_SERVER */
 425:Generated_Source\PSoC4/CyBle_eventHandler.c **** #ifdef CYBLE_WSS_SERVER
 426:Generated_Source\PSoC4/CyBle_eventHandler.c ****     if(((cyBle_eventHandlerFlag & CYBLE_CALLBACK) != 0u) && (gattErr == CYBLE_GATT_ERR_NONE))
 427:Generated_Source\PSoC4/CyBle_eventHandler.c ****     {
 428:Generated_Source\PSoC4/CyBle_eventHandler.c ****         gattErr = CyBle_WsssWriteEventHandler(eventParam);
 429:Generated_Source\PSoC4/CyBle_eventHandler.c ****     }
 430:Generated_Source\PSoC4/CyBle_eventHandler.c **** #endif /* CYBLE_WSS_SERVER */
ARM GAS  C:\Users\Tymek\AppData\Local\Temp\ccJhKwfb.s 			page 9


 431:Generated_Source\PSoC4/CyBle_eventHandler.c **** 
 432:Generated_Source\PSoC4/CyBle_eventHandler.c ****     /* Send response when event was handled by service */
 433:Generated_Source\PSoC4/CyBle_eventHandler.c ****     if((cyBle_eventHandlerFlag & CYBLE_CALLBACK) == 0u)
 434:Generated_Source\PSoC4/CyBle_eventHandler.c ****     {
 435:Generated_Source\PSoC4/CyBle_eventHandler.c ****         if(gattErr != CYBLE_GATT_ERR_NONE)
 436:Generated_Source\PSoC4/CyBle_eventHandler.c ****         {
 437:Generated_Source\PSoC4/CyBle_eventHandler.c ****             CYBLE_GATTS_ERR_PARAM_T err_param;
 438:Generated_Source\PSoC4/CyBle_eventHandler.c ****             
 439:Generated_Source\PSoC4/CyBle_eventHandler.c ****             err_param.opcode = (uint8) CYBLE_GATT_WRITE_REQ;
 440:Generated_Source\PSoC4/CyBle_eventHandler.c ****             err_param.attrHandle = eventParam->handleValPair.attrHandle;
 441:Generated_Source\PSoC4/CyBle_eventHandler.c ****             err_param.errorCode = gattErr;
 442:Generated_Source\PSoC4/CyBle_eventHandler.c **** 
 443:Generated_Source\PSoC4/CyBle_eventHandler.c ****             /* Send Error Response */
 444:Generated_Source\PSoC4/CyBle_eventHandler.c ****             (void)CyBle_GattsErrorRsp(eventParam->connHandle, &err_param);
 445:Generated_Source\PSoC4/CyBle_eventHandler.c ****         }
 446:Generated_Source\PSoC4/CyBle_eventHandler.c ****         else
 447:Generated_Source\PSoC4/CyBle_eventHandler.c ****         {
 448:Generated_Source\PSoC4/CyBle_eventHandler.c ****             (void)CyBle_GattsWriteRsp(eventParam->connHandle);
 449:Generated_Source\PSoC4/CyBle_eventHandler.c ****         }
 450:Generated_Source\PSoC4/CyBle_eventHandler.c ****     }
 451:Generated_Source\PSoC4/CyBle_eventHandler.c **** }
 452:Generated_Source\PSoC4/CyBle_eventHandler.c **** 
 453:Generated_Source\PSoC4/CyBle_eventHandler.c **** 
 454:Generated_Source\PSoC4/CyBle_eventHandler.c **** /****************************************************************************** 
 455:Generated_Source\PSoC4/CyBle_eventHandler.c **** * Function Name: CyBle_ValueConfirmation
 456:Generated_Source\PSoC4/CyBle_eventHandler.c **** ***************************************************************************//**
 457:Generated_Source\PSoC4/CyBle_eventHandler.c **** * 
 458:Generated_Source\PSoC4/CyBle_eventHandler.c **** *  Handles the Value Confirmation request event from the BLE stack.
 459:Generated_Source\PSoC4/CyBle_eventHandler.c **** * 
 460:Generated_Source\PSoC4/CyBle_eventHandler.c **** *  \param eventParam: Pointer to a structure of type 'CYBLE_CONN_HANDLE_T'
 461:Generated_Source\PSoC4/CyBle_eventHandler.c **** * 
 462:Generated_Source\PSoC4/CyBle_eventHandler.c **** * \return
 463:Generated_Source\PSoC4/CyBle_eventHandler.c **** *  None
 464:Generated_Source\PSoC4/CyBle_eventHandler.c **** * 
 465:Generated_Source\PSoC4/CyBle_eventHandler.c **** ******************************************************************************/
 466:Generated_Source\PSoC4/CyBle_eventHandler.c **** static void CyBle_ValueConfirmation(const CYBLE_CONN_HANDLE_T *eventParam)
 467:Generated_Source\PSoC4/CyBle_eventHandler.c **** {
 468:Generated_Source\PSoC4/CyBle_eventHandler.c ****     if(eventParam != NULL)
 469:Generated_Source\PSoC4/CyBle_eventHandler.c ****     {
 470:Generated_Source\PSoC4/CyBle_eventHandler.c ****     #ifdef CYBLE_AIOS_SERVER
 471:Generated_Source\PSoC4/CyBle_eventHandler.c ****         if((cyBle_eventHandlerFlag & CYBLE_CALLBACK) != 0u)
 472:Generated_Source\PSoC4/CyBle_eventHandler.c ****         {
 473:Generated_Source\PSoC4/CyBle_eventHandler.c ****             CyBle_AiossConfirmationEventHandler(eventParam);
 474:Generated_Source\PSoC4/CyBle_eventHandler.c ****         }
 475:Generated_Source\PSoC4/CyBle_eventHandler.c ****     #endif /* CYBLE_AIOS_SERVER */
 476:Generated_Source\PSoC4/CyBle_eventHandler.c ****     #ifdef CYBLE_BCS_SERVER
 477:Generated_Source\PSoC4/CyBle_eventHandler.c ****         CyBle_BcssConfirmationEventHandler(eventParam);
 478:Generated_Source\PSoC4/CyBle_eventHandler.c ****     #endif /* CYBLE_BCS_SERVER */
 479:Generated_Source\PSoC4/CyBle_eventHandler.c ****     #ifdef CYBLE_BLS_SERVER
 480:Generated_Source\PSoC4/CyBle_eventHandler.c ****         if((cyBle_eventHandlerFlag & CYBLE_CALLBACK) != 0u)
 481:Generated_Source\PSoC4/CyBle_eventHandler.c ****         {
 482:Generated_Source\PSoC4/CyBle_eventHandler.c ****             CyBle_BlssConfirmationEventHandler(eventParam);
 483:Generated_Source\PSoC4/CyBle_eventHandler.c ****         }
 484:Generated_Source\PSoC4/CyBle_eventHandler.c ****     #endif /* CYBLE_BLS_SERVER */
 485:Generated_Source\PSoC4/CyBle_eventHandler.c ****     
 486:Generated_Source\PSoC4/CyBle_eventHandler.c ****     #ifdef CYBLE_CGMS_SERVER
 487:Generated_Source\PSoC4/CyBle_eventHandler.c ****         if((cyBle_eventHandlerFlag & CYBLE_CALLBACK) != 0u)
ARM GAS  C:\Users\Tymek\AppData\Local\Temp\ccJhKwfb.s 			page 10


 488:Generated_Source\PSoC4/CyBle_eventHandler.c ****         {
 489:Generated_Source\PSoC4/CyBle_eventHandler.c ****             CyBle_CgmssConfirmationEventHandler(eventParam);
 490:Generated_Source\PSoC4/CyBle_eventHandler.c ****         }
 491:Generated_Source\PSoC4/CyBle_eventHandler.c ****     #endif /* CYBLE_CGMS_SERVER */
 492:Generated_Source\PSoC4/CyBle_eventHandler.c ****     
 493:Generated_Source\PSoC4/CyBle_eventHandler.c ****     #ifdef CYBLE_CPS_SERVER
 494:Generated_Source\PSoC4/CyBle_eventHandler.c ****         if((cyBle_eventHandlerFlag & CYBLE_CALLBACK) != 0u)
 495:Generated_Source\PSoC4/CyBle_eventHandler.c ****         {
 496:Generated_Source\PSoC4/CyBle_eventHandler.c ****             CyBle_CpssConfirmationEventHandler(eventParam);
 497:Generated_Source\PSoC4/CyBle_eventHandler.c ****         }
 498:Generated_Source\PSoC4/CyBle_eventHandler.c ****     #endif /* CYBLE_CPS_SERVER */
 499:Generated_Source\PSoC4/CyBle_eventHandler.c ****     
 500:Generated_Source\PSoC4/CyBle_eventHandler.c ****     #ifdef CYBLE_CSCS_SERVER
 501:Generated_Source\PSoC4/CyBle_eventHandler.c ****         if((cyBle_eventHandlerFlag & CYBLE_CALLBACK) != 0u)
 502:Generated_Source\PSoC4/CyBle_eventHandler.c ****         {
 503:Generated_Source\PSoC4/CyBle_eventHandler.c ****             CyBle_CscssConfirmationEventHandler(eventParam);
 504:Generated_Source\PSoC4/CyBle_eventHandler.c ****         }
 505:Generated_Source\PSoC4/CyBle_eventHandler.c ****     #endif /* CYBLE_CSCS_SERVER */
 506:Generated_Source\PSoC4/CyBle_eventHandler.c ****     
 507:Generated_Source\PSoC4/CyBle_eventHandler.c ****     #ifdef CYBLE_ESS_SERVER
 508:Generated_Source\PSoC4/CyBle_eventHandler.c ****         if((cyBle_eventHandlerFlag & CYBLE_CALLBACK) != 0u)
 509:Generated_Source\PSoC4/CyBle_eventHandler.c ****         {
 510:Generated_Source\PSoC4/CyBle_eventHandler.c ****             CyBle_EsssConfirmationEventHandler(eventParam);
 511:Generated_Source\PSoC4/CyBle_eventHandler.c ****         }
 512:Generated_Source\PSoC4/CyBle_eventHandler.c ****     #endif /* CYBLE_ESS_SERVER */
 513:Generated_Source\PSoC4/CyBle_eventHandler.c ****     
 514:Generated_Source\PSoC4/CyBle_eventHandler.c ****     #ifdef CYBLE_GLS_SERVER
 515:Generated_Source\PSoC4/CyBle_eventHandler.c ****         if((cyBle_eventHandlerFlag & CYBLE_CALLBACK) != 0u)
 516:Generated_Source\PSoC4/CyBle_eventHandler.c ****         {
 517:Generated_Source\PSoC4/CyBle_eventHandler.c ****             CyBle_GlssConfirmationEventHandler(eventParam);
 518:Generated_Source\PSoC4/CyBle_eventHandler.c ****         }
 519:Generated_Source\PSoC4/CyBle_eventHandler.c ****     #endif /* CYBLE_GLS_SERVER */
 520:Generated_Source\PSoC4/CyBle_eventHandler.c ****     
 521:Generated_Source\PSoC4/CyBle_eventHandler.c ****     #ifdef CYBLE_HTS_SERVER
 522:Generated_Source\PSoC4/CyBle_eventHandler.c ****         if((cyBle_eventHandlerFlag & CYBLE_CALLBACK) != 0u)
 523:Generated_Source\PSoC4/CyBle_eventHandler.c ****         {
 524:Generated_Source\PSoC4/CyBle_eventHandler.c ****             CyBle_HtssConfirmationEventHandler(eventParam);
 525:Generated_Source\PSoC4/CyBle_eventHandler.c ****         }
 526:Generated_Source\PSoC4/CyBle_eventHandler.c ****     #endif /* CYBLE_HTS_SERVER */
 527:Generated_Source\PSoC4/CyBle_eventHandler.c **** 
 528:Generated_Source\PSoC4/CyBle_eventHandler.c ****     #ifdef CYBLE_LNS_SERVER
 529:Generated_Source\PSoC4/CyBle_eventHandler.c ****         if((cyBle_eventHandlerFlag & CYBLE_CALLBACK) != 0u)
 530:Generated_Source\PSoC4/CyBle_eventHandler.c ****         {
 531:Generated_Source\PSoC4/CyBle_eventHandler.c ****             CyBle_LnssConfirmationEventHandler(eventParam);
 532:Generated_Source\PSoC4/CyBle_eventHandler.c ****         }
 533:Generated_Source\PSoC4/CyBle_eventHandler.c ****     #endif /* CYBLE_LNS_SERVER */
 534:Generated_Source\PSoC4/CyBle_eventHandler.c ****     
 535:Generated_Source\PSoC4/CyBle_eventHandler.c ****     #ifdef CYBLE_PLXS_SERVER
 536:Generated_Source\PSoC4/CyBle_eventHandler.c ****         if((cyBle_eventHandlerFlag & CYBLE_CALLBACK) != 0u)
 537:Generated_Source\PSoC4/CyBle_eventHandler.c ****         {
 538:Generated_Source\PSoC4/CyBle_eventHandler.c ****             CyBle_PlxssConfirmationEventHandler((CYBLE_CONN_HANDLE_T *)eventParam);
 539:Generated_Source\PSoC4/CyBle_eventHandler.c ****         }
 540:Generated_Source\PSoC4/CyBle_eventHandler.c ****     #endif /* CYBLE_PLXS_SERVER */
 541:Generated_Source\PSoC4/CyBle_eventHandler.c ****     
 542:Generated_Source\PSoC4/CyBle_eventHandler.c ****     #ifdef CYBLE_RSCS_SERVER
 543:Generated_Source\PSoC4/CyBle_eventHandler.c ****         if((cyBle_eventHandlerFlag & CYBLE_CALLBACK) != 0u)
 544:Generated_Source\PSoC4/CyBle_eventHandler.c ****         {
ARM GAS  C:\Users\Tymek\AppData\Local\Temp\ccJhKwfb.s 			page 11


 545:Generated_Source\PSoC4/CyBle_eventHandler.c ****             CyBle_RscssConfirmationEventHandler(eventParam);
 546:Generated_Source\PSoC4/CyBle_eventHandler.c ****         }
 547:Generated_Source\PSoC4/CyBle_eventHandler.c ****     #endif /* CYBLE_RSCS_SERVER */
 548:Generated_Source\PSoC4/CyBle_eventHandler.c ****     
 549:Generated_Source\PSoC4/CyBle_eventHandler.c ****     #ifdef CYBLE_UDS_SERVER
 550:Generated_Source\PSoC4/CyBle_eventHandler.c ****         if((cyBle_eventHandlerFlag & CYBLE_CALLBACK) != 0u)
 551:Generated_Source\PSoC4/CyBle_eventHandler.c ****         {
 552:Generated_Source\PSoC4/CyBle_eventHandler.c ****             CyBle_UdssConfirmationEventHandler(eventParam);
 553:Generated_Source\PSoC4/CyBle_eventHandler.c ****         }
 554:Generated_Source\PSoC4/CyBle_eventHandler.c ****     #endif /* CYBLE_UDS_SERVER */
 555:Generated_Source\PSoC4/CyBle_eventHandler.c ****     
 556:Generated_Source\PSoC4/CyBle_eventHandler.c ****     #ifdef CYBLE_WPTS_SERVER
 557:Generated_Source\PSoC4/CyBle_eventHandler.c ****         if((cyBle_eventHandlerFlag & CYBLE_CALLBACK) != 0u)
 558:Generated_Source\PSoC4/CyBle_eventHandler.c ****         {
 559:Generated_Source\PSoC4/CyBle_eventHandler.c ****             CyBle_WptssConfirmationEventHandler(eventParam);
 560:Generated_Source\PSoC4/CyBle_eventHandler.c ****         }
 561:Generated_Source\PSoC4/CyBle_eventHandler.c ****     #endif /* CYBLE_WPTS_SERVER */
 562:Generated_Source\PSoC4/CyBle_eventHandler.c ****     
 563:Generated_Source\PSoC4/CyBle_eventHandler.c ****     #ifdef CYBLE_WSS_SERVER
 564:Generated_Source\PSoC4/CyBle_eventHandler.c ****         if((cyBle_eventHandlerFlag & CYBLE_CALLBACK) != 0u)
 565:Generated_Source\PSoC4/CyBle_eventHandler.c ****         {
 566:Generated_Source\PSoC4/CyBle_eventHandler.c ****             CyBle_WsssConfirmationEventHandler(eventParam);
 567:Generated_Source\PSoC4/CyBle_eventHandler.c ****         }
 568:Generated_Source\PSoC4/CyBle_eventHandler.c ****     #endif /* CYBLE_WSS_SERVER */
 569:Generated_Source\PSoC4/CyBle_eventHandler.c ****     }
 570:Generated_Source\PSoC4/CyBle_eventHandler.c **** }
 571:Generated_Source\PSoC4/CyBle_eventHandler.c **** 
 572:Generated_Source\PSoC4/CyBle_eventHandler.c **** #endif /* CYBLE_GATT_ROLE_SERVER */
 573:Generated_Source\PSoC4/CyBle_eventHandler.c **** 
 574:Generated_Source\PSoC4/CyBle_eventHandler.c **** 
 575:Generated_Source\PSoC4/CyBle_eventHandler.c **** #if (CYBLE_GATT_ROLE_CLIENT)
 576:Generated_Source\PSoC4/CyBle_eventHandler.c **** 
 577:Generated_Source\PSoC4/CyBle_eventHandler.c **** /****************************************************************************** 
 578:Generated_Source\PSoC4/CyBle_eventHandler.c **** * Function Name: CyBle_GattcWriteResponseEventHandler
 579:Generated_Source\PSoC4/CyBle_eventHandler.c **** ***************************************************************************//**
 580:Generated_Source\PSoC4/CyBle_eventHandler.c **** * 
 581:Generated_Source\PSoC4/CyBle_eventHandler.c **** *  Handles the Write response event from the BLE stack.
 582:Generated_Source\PSoC4/CyBle_eventHandler.c **** * 
 583:Generated_Source\PSoC4/CyBle_eventHandler.c **** *  \param eventParam: Pointer to a structure of type 'CYBLE_CONN_HANDLE_T'
 584:Generated_Source\PSoC4/CyBle_eventHandler.c **** * 
 585:Generated_Source\PSoC4/CyBle_eventHandler.c **** * \return
 586:Generated_Source\PSoC4/CyBle_eventHandler.c **** *  None
 587:Generated_Source\PSoC4/CyBle_eventHandler.c **** * 
 588:Generated_Source\PSoC4/CyBle_eventHandler.c **** ******************************************************************************/
 589:Generated_Source\PSoC4/CyBle_eventHandler.c **** static void CyBle_GattcWriteResponseEventHandler(const CYBLE_CONN_HANDLE_T *eventParam)
 590:Generated_Source\PSoC4/CyBle_eventHandler.c **** {
 591:Generated_Source\PSoC4/CyBle_eventHandler.c **** 
 592:Generated_Source\PSoC4/CyBle_eventHandler.c **** #ifdef CYBLE_AIOS_CLIENT
 593:Generated_Source\PSoC4/CyBle_eventHandler.c ****     if((cyBle_eventHandlerFlag & CYBLE_CALLBACK) != 0u)
 594:Generated_Source\PSoC4/CyBle_eventHandler.c ****     {
 595:Generated_Source\PSoC4/CyBle_eventHandler.c ****         CyBle_AioscWriteResponseEventHandler(eventParam);
 596:Generated_Source\PSoC4/CyBle_eventHandler.c ****     }
 597:Generated_Source\PSoC4/CyBle_eventHandler.c **** #endif /* CYBLE_AIOS_CLIENT */
 598:Generated_Source\PSoC4/CyBle_eventHandler.c **** 
 599:Generated_Source\PSoC4/CyBle_eventHandler.c **** #ifdef CYBLE_ANCS_CLIENT
 600:Generated_Source\PSoC4/CyBle_eventHandler.c ****     CyBle_AncscWriteResponseEventHandler(eventParam);
 601:Generated_Source\PSoC4/CyBle_eventHandler.c **** #endif /* CYBLE_ANCS_CLIENT */
ARM GAS  C:\Users\Tymek\AppData\Local\Temp\ccJhKwfb.s 			page 12


 602:Generated_Source\PSoC4/CyBle_eventHandler.c **** 
 603:Generated_Source\PSoC4/CyBle_eventHandler.c **** #ifdef CYBLE_ANS_CLIENT
 604:Generated_Source\PSoC4/CyBle_eventHandler.c ****     if((cyBle_eventHandlerFlag & CYBLE_CALLBACK) != 0u)
 605:Generated_Source\PSoC4/CyBle_eventHandler.c ****     {
 606:Generated_Source\PSoC4/CyBle_eventHandler.c ****         CyBle_AnscWriteResponseEventHandler(eventParam);
 607:Generated_Source\PSoC4/CyBle_eventHandler.c ****     }
 608:Generated_Source\PSoC4/CyBle_eventHandler.c **** #endif /* CYBLE_ANS_CLIENT */
 609:Generated_Source\PSoC4/CyBle_eventHandler.c **** 
 610:Generated_Source\PSoC4/CyBle_eventHandler.c **** #ifdef CYBLE_BAS_CLIENT
 611:Generated_Source\PSoC4/CyBle_eventHandler.c ****     if((cyBle_eventHandlerFlag & CYBLE_CALLBACK) != 0u)
 612:Generated_Source\PSoC4/CyBle_eventHandler.c ****     {
 613:Generated_Source\PSoC4/CyBle_eventHandler.c ****         CyBle_BascWriteResponseEventHandler(eventParam);
 614:Generated_Source\PSoC4/CyBle_eventHandler.c ****     }
 615:Generated_Source\PSoC4/CyBle_eventHandler.c **** #endif /* CYBLE_BAS_CLIENT */
 616:Generated_Source\PSoC4/CyBle_eventHandler.c **** 
 617:Generated_Source\PSoC4/CyBle_eventHandler.c **** #ifdef CYBLE_BCS_CLIENT
 618:Generated_Source\PSoC4/CyBle_eventHandler.c ****     if((cyBle_eventHandlerFlag & CYBLE_CALLBACK) != 0u)
 619:Generated_Source\PSoC4/CyBle_eventHandler.c ****     {
 620:Generated_Source\PSoC4/CyBle_eventHandler.c ****         CyBle_BcscWriteResponseEventHandler(eventParam);
 621:Generated_Source\PSoC4/CyBle_eventHandler.c ****     }
 622:Generated_Source\PSoC4/CyBle_eventHandler.c **** #endif /* CYBLE_BCS_CLIENT */
 623:Generated_Source\PSoC4/CyBle_eventHandler.c **** 
 624:Generated_Source\PSoC4/CyBle_eventHandler.c **** #ifdef CYBLE_BLS_CLIENT
 625:Generated_Source\PSoC4/CyBle_eventHandler.c ****     if((cyBle_eventHandlerFlag & CYBLE_CALLBACK) != 0u)
 626:Generated_Source\PSoC4/CyBle_eventHandler.c ****     {
 627:Generated_Source\PSoC4/CyBle_eventHandler.c ****         CyBle_BlscWriteResponseEventHandler(eventParam);
 628:Generated_Source\PSoC4/CyBle_eventHandler.c ****     }
 629:Generated_Source\PSoC4/CyBle_eventHandler.c **** #endif /* CYBLE_BLS_CLIENT */
 630:Generated_Source\PSoC4/CyBle_eventHandler.c **** 
 631:Generated_Source\PSoC4/CyBle_eventHandler.c **** #ifdef CYBLE_BMS_CLIENT
 632:Generated_Source\PSoC4/CyBle_eventHandler.c ****     if((cyBle_eventHandlerFlag & CYBLE_CALLBACK) != 0u)
 633:Generated_Source\PSoC4/CyBle_eventHandler.c ****     {
 634:Generated_Source\PSoC4/CyBle_eventHandler.c ****         CyBle_BmscWriteResponseEventHandler(eventParam);
 635:Generated_Source\PSoC4/CyBle_eventHandler.c ****     }
 636:Generated_Source\PSoC4/CyBle_eventHandler.c **** #endif /* CYBLE_BMS_CLIENT */
 637:Generated_Source\PSoC4/CyBle_eventHandler.c **** 
 638:Generated_Source\PSoC4/CyBle_eventHandler.c **** #ifdef CYBLE_CGMS_CLIENT
 639:Generated_Source\PSoC4/CyBle_eventHandler.c ****     if((cyBle_eventHandlerFlag & CYBLE_CALLBACK) != 0u)
 640:Generated_Source\PSoC4/CyBle_eventHandler.c ****     {
 641:Generated_Source\PSoC4/CyBle_eventHandler.c ****         CyBle_CgmscWriteResponseEventHandler(eventParam);
 642:Generated_Source\PSoC4/CyBle_eventHandler.c ****     }
 643:Generated_Source\PSoC4/CyBle_eventHandler.c **** #endif /* CYBLE_CGMS_CLIENT */
 644:Generated_Source\PSoC4/CyBle_eventHandler.c **** 
 645:Generated_Source\PSoC4/CyBle_eventHandler.c **** #ifdef CYBLE_CPS_CLIENT
 646:Generated_Source\PSoC4/CyBle_eventHandler.c ****     if((cyBle_eventHandlerFlag & CYBLE_CALLBACK) != 0u)
 647:Generated_Source\PSoC4/CyBle_eventHandler.c ****     {
 648:Generated_Source\PSoC4/CyBle_eventHandler.c ****         CyBle_CpscWriteResponseEventHandler(eventParam);
 649:Generated_Source\PSoC4/CyBle_eventHandler.c ****     }
 650:Generated_Source\PSoC4/CyBle_eventHandler.c **** #endif /* CYBLE_CPS_CLIENT */
 651:Generated_Source\PSoC4/CyBle_eventHandler.c **** 
 652:Generated_Source\PSoC4/CyBle_eventHandler.c **** #ifdef CYBLE_CSCS_CLIENT
 653:Generated_Source\PSoC4/CyBle_eventHandler.c ****     if((cyBle_eventHandlerFlag & CYBLE_CALLBACK) != 0u)
 654:Generated_Source\PSoC4/CyBle_eventHandler.c ****     {
 655:Generated_Source\PSoC4/CyBle_eventHandler.c ****         CyBle_CscscWriteResponseEventHandler(eventParam);
 656:Generated_Source\PSoC4/CyBle_eventHandler.c ****     }
 657:Generated_Source\PSoC4/CyBle_eventHandler.c **** #endif /* CYBLE_CSCS_CLIENT */
 658:Generated_Source\PSoC4/CyBle_eventHandler.c **** 
ARM GAS  C:\Users\Tymek\AppData\Local\Temp\ccJhKwfb.s 			page 13


 659:Generated_Source\PSoC4/CyBle_eventHandler.c **** #ifdef CYBLE_CTS_CLIENT
 660:Generated_Source\PSoC4/CyBle_eventHandler.c ****     if((cyBle_eventHandlerFlag & CYBLE_CALLBACK) != 0u)
 661:Generated_Source\PSoC4/CyBle_eventHandler.c ****     {
 662:Generated_Source\PSoC4/CyBle_eventHandler.c ****         CyBle_CtscWriteResponseEventHandler(eventParam);
 663:Generated_Source\PSoC4/CyBle_eventHandler.c ****     }
 664:Generated_Source\PSoC4/CyBle_eventHandler.c **** #endif /* CYBLE_CTS_CLIENT */
 665:Generated_Source\PSoC4/CyBle_eventHandler.c **** 
 666:Generated_Source\PSoC4/CyBle_eventHandler.c **** #ifdef CYBLE_ESS_CLIENT
 667:Generated_Source\PSoC4/CyBle_eventHandler.c ****     if((cyBle_eventHandlerFlag & CYBLE_CALLBACK) != 0u)
 668:Generated_Source\PSoC4/CyBle_eventHandler.c ****     {
 669:Generated_Source\PSoC4/CyBle_eventHandler.c ****         CyBle_EsscWriteResponseEventHandler(eventParam);
 670:Generated_Source\PSoC4/CyBle_eventHandler.c ****     }
 671:Generated_Source\PSoC4/CyBle_eventHandler.c **** #endif /* CYBLE_ESS_CLIENT */
 672:Generated_Source\PSoC4/CyBle_eventHandler.c **** 
 673:Generated_Source\PSoC4/CyBle_eventHandler.c **** #ifdef CYBLE_GLS_CLIENT
 674:Generated_Source\PSoC4/CyBle_eventHandler.c ****     if((cyBle_eventHandlerFlag & CYBLE_CALLBACK) != 0u)
 675:Generated_Source\PSoC4/CyBle_eventHandler.c ****     {
 676:Generated_Source\PSoC4/CyBle_eventHandler.c ****         CyBle_GlscWriteResponseEventHandler(eventParam);
 677:Generated_Source\PSoC4/CyBle_eventHandler.c ****     }
 678:Generated_Source\PSoC4/CyBle_eventHandler.c **** #endif /* CYBLE_GLS_CLIENT */
 679:Generated_Source\PSoC4/CyBle_eventHandler.c **** 
 680:Generated_Source\PSoC4/CyBle_eventHandler.c **** #ifdef CYBLE_HIDS_CLIENT
 681:Generated_Source\PSoC4/CyBle_eventHandler.c ****     if((cyBle_eventHandlerFlag & CYBLE_CALLBACK) != 0u)
 682:Generated_Source\PSoC4/CyBle_eventHandler.c ****     {
 683:Generated_Source\PSoC4/CyBle_eventHandler.c ****         CyBle_HidscWriteResponseEventHandler(eventParam);
 684:Generated_Source\PSoC4/CyBle_eventHandler.c ****     }
 685:Generated_Source\PSoC4/CyBle_eventHandler.c **** #endif /* CYBLE_HIDS_CLIENT */
 686:Generated_Source\PSoC4/CyBle_eventHandler.c **** 
 687:Generated_Source\PSoC4/CyBle_eventHandler.c **** #ifdef CYBLE_HPS_CLIENT
 688:Generated_Source\PSoC4/CyBle_eventHandler.c ****     if((cyBle_eventHandlerFlag & CYBLE_CALLBACK) != 0u)
 689:Generated_Source\PSoC4/CyBle_eventHandler.c ****     {
 690:Generated_Source\PSoC4/CyBle_eventHandler.c ****         CyBle_HpscWriteResponseEventHandler(eventParam);
 691:Generated_Source\PSoC4/CyBle_eventHandler.c ****     }
 692:Generated_Source\PSoC4/CyBle_eventHandler.c **** #endif /* CYBLE_HPS_CLIENT */
 693:Generated_Source\PSoC4/CyBle_eventHandler.c **** 
 694:Generated_Source\PSoC4/CyBle_eventHandler.c **** #ifdef CYBLE_HRS_CLIENT
 695:Generated_Source\PSoC4/CyBle_eventHandler.c ****     if((cyBle_eventHandlerFlag & CYBLE_CALLBACK) != 0u)
 696:Generated_Source\PSoC4/CyBle_eventHandler.c ****     {
 697:Generated_Source\PSoC4/CyBle_eventHandler.c ****         CyBle_HrscWriteResponseEventHandler(eventParam);
 698:Generated_Source\PSoC4/CyBle_eventHandler.c ****     }
 699:Generated_Source\PSoC4/CyBle_eventHandler.c **** #endif /* CYBLE_HRS_CLIENT */
 700:Generated_Source\PSoC4/CyBle_eventHandler.c **** 
 701:Generated_Source\PSoC4/CyBle_eventHandler.c **** #ifdef CYBLE_HTS_CLIENT
 702:Generated_Source\PSoC4/CyBle_eventHandler.c ****     if((cyBle_eventHandlerFlag & CYBLE_CALLBACK) != 0u)
 703:Generated_Source\PSoC4/CyBle_eventHandler.c ****     {
 704:Generated_Source\PSoC4/CyBle_eventHandler.c ****         CyBle_HtscWriteResponseEventHandler(eventParam);
 705:Generated_Source\PSoC4/CyBle_eventHandler.c ****     }
 706:Generated_Source\PSoC4/CyBle_eventHandler.c **** #endif /* CYBLE_HTS_CLIENT */
 707:Generated_Source\PSoC4/CyBle_eventHandler.c **** 
 708:Generated_Source\PSoC4/CyBle_eventHandler.c **** #ifdef CYBLE_IPS_CLIENT
 709:Generated_Source\PSoC4/CyBle_eventHandler.c ****     if((cyBle_eventHandlerFlag & CYBLE_CALLBACK) != 0u)
 710:Generated_Source\PSoC4/CyBle_eventHandler.c ****     {
 711:Generated_Source\PSoC4/CyBle_eventHandler.c ****         CyBle_IpscWriteResponseEventHandler(eventParam);
 712:Generated_Source\PSoC4/CyBle_eventHandler.c ****     }
 713:Generated_Source\PSoC4/CyBle_eventHandler.c **** #endif /* CYBLE_IPS_CLIENT */
 714:Generated_Source\PSoC4/CyBle_eventHandler.c **** 
 715:Generated_Source\PSoC4/CyBle_eventHandler.c **** #ifdef CYBLE_LLS_CLIENT
ARM GAS  C:\Users\Tymek\AppData\Local\Temp\ccJhKwfb.s 			page 14


 716:Generated_Source\PSoC4/CyBle_eventHandler.c ****     if((cyBle_eventHandlerFlag & CYBLE_CALLBACK) != 0u)
 717:Generated_Source\PSoC4/CyBle_eventHandler.c ****     {
 718:Generated_Source\PSoC4/CyBle_eventHandler.c ****         CyBle_LlscWriteResponseEventHandler(eventParam);
 719:Generated_Source\PSoC4/CyBle_eventHandler.c ****     }
 720:Generated_Source\PSoC4/CyBle_eventHandler.c **** #endif /* CYBLE_LLS_CLIENT */
 721:Generated_Source\PSoC4/CyBle_eventHandler.c **** 
 722:Generated_Source\PSoC4/CyBle_eventHandler.c **** #ifdef CYBLE_LNS_CLIENT
 723:Generated_Source\PSoC4/CyBle_eventHandler.c ****     if((cyBle_eventHandlerFlag & CYBLE_CALLBACK) != 0u)
 724:Generated_Source\PSoC4/CyBle_eventHandler.c ****     {
 725:Generated_Source\PSoC4/CyBle_eventHandler.c ****         CyBle_LnscWriteResponseEventHandler(eventParam);
 726:Generated_Source\PSoC4/CyBle_eventHandler.c ****     }
 727:Generated_Source\PSoC4/CyBle_eventHandler.c **** #endif /* CYBLE_LNS_CLIENT */
 728:Generated_Source\PSoC4/CyBle_eventHandler.c **** 
 729:Generated_Source\PSoC4/CyBle_eventHandler.c **** #ifdef CYBLE_PASS_CLIENT
 730:Generated_Source\PSoC4/CyBle_eventHandler.c ****     if((cyBle_eventHandlerFlag & CYBLE_CALLBACK) != 0u)
 731:Generated_Source\PSoC4/CyBle_eventHandler.c ****     {
 732:Generated_Source\PSoC4/CyBle_eventHandler.c ****         CyBle_PasscWriteResponseEventHandler(eventParam);
 733:Generated_Source\PSoC4/CyBle_eventHandler.c ****     }
 734:Generated_Source\PSoC4/CyBle_eventHandler.c **** #endif /* CYBLE_PASS_CLIENT */
 735:Generated_Source\PSoC4/CyBle_eventHandler.c **** 
 736:Generated_Source\PSoC4/CyBle_eventHandler.c **** #ifdef CYBLE_PLXS_CLIENT
 737:Generated_Source\PSoC4/CyBle_eventHandler.c ****     if((cyBle_eventHandlerFlag & CYBLE_CALLBACK) != 0u)
 738:Generated_Source\PSoC4/CyBle_eventHandler.c ****     {
 739:Generated_Source\PSoC4/CyBle_eventHandler.c ****         CyBle_PlxscWriteResponseEventHandler(eventParam);
 740:Generated_Source\PSoC4/CyBle_eventHandler.c ****     }
 741:Generated_Source\PSoC4/CyBle_eventHandler.c **** #endif /* CYBLE_PASS_CLIENT */
 742:Generated_Source\PSoC4/CyBle_eventHandler.c **** 
 743:Generated_Source\PSoC4/CyBle_eventHandler.c **** #ifdef CYBLE_RSCS_CLIENT
 744:Generated_Source\PSoC4/CyBle_eventHandler.c ****     if((cyBle_eventHandlerFlag & CYBLE_CALLBACK) != 0u)
 745:Generated_Source\PSoC4/CyBle_eventHandler.c ****     {
 746:Generated_Source\PSoC4/CyBle_eventHandler.c ****         CyBle_RscscWriteResponseEventHandler(eventParam);
 747:Generated_Source\PSoC4/CyBle_eventHandler.c ****     }
 748:Generated_Source\PSoC4/CyBle_eventHandler.c **** #endif /* CYBLE_RSCS_CLIENT */
 749:Generated_Source\PSoC4/CyBle_eventHandler.c **** 
 750:Generated_Source\PSoC4/CyBle_eventHandler.c **** #ifdef CYBLE_SCPS_CLIENT
 751:Generated_Source\PSoC4/CyBle_eventHandler.c ****     if((cyBle_eventHandlerFlag & CYBLE_CALLBACK) != 0u)
 752:Generated_Source\PSoC4/CyBle_eventHandler.c ****     {
 753:Generated_Source\PSoC4/CyBle_eventHandler.c ****         CyBle_ScpscWriteResponseEventHandler(eventParam);
 754:Generated_Source\PSoC4/CyBle_eventHandler.c ****     }
 755:Generated_Source\PSoC4/CyBle_eventHandler.c **** #endif /* CYBLE_SCPS_CLIENT */
 756:Generated_Source\PSoC4/CyBle_eventHandler.c **** 
 757:Generated_Source\PSoC4/CyBle_eventHandler.c **** #ifdef CYBLE_TPS_CLIENT
 758:Generated_Source\PSoC4/CyBle_eventHandler.c ****     if((cyBle_eventHandlerFlag & CYBLE_CALLBACK) != 0u)
 759:Generated_Source\PSoC4/CyBle_eventHandler.c ****     {
 760:Generated_Source\PSoC4/CyBle_eventHandler.c ****         CyBle_TpscWriteResponseEventHandler(eventParam);
 761:Generated_Source\PSoC4/CyBle_eventHandler.c ****     }
 762:Generated_Source\PSoC4/CyBle_eventHandler.c **** #endif /* CYBLE_TPS_CLIENT */
 763:Generated_Source\PSoC4/CyBle_eventHandler.c **** 
 764:Generated_Source\PSoC4/CyBle_eventHandler.c **** #ifdef CYBLE_UDS_CLIENT
 765:Generated_Source\PSoC4/CyBle_eventHandler.c ****     if((cyBle_eventHandlerFlag & CYBLE_CALLBACK) != 0u)
 766:Generated_Source\PSoC4/CyBle_eventHandler.c ****     {
 767:Generated_Source\PSoC4/CyBle_eventHandler.c ****         CyBle_UdscWriteResponseEventHandler(eventParam);
 768:Generated_Source\PSoC4/CyBle_eventHandler.c ****     }
 769:Generated_Source\PSoC4/CyBle_eventHandler.c **** #endif /* CYBLE_UDS_CLIENT */
 770:Generated_Source\PSoC4/CyBle_eventHandler.c **** #ifdef CYBLE_WPTS_CLIENT
 771:Generated_Source\PSoC4/CyBle_eventHandler.c ****     if((cyBle_eventHandlerFlag & CYBLE_CALLBACK) != 0u)
 772:Generated_Source\PSoC4/CyBle_eventHandler.c ****     {
ARM GAS  C:\Users\Tymek\AppData\Local\Temp\ccJhKwfb.s 			page 15


 773:Generated_Source\PSoC4/CyBle_eventHandler.c ****         CyBle_WptscWriteResponseEventHandler(eventParam);
 774:Generated_Source\PSoC4/CyBle_eventHandler.c ****     }
 775:Generated_Source\PSoC4/CyBle_eventHandler.c **** #endif /* CYBLE_WPTS_CLIENT */
 776:Generated_Source\PSoC4/CyBle_eventHandler.c **** #ifdef CYBLE_WSS_CLIENT
 777:Generated_Source\PSoC4/CyBle_eventHandler.c ****     if((cyBle_eventHandlerFlag & CYBLE_CALLBACK) != 0u)
 778:Generated_Source\PSoC4/CyBle_eventHandler.c ****     {
 779:Generated_Source\PSoC4/CyBle_eventHandler.c ****         CyBle_WsscWriteResponseEventHandler(eventParam);
 780:Generated_Source\PSoC4/CyBle_eventHandler.c ****     }
 781:Generated_Source\PSoC4/CyBle_eventHandler.c **** #endif /* CYBLE_WSS_CLIENT */
 782:Generated_Source\PSoC4/CyBle_eventHandler.c **** }
 783:Generated_Source\PSoC4/CyBle_eventHandler.c **** 
 784:Generated_Source\PSoC4/CyBle_eventHandler.c **** 
 785:Generated_Source\PSoC4/CyBle_eventHandler.c **** /******************************************************************************    
 786:Generated_Source\PSoC4/CyBle_eventHandler.c **** * Function Name: CyBle_NotificationEventHandler
 787:Generated_Source\PSoC4/CyBle_eventHandler.c **** ***************************************************************************//**
 788:Generated_Source\PSoC4/CyBle_eventHandler.c **** * 
 789:Generated_Source\PSoC4/CyBle_eventHandler.c **** *  Handles the Notification event from BLE stack.
 790:Generated_Source\PSoC4/CyBle_eventHandler.c **** * 
 791:Generated_Source\PSoC4/CyBle_eventHandler.c **** *  \param eventParam: event parameter
 792:Generated_Source\PSoC4/CyBle_eventHandler.c **** * 
 793:Generated_Source\PSoC4/CyBle_eventHandler.c **** * \return
 794:Generated_Source\PSoC4/CyBle_eventHandler.c **** *  None
 795:Generated_Source\PSoC4/CyBle_eventHandler.c **** * 
 796:Generated_Source\PSoC4/CyBle_eventHandler.c **** ******************************************************************************/
 797:Generated_Source\PSoC4/CyBle_eventHandler.c **** static void CyBle_NotificationEventHandler(CYBLE_GATTC_HANDLE_VALUE_NTF_PARAM_T *eventParam)
 798:Generated_Source\PSoC4/CyBle_eventHandler.c **** {
 799:Generated_Source\PSoC4/CyBle_eventHandler.c **** #ifdef CYBLE_AIOS_CLIENT
 800:Generated_Source\PSoC4/CyBle_eventHandler.c ****     if((cyBle_eventHandlerFlag & CYBLE_CALLBACK) != 0u)
 801:Generated_Source\PSoC4/CyBle_eventHandler.c ****     {
 802:Generated_Source\PSoC4/CyBle_eventHandler.c ****         CyBle_AioscNotificationEventHandler(eventParam);
 803:Generated_Source\PSoC4/CyBle_eventHandler.c ****     }
 804:Generated_Source\PSoC4/CyBle_eventHandler.c **** #endif /* CYBLE_AIOS_CLIENT */
 805:Generated_Source\PSoC4/CyBle_eventHandler.c **** #ifdef CYBLE_ANCS_CLIENT
 806:Generated_Source\PSoC4/CyBle_eventHandler.c ****     CyBle_AncscNotificationEventHandler(eventParam);
 807:Generated_Source\PSoC4/CyBle_eventHandler.c **** #endif /* CYBLE_ANCS_CLIENT */
 808:Generated_Source\PSoC4/CyBle_eventHandler.c **** #ifdef CYBLE_ANS_CLIENT
 809:Generated_Source\PSoC4/CyBle_eventHandler.c ****     if((cyBle_eventHandlerFlag & CYBLE_CALLBACK) != 0u)
 810:Generated_Source\PSoC4/CyBle_eventHandler.c ****     {
 811:Generated_Source\PSoC4/CyBle_eventHandler.c ****         CyBle_AnscNotificationEventHandler(eventParam);
 812:Generated_Source\PSoC4/CyBle_eventHandler.c ****     }
 813:Generated_Source\PSoC4/CyBle_eventHandler.c **** #endif /* CYBLE_ANS_CLIENT */
 814:Generated_Source\PSoC4/CyBle_eventHandler.c **** #ifdef CYBLE_BAS_CLIENT
 815:Generated_Source\PSoC4/CyBle_eventHandler.c ****     if((cyBle_eventHandlerFlag & CYBLE_CALLBACK) != 0u)
 816:Generated_Source\PSoC4/CyBle_eventHandler.c ****     {
 817:Generated_Source\PSoC4/CyBle_eventHandler.c ****         CyBle_BascNotificationEventHandler(eventParam);
 818:Generated_Source\PSoC4/CyBle_eventHandler.c ****     }
 819:Generated_Source\PSoC4/CyBle_eventHandler.c **** #endif /* CYBLE_BAS_CLIENT */
 820:Generated_Source\PSoC4/CyBle_eventHandler.c **** #ifdef CYBLE_BLS_CLIENT
 821:Generated_Source\PSoC4/CyBle_eventHandler.c ****     if((cyBle_eventHandlerFlag & CYBLE_CALLBACK) != 0u)
 822:Generated_Source\PSoC4/CyBle_eventHandler.c ****     {
 823:Generated_Source\PSoC4/CyBle_eventHandler.c ****         CyBle_BlscNotificationEventHandler(eventParam);
 824:Generated_Source\PSoC4/CyBle_eventHandler.c ****     }
 825:Generated_Source\PSoC4/CyBle_eventHandler.c **** #endif /* CYBLE_BLS_CLIENT */
 826:Generated_Source\PSoC4/CyBle_eventHandler.c **** #ifdef CYBLE_CGMS_CLIENT
 827:Generated_Source\PSoC4/CyBle_eventHandler.c ****     if((cyBle_eventHandlerFlag & CYBLE_CALLBACK) != 0u)
 828:Generated_Source\PSoC4/CyBle_eventHandler.c ****     {
 829:Generated_Source\PSoC4/CyBle_eventHandler.c ****         CyBle_CgmscNotificationEventHandler(eventParam);
ARM GAS  C:\Users\Tymek\AppData\Local\Temp\ccJhKwfb.s 			page 16


 830:Generated_Source\PSoC4/CyBle_eventHandler.c ****     }
 831:Generated_Source\PSoC4/CyBle_eventHandler.c **** #endif /* CYBLE_CGMS_CLIENT */
 832:Generated_Source\PSoC4/CyBle_eventHandler.c **** #ifdef CYBLE_CPS_CLIENT
 833:Generated_Source\PSoC4/CyBle_eventHandler.c ****     if((cyBle_eventHandlerFlag & CYBLE_CALLBACK) != 0u)
 834:Generated_Source\PSoC4/CyBle_eventHandler.c ****     {
 835:Generated_Source\PSoC4/CyBle_eventHandler.c ****         CyBle_CpscNotificationEventHandler(eventParam);
 836:Generated_Source\PSoC4/CyBle_eventHandler.c ****     }
 837:Generated_Source\PSoC4/CyBle_eventHandler.c **** #endif /* CYBLE_CPS_CLIENT */
 838:Generated_Source\PSoC4/CyBle_eventHandler.c **** #ifdef CYBLE_CSCS_CLIENT
 839:Generated_Source\PSoC4/CyBle_eventHandler.c ****     if((cyBle_eventHandlerFlag & CYBLE_CALLBACK) != 0u)
 840:Generated_Source\PSoC4/CyBle_eventHandler.c ****     {
 841:Generated_Source\PSoC4/CyBle_eventHandler.c ****         CyBle_CscscNotificationEventHandler(eventParam);
 842:Generated_Source\PSoC4/CyBle_eventHandler.c ****     }
 843:Generated_Source\PSoC4/CyBle_eventHandler.c **** #endif /* CYBLE_CSCS_CLIENT */
 844:Generated_Source\PSoC4/CyBle_eventHandler.c **** #ifdef CYBLE_CTS_CLIENT
 845:Generated_Source\PSoC4/CyBle_eventHandler.c ****     if((cyBle_eventHandlerFlag & CYBLE_CALLBACK) != 0u)
 846:Generated_Source\PSoC4/CyBle_eventHandler.c ****     {
 847:Generated_Source\PSoC4/CyBle_eventHandler.c ****         CyBle_CtscNotificationEventHandler(eventParam);
 848:Generated_Source\PSoC4/CyBle_eventHandler.c ****     }
 849:Generated_Source\PSoC4/CyBle_eventHandler.c **** #endif /* CYBLE_CTS_CLIENT */
 850:Generated_Source\PSoC4/CyBle_eventHandler.c **** #ifdef CYBLE_ESS_CLIENT
 851:Generated_Source\PSoC4/CyBle_eventHandler.c ****     if((cyBle_eventHandlerFlag & CYBLE_CALLBACK) != 0u)
 852:Generated_Source\PSoC4/CyBle_eventHandler.c ****     {
 853:Generated_Source\PSoC4/CyBle_eventHandler.c ****         CyBle_EsscNotificationEventHandler(eventParam);
 854:Generated_Source\PSoC4/CyBle_eventHandler.c ****     }
 855:Generated_Source\PSoC4/CyBle_eventHandler.c **** #endif /* CYBLE_ESS_CLIENT */
 856:Generated_Source\PSoC4/CyBle_eventHandler.c **** #ifdef CYBLE_GLS_CLIENT
 857:Generated_Source\PSoC4/CyBle_eventHandler.c ****     if((cyBle_eventHandlerFlag & CYBLE_CALLBACK) != 0u)
 858:Generated_Source\PSoC4/CyBle_eventHandler.c ****     {
 859:Generated_Source\PSoC4/CyBle_eventHandler.c ****         CyBle_GlscNotificationEventHandler(eventParam);
 860:Generated_Source\PSoC4/CyBle_eventHandler.c ****     }
 861:Generated_Source\PSoC4/CyBle_eventHandler.c **** #endif /* CYBLE_GLS_CLIENT */
 862:Generated_Source\PSoC4/CyBle_eventHandler.c **** #ifdef CYBLE_HIDS_CLIENT
 863:Generated_Source\PSoC4/CyBle_eventHandler.c ****     if((cyBle_eventHandlerFlag & CYBLE_CALLBACK) != 0u)
 864:Generated_Source\PSoC4/CyBle_eventHandler.c ****     {
 865:Generated_Source\PSoC4/CyBle_eventHandler.c ****         CyBle_HidscNotificationEventHandler(eventParam);
 866:Generated_Source\PSoC4/CyBle_eventHandler.c ****     }
 867:Generated_Source\PSoC4/CyBle_eventHandler.c **** #endif /* CYBLE_HIDS_CLIENT */
 868:Generated_Source\PSoC4/CyBle_eventHandler.c **** #ifdef CYBLE_HPS_CLIENT
 869:Generated_Source\PSoC4/CyBle_eventHandler.c ****     if((cyBle_eventHandlerFlag & CYBLE_CALLBACK) != 0u)
 870:Generated_Source\PSoC4/CyBle_eventHandler.c ****     {
 871:Generated_Source\PSoC4/CyBle_eventHandler.c ****         CyBle_HpscNotificationEventHandler(eventParam);
 872:Generated_Source\PSoC4/CyBle_eventHandler.c ****     }
 873:Generated_Source\PSoC4/CyBle_eventHandler.c **** #endif /* CYBLE_HPS_CLIENT */
 874:Generated_Source\PSoC4/CyBle_eventHandler.c **** #ifdef CYBLE_HRS_CLIENT
 875:Generated_Source\PSoC4/CyBle_eventHandler.c ****     if((cyBle_eventHandlerFlag & CYBLE_CALLBACK) != 0u)
 876:Generated_Source\PSoC4/CyBle_eventHandler.c ****     {
 877:Generated_Source\PSoC4/CyBle_eventHandler.c ****         CyBle_HrscNotificationEventHandler(eventParam);
 878:Generated_Source\PSoC4/CyBle_eventHandler.c ****     }
 879:Generated_Source\PSoC4/CyBle_eventHandler.c **** #endif /* CYBLE_HRS_CLIENT */
 880:Generated_Source\PSoC4/CyBle_eventHandler.c **** #ifdef CYBLE_HTS_CLIENT
 881:Generated_Source\PSoC4/CyBle_eventHandler.c ****     if((cyBle_eventHandlerFlag & CYBLE_CALLBACK) != 0u)
 882:Generated_Source\PSoC4/CyBle_eventHandler.c ****     {
 883:Generated_Source\PSoC4/CyBle_eventHandler.c ****         CyBle_HtscNotificationEventHandler(eventParam);
 884:Generated_Source\PSoC4/CyBle_eventHandler.c ****     }
 885:Generated_Source\PSoC4/CyBle_eventHandler.c **** #endif /* CYBLE_HTS_CLIENT */
 886:Generated_Source\PSoC4/CyBle_eventHandler.c **** #ifdef CYBLE_LNS_CLIENT
ARM GAS  C:\Users\Tymek\AppData\Local\Temp\ccJhKwfb.s 			page 17


 887:Generated_Source\PSoC4/CyBle_eventHandler.c ****     if((cyBle_eventHandlerFlag & CYBLE_CALLBACK) != 0u)
 888:Generated_Source\PSoC4/CyBle_eventHandler.c ****     {
 889:Generated_Source\PSoC4/CyBle_eventHandler.c ****         CyBle_LnscNotificationEventHandler(eventParam);
 890:Generated_Source\PSoC4/CyBle_eventHandler.c ****     }
 891:Generated_Source\PSoC4/CyBle_eventHandler.c **** #endif /* CYBLE_LNS_CLIENT */
 892:Generated_Source\PSoC4/CyBle_eventHandler.c **** #ifdef CYBLE_PASS_CLIENT
 893:Generated_Source\PSoC4/CyBle_eventHandler.c ****     if((cyBle_eventHandlerFlag & CYBLE_CALLBACK) != 0u)
 894:Generated_Source\PSoC4/CyBle_eventHandler.c ****     {
 895:Generated_Source\PSoC4/CyBle_eventHandler.c ****         CyBle_PasscNotificationEventHandler(eventParam);
 896:Generated_Source\PSoC4/CyBle_eventHandler.c ****     }
 897:Generated_Source\PSoC4/CyBle_eventHandler.c **** #endif /* CYBLE_PASS_CLIENT */
 898:Generated_Source\PSoC4/CyBle_eventHandler.c **** #ifdef CYBLE_PLXS_CLIENT
 899:Generated_Source\PSoC4/CyBle_eventHandler.c ****     if((cyBle_eventHandlerFlag & CYBLE_CALLBACK) != 0u)
 900:Generated_Source\PSoC4/CyBle_eventHandler.c ****     {
 901:Generated_Source\PSoC4/CyBle_eventHandler.c ****         CyBle_PlxscNotificationEventHandler(eventParam);
 902:Generated_Source\PSoC4/CyBle_eventHandler.c ****     }
 903:Generated_Source\PSoC4/CyBle_eventHandler.c **** #endif /* CYBLE_PLXS_CLIENT */
 904:Generated_Source\PSoC4/CyBle_eventHandler.c **** #ifdef CYBLE_RSCS_CLIENT
 905:Generated_Source\PSoC4/CyBle_eventHandler.c ****     if((cyBle_eventHandlerFlag & CYBLE_CALLBACK) != 0u)
 906:Generated_Source\PSoC4/CyBle_eventHandler.c ****     {
 907:Generated_Source\PSoC4/CyBle_eventHandler.c ****         CyBle_RscscNotificationEventHandler(eventParam);
 908:Generated_Source\PSoC4/CyBle_eventHandler.c ****     }
 909:Generated_Source\PSoC4/CyBle_eventHandler.c **** #endif /* CYBLE_RSCS_CLIENT */
 910:Generated_Source\PSoC4/CyBle_eventHandler.c **** #ifdef CYBLE_SCPS_CLIENT
 911:Generated_Source\PSoC4/CyBle_eventHandler.c ****     if((cyBle_eventHandlerFlag & CYBLE_CALLBACK) != 0u)
 912:Generated_Source\PSoC4/CyBle_eventHandler.c ****     {
 913:Generated_Source\PSoC4/CyBle_eventHandler.c ****         CyBle_ScpscNotificationEventHandler(eventParam);
 914:Generated_Source\PSoC4/CyBle_eventHandler.c ****     }
 915:Generated_Source\PSoC4/CyBle_eventHandler.c **** #endif /* CYBLE_SCPS_CLIENT */
 916:Generated_Source\PSoC4/CyBle_eventHandler.c **** #ifdef CYBLE_TPS_CLIENT
 917:Generated_Source\PSoC4/CyBle_eventHandler.c ****     if((cyBle_eventHandlerFlag & CYBLE_CALLBACK) != 0u)
 918:Generated_Source\PSoC4/CyBle_eventHandler.c ****     {
 919:Generated_Source\PSoC4/CyBle_eventHandler.c ****         CyBle_TpscNotificationEventHandler(eventParam);
 920:Generated_Source\PSoC4/CyBle_eventHandler.c ****     }
 921:Generated_Source\PSoC4/CyBle_eventHandler.c **** #endif /* CYBLE_TPS_CLIENT */
 922:Generated_Source\PSoC4/CyBle_eventHandler.c **** #ifdef CYBLE_UDS_CLIENT
 923:Generated_Source\PSoC4/CyBle_eventHandler.c ****     if((cyBle_eventHandlerFlag & CYBLE_CALLBACK) != 0u)
 924:Generated_Source\PSoC4/CyBle_eventHandler.c ****     {
 925:Generated_Source\PSoC4/CyBle_eventHandler.c ****         CyBle_UdscNotificationEventHandler(eventParam);
 926:Generated_Source\PSoC4/CyBle_eventHandler.c ****     }
 927:Generated_Source\PSoC4/CyBle_eventHandler.c **** #endif /* CYBLE_UDS_CLIENT */
 928:Generated_Source\PSoC4/CyBle_eventHandler.c **** #ifdef CYBLE_WPTS_CLIENT
 929:Generated_Source\PSoC4/CyBle_eventHandler.c ****     if((cyBle_eventHandlerFlag & CYBLE_CALLBACK) != 0u)
 930:Generated_Source\PSoC4/CyBle_eventHandler.c ****     {
 931:Generated_Source\PSoC4/CyBle_eventHandler.c ****         CyBle_WptscNotificationEventHandler(eventParam);
 932:Generated_Source\PSoC4/CyBle_eventHandler.c ****     }
 933:Generated_Source\PSoC4/CyBle_eventHandler.c **** #endif /* CYBLE_WPTS_CLIENT */
 934:Generated_Source\PSoC4/CyBle_eventHandler.c **** }
 935:Generated_Source\PSoC4/CyBle_eventHandler.c **** 
 936:Generated_Source\PSoC4/CyBle_eventHandler.c **** 
 937:Generated_Source\PSoC4/CyBle_eventHandler.c **** /******************************************************************************    
 938:Generated_Source\PSoC4/CyBle_eventHandler.c **** * Function Name: CyBle_IndicationEventHandler
 939:Generated_Source\PSoC4/CyBle_eventHandler.c **** ***************************************************************************//**
 940:Generated_Source\PSoC4/CyBle_eventHandler.c **** * 
 941:Generated_Source\PSoC4/CyBle_eventHandler.c **** *  Handles the Indication event from BLE stack.
 942:Generated_Source\PSoC4/CyBle_eventHandler.c **** * 
 943:Generated_Source\PSoC4/CyBle_eventHandler.c **** *  \param eventParam: event parameter
ARM GAS  C:\Users\Tymek\AppData\Local\Temp\ccJhKwfb.s 			page 18


 944:Generated_Source\PSoC4/CyBle_eventHandler.c **** * 
 945:Generated_Source\PSoC4/CyBle_eventHandler.c **** * \return
 946:Generated_Source\PSoC4/CyBle_eventHandler.c **** *  None
 947:Generated_Source\PSoC4/CyBle_eventHandler.c **** * 
 948:Generated_Source\PSoC4/CyBle_eventHandler.c **** ******************************************************************************/
 949:Generated_Source\PSoC4/CyBle_eventHandler.c **** static void CyBle_IndicationEventHandler(CYBLE_GATTC_HANDLE_VALUE_IND_PARAM_T *eventParam)
 950:Generated_Source\PSoC4/CyBle_eventHandler.c **** {
 951:Generated_Source\PSoC4/CyBle_eventHandler.c **** #ifdef CYBLE_AIOS_CLIENT
 952:Generated_Source\PSoC4/CyBle_eventHandler.c ****     if((cyBle_eventHandlerFlag & CYBLE_CALLBACK) != 0u)
 953:Generated_Source\PSoC4/CyBle_eventHandler.c ****     {
 954:Generated_Source\PSoC4/CyBle_eventHandler.c ****         CyBle_AioscIndicationEventHandler(eventParam);
 955:Generated_Source\PSoC4/CyBle_eventHandler.c ****     }
 956:Generated_Source\PSoC4/CyBle_eventHandler.c **** #endif /* CYBLE_AIOS_CLIENT */
 957:Generated_Source\PSoC4/CyBle_eventHandler.c **** #ifdef CYBLE_BCS_CLIENT
 958:Generated_Source\PSoC4/CyBle_eventHandler.c ****     if((cyBle_eventHandlerFlag & CYBLE_CALLBACK) != 0u)
 959:Generated_Source\PSoC4/CyBle_eventHandler.c ****     {
 960:Generated_Source\PSoC4/CyBle_eventHandler.c ****         CyBle_BcscIndicationEventHandler(eventParam);
 961:Generated_Source\PSoC4/CyBle_eventHandler.c ****     }
 962:Generated_Source\PSoC4/CyBle_eventHandler.c **** #endif /* CYBLE_BCS_CLIENT */
 963:Generated_Source\PSoC4/CyBle_eventHandler.c **** #ifdef CYBLE_BLS_CLIENT
 964:Generated_Source\PSoC4/CyBle_eventHandler.c ****     if((cyBle_eventHandlerFlag & CYBLE_CALLBACK) != 0u)
 965:Generated_Source\PSoC4/CyBle_eventHandler.c ****     {
 966:Generated_Source\PSoC4/CyBle_eventHandler.c ****         CyBle_BlscIndicationEventHandler(eventParam);
 967:Generated_Source\PSoC4/CyBle_eventHandler.c ****     }
 968:Generated_Source\PSoC4/CyBle_eventHandler.c **** #endif /* CYBLE_BLS_CLIENT */
 969:Generated_Source\PSoC4/CyBle_eventHandler.c **** #ifdef CYBLE_CGMS_CLIENT
 970:Generated_Source\PSoC4/CyBle_eventHandler.c ****     if((cyBle_eventHandlerFlag & CYBLE_CALLBACK) != 0u)
 971:Generated_Source\PSoC4/CyBle_eventHandler.c ****     {
 972:Generated_Source\PSoC4/CyBle_eventHandler.c ****         CyBle_CgmscIndicationEventHandler(eventParam);
 973:Generated_Source\PSoC4/CyBle_eventHandler.c ****     }
 974:Generated_Source\PSoC4/CyBle_eventHandler.c **** #endif /* CYBLE_CGMS_CLIENT */
 975:Generated_Source\PSoC4/CyBle_eventHandler.c **** #ifdef CYBLE_CPS_CLIENT
 976:Generated_Source\PSoC4/CyBle_eventHandler.c ****     if((cyBle_eventHandlerFlag & CYBLE_CALLBACK) != 0u)
 977:Generated_Source\PSoC4/CyBle_eventHandler.c ****     {
 978:Generated_Source\PSoC4/CyBle_eventHandler.c ****         CyBle_CpscIndicationEventHandler(eventParam);
 979:Generated_Source\PSoC4/CyBle_eventHandler.c ****     }
 980:Generated_Source\PSoC4/CyBle_eventHandler.c **** #endif /* CYBLE_CPS_CLIENT */
 981:Generated_Source\PSoC4/CyBle_eventHandler.c **** #ifdef CYBLE_CSCS_CLIENT
 982:Generated_Source\PSoC4/CyBle_eventHandler.c ****     if((cyBle_eventHandlerFlag & CYBLE_CALLBACK) != 0u)
 983:Generated_Source\PSoC4/CyBle_eventHandler.c ****     {
 984:Generated_Source\PSoC4/CyBle_eventHandler.c ****         CyBle_CscscIndicationEventHandler(eventParam);
 985:Generated_Source\PSoC4/CyBle_eventHandler.c ****     }
 986:Generated_Source\PSoC4/CyBle_eventHandler.c **** #endif /* CYBLE_CSCS_CLIENT */
 987:Generated_Source\PSoC4/CyBle_eventHandler.c **** #ifdef CYBLE_ESS_CLIENT
 988:Generated_Source\PSoC4/CyBle_eventHandler.c ****     if((cyBle_eventHandlerFlag & CYBLE_CALLBACK) != 0u)
 989:Generated_Source\PSoC4/CyBle_eventHandler.c ****     {
 990:Generated_Source\PSoC4/CyBle_eventHandler.c ****         CyBle_EsscIndicationEventHandler(eventParam);
 991:Generated_Source\PSoC4/CyBle_eventHandler.c ****     }
 992:Generated_Source\PSoC4/CyBle_eventHandler.c **** #endif /* CYBLE_ESS_CLIENT */
 993:Generated_Source\PSoC4/CyBle_eventHandler.c **** #ifdef CYBLE_GLS_CLIENT
 994:Generated_Source\PSoC4/CyBle_eventHandler.c ****     if((cyBle_eventHandlerFlag & CYBLE_CALLBACK) != 0u)
 995:Generated_Source\PSoC4/CyBle_eventHandler.c ****     {
 996:Generated_Source\PSoC4/CyBle_eventHandler.c ****         CyBle_GlscIndicationEventHandler(eventParam);
 997:Generated_Source\PSoC4/CyBle_eventHandler.c ****     }
 998:Generated_Source\PSoC4/CyBle_eventHandler.c **** #endif /* CYBLE_GLS_CLIENT */
 999:Generated_Source\PSoC4/CyBle_eventHandler.c **** #ifdef CYBLE_HTS_CLIENT
1000:Generated_Source\PSoC4/CyBle_eventHandler.c ****     if((cyBle_eventHandlerFlag & CYBLE_CALLBACK) != 0u)
ARM GAS  C:\Users\Tymek\AppData\Local\Temp\ccJhKwfb.s 			page 19


1001:Generated_Source\PSoC4/CyBle_eventHandler.c ****     {
1002:Generated_Source\PSoC4/CyBle_eventHandler.c ****         CyBle_HtscIndicationEventHandler(eventParam);
1003:Generated_Source\PSoC4/CyBle_eventHandler.c ****     }
1004:Generated_Source\PSoC4/CyBle_eventHandler.c **** #endif /* CYBLE_HTS_CLIENT */
1005:Generated_Source\PSoC4/CyBle_eventHandler.c **** #ifdef CYBLE_LNS_CLIENT
1006:Generated_Source\PSoC4/CyBle_eventHandler.c ****     if((cyBle_eventHandlerFlag & CYBLE_CALLBACK) != 0u)
1007:Generated_Source\PSoC4/CyBle_eventHandler.c ****     {
1008:Generated_Source\PSoC4/CyBle_eventHandler.c ****         CyBle_LnscIndicationEventHandler(eventParam);
1009:Generated_Source\PSoC4/CyBle_eventHandler.c ****     }
1010:Generated_Source\PSoC4/CyBle_eventHandler.c **** #endif /* CYBLE_LNS_CLIENT */
1011:Generated_Source\PSoC4/CyBle_eventHandler.c **** #ifdef CYBLE_PLXS_CLIENT
1012:Generated_Source\PSoC4/CyBle_eventHandler.c ****     if((cyBle_eventHandlerFlag & CYBLE_CALLBACK) != 0u)
1013:Generated_Source\PSoC4/CyBle_eventHandler.c ****     {
1014:Generated_Source\PSoC4/CyBle_eventHandler.c ****         CyBle_PlxscIndicationEventHandler(eventParam);
1015:Generated_Source\PSoC4/CyBle_eventHandler.c ****     }
1016:Generated_Source\PSoC4/CyBle_eventHandler.c **** #endif /* CYBLE_PLXS_CLIENT */
1017:Generated_Source\PSoC4/CyBle_eventHandler.c **** #ifdef CYBLE_RSCS_CLIENT
1018:Generated_Source\PSoC4/CyBle_eventHandler.c ****     if((cyBle_eventHandlerFlag & CYBLE_CALLBACK) != 0u)
1019:Generated_Source\PSoC4/CyBle_eventHandler.c ****     {
1020:Generated_Source\PSoC4/CyBle_eventHandler.c ****         CyBle_RscscIndicationEventHandler(eventParam);
1021:Generated_Source\PSoC4/CyBle_eventHandler.c ****     }
1022:Generated_Source\PSoC4/CyBle_eventHandler.c **** #endif /* CYBLE_RSCS_CLIENT */
1023:Generated_Source\PSoC4/CyBle_eventHandler.c **** #ifdef CYBLE_UDS_CLIENT
1024:Generated_Source\PSoC4/CyBle_eventHandler.c ****     if((cyBle_eventHandlerFlag & CYBLE_CALLBACK) != 0u)
1025:Generated_Source\PSoC4/CyBle_eventHandler.c ****     {
1026:Generated_Source\PSoC4/CyBle_eventHandler.c ****         CyBle_UdscIndicationEventHandler(eventParam);
1027:Generated_Source\PSoC4/CyBle_eventHandler.c ****     }
1028:Generated_Source\PSoC4/CyBle_eventHandler.c **** #endif /* CYBLE_UDS_CLIENT */
1029:Generated_Source\PSoC4/CyBle_eventHandler.c **** #ifdef CYBLE_WPTS_CLIENT
1030:Generated_Source\PSoC4/CyBle_eventHandler.c ****     if((cyBle_eventHandlerFlag & CYBLE_CALLBACK) != 0u)
1031:Generated_Source\PSoC4/CyBle_eventHandler.c ****     {
1032:Generated_Source\PSoC4/CyBle_eventHandler.c ****         CyBle_WptscIndicationEventHandler(eventParam);
1033:Generated_Source\PSoC4/CyBle_eventHandler.c ****     }
1034:Generated_Source\PSoC4/CyBle_eventHandler.c **** #endif /* CYBLE_WPTS_CLIENT */
1035:Generated_Source\PSoC4/CyBle_eventHandler.c **** #ifdef CYBLE_WSS_CLIENT
1036:Generated_Source\PSoC4/CyBle_eventHandler.c ****     if((cyBle_eventHandlerFlag & CYBLE_CALLBACK) != 0u)
1037:Generated_Source\PSoC4/CyBle_eventHandler.c ****     {
1038:Generated_Source\PSoC4/CyBle_eventHandler.c ****         CyBle_WsscIndicationEventHandler(eventParam);
1039:Generated_Source\PSoC4/CyBle_eventHandler.c ****     }
1040:Generated_Source\PSoC4/CyBle_eventHandler.c **** #endif /* CYBLE_WSS_CLIENT */
1041:Generated_Source\PSoC4/CyBle_eventHandler.c **** }
1042:Generated_Source\PSoC4/CyBle_eventHandler.c **** 
1043:Generated_Source\PSoC4/CyBle_eventHandler.c **** /******************************************************************************    
1044:Generated_Source\PSoC4/CyBle_eventHandler.c **** * Function Name: CyBle_ReadResponseEventHandler
1045:Generated_Source\PSoC4/CyBle_eventHandler.c **** ***************************************************************************//**
1046:Generated_Source\PSoC4/CyBle_eventHandler.c **** * 
1047:Generated_Source\PSoC4/CyBle_eventHandler.c **** *  Handles the Read Response event from BLE stack.
1048:Generated_Source\PSoC4/CyBle_eventHandler.c **** * 
1049:Generated_Source\PSoC4/CyBle_eventHandler.c **** *  \param eventParam: event parameter
1050:Generated_Source\PSoC4/CyBle_eventHandler.c **** * 
1051:Generated_Source\PSoC4/CyBle_eventHandler.c **** * \return
1052:Generated_Source\PSoC4/CyBle_eventHandler.c **** *  None
1053:Generated_Source\PSoC4/CyBle_eventHandler.c **** * 
1054:Generated_Source\PSoC4/CyBle_eventHandler.c **** ******************************************************************************/
1055:Generated_Source\PSoC4/CyBle_eventHandler.c **** static void CyBle_ReadResponseEventHandler(CYBLE_GATTC_READ_RSP_PARAM_T *eventParam)
1056:Generated_Source\PSoC4/CyBle_eventHandler.c **** {
1057:Generated_Source\PSoC4/CyBle_eventHandler.c **** #ifdef CYBLE_CUSTOM_CLIENT
ARM GAS  C:\Users\Tymek\AppData\Local\Temp\ccJhKwfb.s 			page 20


1058:Generated_Source\PSoC4/CyBle_eventHandler.c ****     /* Read response with 128-bit included service uuid */
1059:Generated_Source\PSoC4/CyBle_eventHandler.c ****     if((CyBle_GetClientState() == CYBLE_CLIENT_STATE_INCL_DISCOVERING) &&
1060:Generated_Source\PSoC4/CyBle_eventHandler.c ****        (cyBle_discInclInfo.inclDefHandle != 0u))
1061:Generated_Source\PSoC4/CyBle_eventHandler.c ****     {
1062:Generated_Source\PSoC4/CyBle_eventHandler.c ****         CYBLE_DISC_SRVC128_INFO_T discServInfo;
1063:Generated_Source\PSoC4/CyBle_eventHandler.c **** 
1064:Generated_Source\PSoC4/CyBle_eventHandler.c ****         /* Store service range */
1065:Generated_Source\PSoC4/CyBle_eventHandler.c ****         discServInfo.range = cyBle_discInclInfo.inclHandleRange;
1066:Generated_Source\PSoC4/CyBle_eventHandler.c ****         (void)memcpy((void *) discServInfo.uuid.uuid128.value, (void *)eventParam->value.val, event
1067:Generated_Source\PSoC4/CyBle_eventHandler.c ****         CyBle_CustomcDiscoverServiceEventHandler(&discServInfo);
1068:Generated_Source\PSoC4/CyBle_eventHandler.c ****         
1069:Generated_Source\PSoC4/CyBle_eventHandler.c ****         /* Re-initiate CyBle_GattcFindIncludedServices function, setting the start
1070:Generated_Source\PSoC4/CyBle_eventHandler.c ****            handle to the attribute handle which is placed next to the one used in
1071:Generated_Source\PSoC4/CyBle_eventHandler.c ****            the above step.
1072:Generated_Source\PSoC4/CyBle_eventHandler.c ****         */
1073:Generated_Source\PSoC4/CyBle_eventHandler.c ****         discServInfo.range.startHandle = cyBle_discInclInfo.inclDefHandle + 1u;
1074:Generated_Source\PSoC4/CyBle_eventHandler.c ****         discServInfo.range.endHandle = cyBle_serverInfo[cyBle_disCount].range.endHandle;
1075:Generated_Source\PSoC4/CyBle_eventHandler.c ****         if(discServInfo.range.startHandle <= discServInfo.range.endHandle)
1076:Generated_Source\PSoC4/CyBle_eventHandler.c ****         {
1077:Generated_Source\PSoC4/CyBle_eventHandler.c ****             if(CYBLE_ERROR_OK != CyBle_GattcFindIncludedServices(cyBle_connHandle, &discServInfo.ra
1078:Generated_Source\PSoC4/CyBle_eventHandler.c ****             {
1079:Generated_Source\PSoC4/CyBle_eventHandler.c ****                 CyBle_ApplCallback(CYBLE_EVT_GATTC_INCL_DISCOVERY_FAILED, NULL);
1080:Generated_Source\PSoC4/CyBle_eventHandler.c ****                 cyBle_eventHandlerFlag &= (uint8)~CYBLE_AUTO_DISCOVERY;
1081:Generated_Source\PSoC4/CyBle_eventHandler.c ****             }
1082:Generated_Source\PSoC4/CyBle_eventHandler.c ****         }
1083:Generated_Source\PSoC4/CyBle_eventHandler.c ****         else /* Continue discovery of the following service */
1084:Generated_Source\PSoC4/CyBle_eventHandler.c ****         {
1085:Generated_Source\PSoC4/CyBle_eventHandler.c ****             CyBle_NextInclDiscovery(CYBLE_DISCOVERY_CONTINUE);
1086:Generated_Source\PSoC4/CyBle_eventHandler.c ****         }
1087:Generated_Source\PSoC4/CyBle_eventHandler.c ****         
1088:Generated_Source\PSoC4/CyBle_eventHandler.c ****         cyBle_eventHandlerFlag &= (uint8)~CYBLE_CALLBACK;
1089:Generated_Source\PSoC4/CyBle_eventHandler.c ****     #ifdef CYBLE_CUSTOM_CLIENT
1090:Generated_Source\PSoC4/CyBle_eventHandler.c ****         cyBle_discInclInfo.inclDefHandle = 0u;
1091:Generated_Source\PSoC4/CyBle_eventHandler.c ****     #endif /* CYBLE_CUSTOM_CLIENT */
1092:Generated_Source\PSoC4/CyBle_eventHandler.c ****     }
1093:Generated_Source\PSoC4/CyBle_eventHandler.c **** #endif /* CYBLE_CUSTOM_CLIENT */
1094:Generated_Source\PSoC4/CyBle_eventHandler.c **** #ifdef CYBLE_AIOS_CLIENT
1095:Generated_Source\PSoC4/CyBle_eventHandler.c ****     if((cyBle_eventHandlerFlag & CYBLE_CALLBACK) != 0u)
1096:Generated_Source\PSoC4/CyBle_eventHandler.c ****     {
1097:Generated_Source\PSoC4/CyBle_eventHandler.c ****         CyBle_AioscReadResponseEventHandler(eventParam);
1098:Generated_Source\PSoC4/CyBle_eventHandler.c ****     }
1099:Generated_Source\PSoC4/CyBle_eventHandler.c **** #endif /* CYBLE_AIOS_CLIENT */
1100:Generated_Source\PSoC4/CyBle_eventHandler.c **** #ifdef CYBLE_ANCS_CLIENT
1101:Generated_Source\PSoC4/CyBle_eventHandler.c ****     if((cyBle_eventHandlerFlag & CYBLE_CALLBACK) != 0u)
1102:Generated_Source\PSoC4/CyBle_eventHandler.c ****     {
1103:Generated_Source\PSoC4/CyBle_eventHandler.c ****         CyBle_AncscReadResponseEventHandler(eventParam);
1104:Generated_Source\PSoC4/CyBle_eventHandler.c ****     }
1105:Generated_Source\PSoC4/CyBle_eventHandler.c **** #endif /* CYBLE_ANCS_CLIENT */
1106:Generated_Source\PSoC4/CyBle_eventHandler.c **** #ifdef CYBLE_ANS_CLIENT
1107:Generated_Source\PSoC4/CyBle_eventHandler.c ****     if((cyBle_eventHandlerFlag & CYBLE_CALLBACK) != 0u)
1108:Generated_Source\PSoC4/CyBle_eventHandler.c ****     {
1109:Generated_Source\PSoC4/CyBle_eventHandler.c ****         CyBle_AnscReadResponseEventHandler(eventParam);
1110:Generated_Source\PSoC4/CyBle_eventHandler.c ****     }
1111:Generated_Source\PSoC4/CyBle_eventHandler.c **** #endif /* CYBLE_ANS_CLIENT */
1112:Generated_Source\PSoC4/CyBle_eventHandler.c **** #ifdef CYBLE_BAS_CLIENT
1113:Generated_Source\PSoC4/CyBle_eventHandler.c ****     if((cyBle_eventHandlerFlag & CYBLE_CALLBACK) != 0u)
1114:Generated_Source\PSoC4/CyBle_eventHandler.c ****     {
ARM GAS  C:\Users\Tymek\AppData\Local\Temp\ccJhKwfb.s 			page 21


1115:Generated_Source\PSoC4/CyBle_eventHandler.c ****         CyBle_BascReadResponseEventHandler(eventParam);
1116:Generated_Source\PSoC4/CyBle_eventHandler.c ****     }
1117:Generated_Source\PSoC4/CyBle_eventHandler.c **** #endif /* CYBLE_BAS_CLIENT */
1118:Generated_Source\PSoC4/CyBle_eventHandler.c **** #ifdef CYBLE_BLS_CLIENT
1119:Generated_Source\PSoC4/CyBle_eventHandler.c ****     if((cyBle_eventHandlerFlag & CYBLE_CALLBACK) != 0u)
1120:Generated_Source\PSoC4/CyBle_eventHandler.c ****     {
1121:Generated_Source\PSoC4/CyBle_eventHandler.c ****         CyBle_BlscReadResponseEventHandler(eventParam);
1122:Generated_Source\PSoC4/CyBle_eventHandler.c ****     }
1123:Generated_Source\PSoC4/CyBle_eventHandler.c **** #endif /* CYBLE_BLS_CLIENT */
1124:Generated_Source\PSoC4/CyBle_eventHandler.c **** #ifdef CYBLE_BCS_CLIENT
1125:Generated_Source\PSoC4/CyBle_eventHandler.c ****     if((cyBle_eventHandlerFlag & CYBLE_CALLBACK) != 0u)
1126:Generated_Source\PSoC4/CyBle_eventHandler.c ****     {
1127:Generated_Source\PSoC4/CyBle_eventHandler.c ****         CyBle_BcscReadResponseEventHandler(eventParam);
1128:Generated_Source\PSoC4/CyBle_eventHandler.c ****     }
1129:Generated_Source\PSoC4/CyBle_eventHandler.c **** #endif /* CYBLE_BCS_CLIENT */
1130:Generated_Source\PSoC4/CyBle_eventHandler.c **** #ifdef CYBLE_BMS_CLIENT
1131:Generated_Source\PSoC4/CyBle_eventHandler.c ****     if((cyBle_eventHandlerFlag & CYBLE_CALLBACK) != 0u)
1132:Generated_Source\PSoC4/CyBle_eventHandler.c ****     {
1133:Generated_Source\PSoC4/CyBle_eventHandler.c ****         CyBle_BmscReadResponseEventHandler(eventParam);
1134:Generated_Source\PSoC4/CyBle_eventHandler.c ****     }
1135:Generated_Source\PSoC4/CyBle_eventHandler.c **** #endif /* CYBLE_BMS_CLIENT */
1136:Generated_Source\PSoC4/CyBle_eventHandler.c **** #ifdef CYBLE_CGMS_CLIENT
1137:Generated_Source\PSoC4/CyBle_eventHandler.c ****     if((cyBle_eventHandlerFlag & CYBLE_CALLBACK) != 0u)
1138:Generated_Source\PSoC4/CyBle_eventHandler.c ****     {
1139:Generated_Source\PSoC4/CyBle_eventHandler.c ****         CyBle_CgmscReadResponseEventHandler(eventParam);
1140:Generated_Source\PSoC4/CyBle_eventHandler.c ****     }
1141:Generated_Source\PSoC4/CyBle_eventHandler.c **** #endif /* CYBLE_CGMS_CLIENT */
1142:Generated_Source\PSoC4/CyBle_eventHandler.c **** #ifdef CYBLE_CPS_CLIENT
1143:Generated_Source\PSoC4/CyBle_eventHandler.c ****     if((cyBle_eventHandlerFlag & CYBLE_CALLBACK) != 0u)
1144:Generated_Source\PSoC4/CyBle_eventHandler.c ****     {
1145:Generated_Source\PSoC4/CyBle_eventHandler.c ****         CyBle_CpscReadResponseEventHandler(eventParam);
1146:Generated_Source\PSoC4/CyBle_eventHandler.c ****     }
1147:Generated_Source\PSoC4/CyBle_eventHandler.c **** #endif /* CYBLE_CPS_CLIENT */
1148:Generated_Source\PSoC4/CyBle_eventHandler.c **** #ifdef CYBLE_CSCS_CLIENT
1149:Generated_Source\PSoC4/CyBle_eventHandler.c ****     if((cyBle_eventHandlerFlag & CYBLE_CALLBACK) != 0u)
1150:Generated_Source\PSoC4/CyBle_eventHandler.c ****     {
1151:Generated_Source\PSoC4/CyBle_eventHandler.c ****         CyBle_CscscReadResponseEventHandler(eventParam);
1152:Generated_Source\PSoC4/CyBle_eventHandler.c ****     }
1153:Generated_Source\PSoC4/CyBle_eventHandler.c **** #endif /* CYBLE_CSCS_CLIENT */
1154:Generated_Source\PSoC4/CyBle_eventHandler.c **** #ifdef CYBLE_CTS_CLIENT
1155:Generated_Source\PSoC4/CyBle_eventHandler.c ****     if((cyBle_eventHandlerFlag & CYBLE_CALLBACK) != 0u)
1156:Generated_Source\PSoC4/CyBle_eventHandler.c ****     {
1157:Generated_Source\PSoC4/CyBle_eventHandler.c ****         CyBle_CtscReadResponseEventHandler(eventParam);
1158:Generated_Source\PSoC4/CyBle_eventHandler.c ****     }
1159:Generated_Source\PSoC4/CyBle_eventHandler.c **** #endif /* CYBLE_BAS_CLIENT */
1160:Generated_Source\PSoC4/CyBle_eventHandler.c **** #ifdef CYBLE_DIS_CLIENT
1161:Generated_Source\PSoC4/CyBle_eventHandler.c ****     if((cyBle_eventHandlerFlag & CYBLE_CALLBACK) != 0u)
1162:Generated_Source\PSoC4/CyBle_eventHandler.c ****     {
1163:Generated_Source\PSoC4/CyBle_eventHandler.c ****         CyBle_DiscReadResponseEventHandler(eventParam);
1164:Generated_Source\PSoC4/CyBle_eventHandler.c ****     }
1165:Generated_Source\PSoC4/CyBle_eventHandler.c **** #endif /* CYBLE_DIS_CLIENT */
1166:Generated_Source\PSoC4/CyBle_eventHandler.c **** #ifdef CYBLE_ESS_CLIENT
1167:Generated_Source\PSoC4/CyBle_eventHandler.c ****     if((cyBle_eventHandlerFlag & CYBLE_CALLBACK) != 0u)
1168:Generated_Source\PSoC4/CyBle_eventHandler.c ****     {
1169:Generated_Source\PSoC4/CyBle_eventHandler.c ****         CyBle_EsscReadResponseEventHandler(eventParam);
1170:Generated_Source\PSoC4/CyBle_eventHandler.c ****     }
1171:Generated_Source\PSoC4/CyBle_eventHandler.c **** #endif /* CYBLE_ESS_CLIENT */
ARM GAS  C:\Users\Tymek\AppData\Local\Temp\ccJhKwfb.s 			page 22


1172:Generated_Source\PSoC4/CyBle_eventHandler.c **** #ifdef CYBLE_GLS_CLIENT
1173:Generated_Source\PSoC4/CyBle_eventHandler.c ****     if((cyBle_eventHandlerFlag & CYBLE_CALLBACK) != 0u)
1174:Generated_Source\PSoC4/CyBle_eventHandler.c ****     {
1175:Generated_Source\PSoC4/CyBle_eventHandler.c ****         CyBle_GlscReadResponseEventHandler(eventParam);
1176:Generated_Source\PSoC4/CyBle_eventHandler.c ****     }
1177:Generated_Source\PSoC4/CyBle_eventHandler.c **** #endif /* CYBLE_GLS_CLIENT */
1178:Generated_Source\PSoC4/CyBle_eventHandler.c **** #ifdef CYBLE_HIDS_CLIENT
1179:Generated_Source\PSoC4/CyBle_eventHandler.c ****     if((cyBle_eventHandlerFlag & CYBLE_CALLBACK) != 0u)
1180:Generated_Source\PSoC4/CyBle_eventHandler.c ****     {
1181:Generated_Source\PSoC4/CyBle_eventHandler.c ****         CyBle_HidscReadResponseEventHandler(eventParam);
1182:Generated_Source\PSoC4/CyBle_eventHandler.c ****     }
1183:Generated_Source\PSoC4/CyBle_eventHandler.c **** #endif /* CYBLE_HIDS_CLIENT */
1184:Generated_Source\PSoC4/CyBle_eventHandler.c **** #ifdef CYBLE_HPS_CLIENT
1185:Generated_Source\PSoC4/CyBle_eventHandler.c ****     if((cyBle_eventHandlerFlag & CYBLE_CALLBACK) != 0u)
1186:Generated_Source\PSoC4/CyBle_eventHandler.c ****     {
1187:Generated_Source\PSoC4/CyBle_eventHandler.c ****         CyBle_HpscReadResponseEventHandler(eventParam);
1188:Generated_Source\PSoC4/CyBle_eventHandler.c ****     }
1189:Generated_Source\PSoC4/CyBle_eventHandler.c **** #endif /* CYBLE_HPS_CLIENT */
1190:Generated_Source\PSoC4/CyBle_eventHandler.c **** #ifdef CYBLE_HRS_CLIENT
1191:Generated_Source\PSoC4/CyBle_eventHandler.c ****     if((cyBle_eventHandlerFlag & CYBLE_CALLBACK) != 0u)
1192:Generated_Source\PSoC4/CyBle_eventHandler.c ****     {
1193:Generated_Source\PSoC4/CyBle_eventHandler.c ****         CyBle_HrscReadResponseEventHandler(eventParam);
1194:Generated_Source\PSoC4/CyBle_eventHandler.c ****     }
1195:Generated_Source\PSoC4/CyBle_eventHandler.c **** #endif /* CYBLE_HRS_CLIENT */
1196:Generated_Source\PSoC4/CyBle_eventHandler.c **** #ifdef CYBLE_HTS_CLIENT
1197:Generated_Source\PSoC4/CyBle_eventHandler.c ****     if((cyBle_eventHandlerFlag & CYBLE_CALLBACK) != 0u)
1198:Generated_Source\PSoC4/CyBle_eventHandler.c ****     {
1199:Generated_Source\PSoC4/CyBle_eventHandler.c ****         CyBle_HtscReadResponseEventHandler(eventParam);
1200:Generated_Source\PSoC4/CyBle_eventHandler.c ****     }
1201:Generated_Source\PSoC4/CyBle_eventHandler.c **** #endif /* CYBLE_HTS_CLIENT */
1202:Generated_Source\PSoC4/CyBle_eventHandler.c **** #ifdef CYBLE_IPS_CLIENT
1203:Generated_Source\PSoC4/CyBle_eventHandler.c ****     if((cyBle_eventHandlerFlag & CYBLE_CALLBACK) != 0u)
1204:Generated_Source\PSoC4/CyBle_eventHandler.c ****     {
1205:Generated_Source\PSoC4/CyBle_eventHandler.c ****         CyBle_IpscReadResponseEventHandler(eventParam);
1206:Generated_Source\PSoC4/CyBle_eventHandler.c ****     }
1207:Generated_Source\PSoC4/CyBle_eventHandler.c **** #endif /* CYBLE_IPS_CLIENT */
1208:Generated_Source\PSoC4/CyBle_eventHandler.c **** #ifdef CYBLE_LLS_CLIENT
1209:Generated_Source\PSoC4/CyBle_eventHandler.c ****     if((cyBle_eventHandlerFlag & CYBLE_CALLBACK) != 0u)
1210:Generated_Source\PSoC4/CyBle_eventHandler.c ****     {
1211:Generated_Source\PSoC4/CyBle_eventHandler.c ****         CyBle_LlscReadResponseEventHandler(eventParam);
1212:Generated_Source\PSoC4/CyBle_eventHandler.c ****     }
1213:Generated_Source\PSoC4/CyBle_eventHandler.c **** #endif /* CYBLE_LLS_CLIENT */
1214:Generated_Source\PSoC4/CyBle_eventHandler.c **** #ifdef CYBLE_LNS_CLIENT
1215:Generated_Source\PSoC4/CyBle_eventHandler.c ****     if((cyBle_eventHandlerFlag & CYBLE_CALLBACK) != 0u)
1216:Generated_Source\PSoC4/CyBle_eventHandler.c ****     {
1217:Generated_Source\PSoC4/CyBle_eventHandler.c ****         CyBle_LnscReadResponseEventHandler(eventParam);
1218:Generated_Source\PSoC4/CyBle_eventHandler.c ****     }
1219:Generated_Source\PSoC4/CyBle_eventHandler.c **** #endif /* CYBLE_LNS_CLIENT */
1220:Generated_Source\PSoC4/CyBle_eventHandler.c **** #ifdef CYBLE_NDCS_CLIENT
1221:Generated_Source\PSoC4/CyBle_eventHandler.c ****     if((cyBle_eventHandlerFlag & CYBLE_CALLBACK) != 0u)
1222:Generated_Source\PSoC4/CyBle_eventHandler.c ****     {
1223:Generated_Source\PSoC4/CyBle_eventHandler.c ****         CyBle_NdcscReadResponseEventHandler(eventParam);
1224:Generated_Source\PSoC4/CyBle_eventHandler.c ****     }
1225:Generated_Source\PSoC4/CyBle_eventHandler.c **** #endif /* CYBLE_NDCS_CLIENT */
1226:Generated_Source\PSoC4/CyBle_eventHandler.c **** #ifdef CYBLE_PASS_CLIENT
1227:Generated_Source\PSoC4/CyBle_eventHandler.c ****     if((cyBle_eventHandlerFlag & CYBLE_CALLBACK) != 0u)
1228:Generated_Source\PSoC4/CyBle_eventHandler.c ****     {
ARM GAS  C:\Users\Tymek\AppData\Local\Temp\ccJhKwfb.s 			page 23


1229:Generated_Source\PSoC4/CyBle_eventHandler.c ****         CyBle_PasscReadResponseEventHandler(eventParam);
1230:Generated_Source\PSoC4/CyBle_eventHandler.c ****     }
1231:Generated_Source\PSoC4/CyBle_eventHandler.c **** #endif /* CYBLE_PASS_CLIENT */
1232:Generated_Source\PSoC4/CyBle_eventHandler.c **** #ifdef CYBLE_PLXS_CLIENT
1233:Generated_Source\PSoC4/CyBle_eventHandler.c ****     if((cyBle_eventHandlerFlag & CYBLE_CALLBACK) != 0u)
1234:Generated_Source\PSoC4/CyBle_eventHandler.c ****     {
1235:Generated_Source\PSoC4/CyBle_eventHandler.c ****         CyBle_PlxscReadResponseEventHandler(eventParam);
1236:Generated_Source\PSoC4/CyBle_eventHandler.c ****     }
1237:Generated_Source\PSoC4/CyBle_eventHandler.c **** #endif /* CYBLE_PLXS_CLIENT */
1238:Generated_Source\PSoC4/CyBle_eventHandler.c **** #ifdef CYBLE_RSCS_CLIENT
1239:Generated_Source\PSoC4/CyBle_eventHandler.c ****     if((cyBle_eventHandlerFlag & CYBLE_CALLBACK) != 0u)
1240:Generated_Source\PSoC4/CyBle_eventHandler.c ****     {
1241:Generated_Source\PSoC4/CyBle_eventHandler.c ****         CyBle_RscscReadResponseEventHandler(eventParam);
1242:Generated_Source\PSoC4/CyBle_eventHandler.c ****     }
1243:Generated_Source\PSoC4/CyBle_eventHandler.c **** #endif /* CYBLE_RSCS_CLIENT */
1244:Generated_Source\PSoC4/CyBle_eventHandler.c **** #ifdef CYBLE_RTUS_CLIENT
1245:Generated_Source\PSoC4/CyBle_eventHandler.c ****     if((cyBle_eventHandlerFlag & CYBLE_CALLBACK) != 0u)
1246:Generated_Source\PSoC4/CyBle_eventHandler.c ****     {
1247:Generated_Source\PSoC4/CyBle_eventHandler.c ****         CyBle_RtuscReadResponseEventHandler(eventParam);
1248:Generated_Source\PSoC4/CyBle_eventHandler.c ****     }
1249:Generated_Source\PSoC4/CyBle_eventHandler.c **** #endif /* CYBLE_RTUS_CLIENT */
1250:Generated_Source\PSoC4/CyBle_eventHandler.c **** #ifdef CYBLE_SCPS_CLIENT
1251:Generated_Source\PSoC4/CyBle_eventHandler.c ****     if((cyBle_eventHandlerFlag & CYBLE_CALLBACK) != 0u)
1252:Generated_Source\PSoC4/CyBle_eventHandler.c ****     {
1253:Generated_Source\PSoC4/CyBle_eventHandler.c ****         CyBle_ScpscReadResponseEventHandler(eventParam);
1254:Generated_Source\PSoC4/CyBle_eventHandler.c ****     }
1255:Generated_Source\PSoC4/CyBle_eventHandler.c **** #endif /* CYBLE_SCPS_CLIENT */
1256:Generated_Source\PSoC4/CyBle_eventHandler.c **** #ifdef CYBLE_TPS_CLIENT
1257:Generated_Source\PSoC4/CyBle_eventHandler.c ****     if((cyBle_eventHandlerFlag & CYBLE_CALLBACK) != 0u)
1258:Generated_Source\PSoC4/CyBle_eventHandler.c ****     {
1259:Generated_Source\PSoC4/CyBle_eventHandler.c ****         CyBle_TpscReadResponseEventHandler(eventParam);
1260:Generated_Source\PSoC4/CyBle_eventHandler.c ****     }
1261:Generated_Source\PSoC4/CyBle_eventHandler.c **** #endif /* CYBLE_TPS_CLIENT */
1262:Generated_Source\PSoC4/CyBle_eventHandler.c **** #ifdef CYBLE_UDS_CLIENT
1263:Generated_Source\PSoC4/CyBle_eventHandler.c ****     if((cyBle_eventHandlerFlag & CYBLE_CALLBACK) != 0u)
1264:Generated_Source\PSoC4/CyBle_eventHandler.c ****     {
1265:Generated_Source\PSoC4/CyBle_eventHandler.c ****         CyBle_UdscReadResponseEventHandler(eventParam);
1266:Generated_Source\PSoC4/CyBle_eventHandler.c ****     }
1267:Generated_Source\PSoC4/CyBle_eventHandler.c **** #endif /* CYBLE_UDS_CLIENT */
1268:Generated_Source\PSoC4/CyBle_eventHandler.c **** #ifdef CYBLE_WPTS_CLIENT
1269:Generated_Source\PSoC4/CyBle_eventHandler.c ****     if((cyBle_eventHandlerFlag & CYBLE_CALLBACK) != 0u)
1270:Generated_Source\PSoC4/CyBle_eventHandler.c ****     {
1271:Generated_Source\PSoC4/CyBle_eventHandler.c ****         CyBle_WptscReadResponseEventHandler(eventParam);
1272:Generated_Source\PSoC4/CyBle_eventHandler.c ****     }
1273:Generated_Source\PSoC4/CyBle_eventHandler.c **** #endif /* CYBLE_WPTS_CLIENT */
1274:Generated_Source\PSoC4/CyBle_eventHandler.c **** #ifdef CYBLE_WSS_CLIENT
1275:Generated_Source\PSoC4/CyBle_eventHandler.c ****     if((cyBle_eventHandlerFlag & CYBLE_CALLBACK) != 0u)
1276:Generated_Source\PSoC4/CyBle_eventHandler.c ****     {
1277:Generated_Source\PSoC4/CyBle_eventHandler.c ****         CyBle_WsscReadResponseEventHandler(eventParam);
1278:Generated_Source\PSoC4/CyBle_eventHandler.c ****     }
1279:Generated_Source\PSoC4/CyBle_eventHandler.c **** #endif /* CYBLE_WSS_CLIENT */
1280:Generated_Source\PSoC4/CyBle_eventHandler.c **** }
1281:Generated_Source\PSoC4/CyBle_eventHandler.c **** 
1282:Generated_Source\PSoC4/CyBle_eventHandler.c **** /******************************************************************************    
1283:Generated_Source\PSoC4/CyBle_eventHandler.c **** * Function Name: CyBle_ReadMultipleResponseEventHandler
1284:Generated_Source\PSoC4/CyBle_eventHandler.c **** ***************************************************************************//**
1285:Generated_Source\PSoC4/CyBle_eventHandler.c **** * 
ARM GAS  C:\Users\Tymek\AppData\Local\Temp\ccJhKwfb.s 			page 24


1286:Generated_Source\PSoC4/CyBle_eventHandler.c **** *  Handles the Read Multiple Response event from BLE stack.
1287:Generated_Source\PSoC4/CyBle_eventHandler.c **** * 
1288:Generated_Source\PSoC4/CyBle_eventHandler.c **** *  \param eventParam: event parameter
1289:Generated_Source\PSoC4/CyBle_eventHandler.c **** * 
1290:Generated_Source\PSoC4/CyBle_eventHandler.c **** * \return
1291:Generated_Source\PSoC4/CyBle_eventHandler.c **** *  None
1292:Generated_Source\PSoC4/CyBle_eventHandler.c **** * 
1293:Generated_Source\PSoC4/CyBle_eventHandler.c **** ******************************************************************************/
1294:Generated_Source\PSoC4/CyBle_eventHandler.c **** static void CyBle_ReadMultipleResponseEventHandler(CYBLE_GATTC_READ_RSP_PARAM_T *eventParam)
1295:Generated_Source\PSoC4/CyBle_eventHandler.c **** {
1296:Generated_Source\PSoC4/CyBle_eventHandler.c **** #ifdef CYBLE_CUSTOM_CLIENT
1297:Generated_Source\PSoC4/CyBle_eventHandler.c ****     /* Read response with 128-bit included service uuid */
1298:Generated_Source\PSoC4/CyBle_eventHandler.c ****     if((CYBLE_CLIENT_STATE_INCL_DISCOVERING == CyBle_GetClientState()) &&
1299:Generated_Source\PSoC4/CyBle_eventHandler.c ****        (cyBle_discInclInfo.inclDefHandle != 0u))
1300:Generated_Source\PSoC4/CyBle_eventHandler.c ****     {
1301:Generated_Source\PSoC4/CyBle_eventHandler.c ****         CYBLE_DISC_SRVC128_INFO_T discServInfo;
1302:Generated_Source\PSoC4/CyBle_eventHandler.c **** 
1303:Generated_Source\PSoC4/CyBle_eventHandler.c ****         /* Store service range */
1304:Generated_Source\PSoC4/CyBle_eventHandler.c ****         discServInfo.range = cyBle_discInclInfo.inclHandleRange;
1305:Generated_Source\PSoC4/CyBle_eventHandler.c ****         (void)memcpy((void *) discServInfo.uuid.uuid128.value, (void *)eventParam->value.val, event
1306:Generated_Source\PSoC4/CyBle_eventHandler.c ****         CyBle_CustomcDiscoverServiceEventHandler(&discServInfo);
1307:Generated_Source\PSoC4/CyBle_eventHandler.c ****         
1308:Generated_Source\PSoC4/CyBle_eventHandler.c ****         /* Re-initiate CyBle_GattcFindIncludedServices function, setting the start
1309:Generated_Source\PSoC4/CyBle_eventHandler.c ****            handle to the attribute handle which is placed next to the one used in
1310:Generated_Source\PSoC4/CyBle_eventHandler.c ****            the above step.
1311:Generated_Source\PSoC4/CyBle_eventHandler.c ****         */
1312:Generated_Source\PSoC4/CyBle_eventHandler.c ****         discServInfo.range.startHandle = cyBle_discInclInfo.inclDefHandle + 1;
1313:Generated_Source\PSoC4/CyBle_eventHandler.c ****         discServInfo.range.endHandle = cyBle_serverInfo[cyBle_disCount].range.endHandle;
1314:Generated_Source\PSoC4/CyBle_eventHandler.c ****         if(discServInfo.range.startHandle <= discServInfo.range.endHandle)
1315:Generated_Source\PSoC4/CyBle_eventHandler.c ****         {
1316:Generated_Source\PSoC4/CyBle_eventHandler.c ****             if(CYBLE_ERROR_OK != CyBle_GattcFindIncludedServices(cyBle_connHandle, &discServInfo.ra
1317:Generated_Source\PSoC4/CyBle_eventHandler.c ****             {
1318:Generated_Source\PSoC4/CyBle_eventHandler.c ****                 CyBle_ApplCallback(CYBLE_EVT_GATTC_INCL_DISCOVERY_FAILED, NULL);
1319:Generated_Source\PSoC4/CyBle_eventHandler.c ****                 cyBle_eventHandlerFlag &= (uint8)~CYBLE_AUTO_DISCOVERY;
1320:Generated_Source\PSoC4/CyBle_eventHandler.c ****             }
1321:Generated_Source\PSoC4/CyBle_eventHandler.c ****         }
1322:Generated_Source\PSoC4/CyBle_eventHandler.c ****         else /* Continue discovery of the following service */
1323:Generated_Source\PSoC4/CyBle_eventHandler.c ****         {
1324:Generated_Source\PSoC4/CyBle_eventHandler.c ****             CyBle_NextInclDiscovery(CYBLE_DISCOVERY_CONTINUE);
1325:Generated_Source\PSoC4/CyBle_eventHandler.c ****         }
1326:Generated_Source\PSoC4/CyBle_eventHandler.c ****         
1327:Generated_Source\PSoC4/CyBle_eventHandler.c ****         cyBle_eventHandlerFlag &= (uint8)~CYBLE_CALLBACK;
1328:Generated_Source\PSoC4/CyBle_eventHandler.c ****     #ifdef CYBLE_CUSTOM_CLIENT
1329:Generated_Source\PSoC4/CyBle_eventHandler.c ****         cyBle_discInclInfo.inclDefHandle = 0u;
1330:Generated_Source\PSoC4/CyBle_eventHandler.c ****     #endif /* CYBLE_CUSTOM_CLIENT */
1331:Generated_Source\PSoC4/CyBle_eventHandler.c ****     }
1332:Generated_Source\PSoC4/CyBle_eventHandler.c **** #endif /* CYBLE_CUSTOM_CLIENT */
1333:Generated_Source\PSoC4/CyBle_eventHandler.c **** #ifdef CYBLE_IPS_CLIENT
1334:Generated_Source\PSoC4/CyBle_eventHandler.c ****     if((cyBle_eventHandlerFlag & CYBLE_CALLBACK) != 0u)
1335:Generated_Source\PSoC4/CyBle_eventHandler.c ****     {
1336:Generated_Source\PSoC4/CyBle_eventHandler.c ****         CyBle_IpscReadMultipleResponseEventHandler(eventParam);
1337:Generated_Source\PSoC4/CyBle_eventHandler.c ****     }
1338:Generated_Source\PSoC4/CyBle_eventHandler.c **** #endif /* CYBLE_IPS_CLIENT */
1339:Generated_Source\PSoC4/CyBle_eventHandler.c ****     /* MISRA 16.7 violation workaround */
1340:Generated_Source\PSoC4/CyBle_eventHandler.c ****     eventParam = eventParam;
1341:Generated_Source\PSoC4/CyBle_eventHandler.c **** }
1342:Generated_Source\PSoC4/CyBle_eventHandler.c **** #endif /* CYBLE_GATT_ROLE_CLIENT */
ARM GAS  C:\Users\Tymek\AppData\Local\Temp\ccJhKwfb.s 			page 25


1343:Generated_Source\PSoC4/CyBle_eventHandler.c **** 
1344:Generated_Source\PSoC4/CyBle_eventHandler.c **** 
1345:Generated_Source\PSoC4/CyBle_eventHandler.c **** /****************************************************************************** 
1346:Generated_Source\PSoC4/CyBle_eventHandler.c **** * Function Name: CyBle_DisconnectEventHandler
1347:Generated_Source\PSoC4/CyBle_eventHandler.c **** ***************************************************************************//**
1348:Generated_Source\PSoC4/CyBle_eventHandler.c **** * 
1349:Generated_Source\PSoC4/CyBle_eventHandler.c **** *  Handles the GATT Disconnection event from the BLE stack.
1350:Generated_Source\PSoC4/CyBle_eventHandler.c **** * 
1351:Generated_Source\PSoC4/CyBle_eventHandler.c **** * \return
1352:Generated_Source\PSoC4/CyBle_eventHandler.c **** *  None
1353:Generated_Source\PSoC4/CyBle_eventHandler.c **** * 
1354:Generated_Source\PSoC4/CyBle_eventHandler.c **** ******************************************************************************/
1355:Generated_Source\PSoC4/CyBle_eventHandler.c **** static void CyBle_GattDisconnectEventHandler(void)
1356:Generated_Source\PSoC4/CyBle_eventHandler.c **** {
  27              		.loc 1 1356 0
  28              		.cfi_startproc
  29              		@ args = 0, pretend = 0, frame = 0
  30              		@ frame_needed = 0, uses_anonymous_args = 0
  31              		@ link register save eliminated.
1357:Generated_Source\PSoC4/CyBle_eventHandler.c ****     cyBle_connHandle.attId = 0u;
  32              		.loc 1 1357 0
  33 0000 024B     		ldr	r3, .L2
  34 0002 0022     		movs	r2, #0
  35 0004 5A70     		strb	r2, [r3, #1]
1358:Generated_Source\PSoC4/CyBle_eventHandler.c ****     cyBle_connHandle.bdHandle = 0u;
  36              		.loc 1 1358 0
  37 0006 1A70     		strb	r2, [r3]
1359:Generated_Source\PSoC4/CyBle_eventHandler.c ****     
1360:Generated_Source\PSoC4/CyBle_eventHandler.c ****     #if (CYBLE_GATT_ROLE_CLIENT)
1361:Generated_Source\PSoC4/CyBle_eventHandler.c ****         if(CyBle_GetClientState() == CYBLE_CLIENT_STATE_DISCOVERED)
1362:Generated_Source\PSoC4/CyBle_eventHandler.c ****         {
1363:Generated_Source\PSoC4/CyBle_eventHandler.c ****             CyBle_SetClientState(CYBLE_CLIENT_STATE_DISCONNECTED_DISCOVERED);
1364:Generated_Source\PSoC4/CyBle_eventHandler.c ****         }
1365:Generated_Source\PSoC4/CyBle_eventHandler.c ****         else
1366:Generated_Source\PSoC4/CyBle_eventHandler.c ****         {
1367:Generated_Source\PSoC4/CyBle_eventHandler.c ****             CyBle_SetClientState(CYBLE_CLIENT_STATE_DISCONNECTED);
1368:Generated_Source\PSoC4/CyBle_eventHandler.c ****         }
1369:Generated_Source\PSoC4/CyBle_eventHandler.c ****     #endif /* CYBLE_GATT_ROLE_CLIENT */
1370:Generated_Source\PSoC4/CyBle_eventHandler.c ****         
1371:Generated_Source\PSoC4/CyBle_eventHandler.c ****     #ifdef CYBLE_CPS_SERVER
1372:Generated_Source\PSoC4/CyBle_eventHandler.c ****         #if CYBLE_GAP_ROLE_BROADCASTER
1373:Generated_Source\PSoC4/CyBle_eventHandler.c ****             CyBle_CpssDisconnectEventHandler();
1374:Generated_Source\PSoC4/CyBle_eventHandler.c ****         #endif /* CYBLE_GAP_ROLE_BROADCASTER */
1375:Generated_Source\PSoC4/CyBle_eventHandler.c ****     #endif /* CYBLE_CPS_SERVER */
1376:Generated_Source\PSoC4/CyBle_eventHandler.c **** 
1377:Generated_Source\PSoC4/CyBle_eventHandler.c ****     #ifdef CYBLE_CPS_CLIENT
1378:Generated_Source\PSoC4/CyBle_eventHandler.c ****         CyBle_CpscDisconnectEventHandler();
1379:Generated_Source\PSoC4/CyBle_eventHandler.c ****     #endif /* CYBLE_CPS_CLIENT */
1380:Generated_Source\PSoC4/CyBle_eventHandler.c **** 
1381:Generated_Source\PSoC4/CyBle_eventHandler.c ****     #ifdef CYBLE_IAS_SERVER
1382:Generated_Source\PSoC4/CyBle_eventHandler.c ****         CyBle_IassDisconnectEventHandler();
1383:Generated_Source\PSoC4/CyBle_eventHandler.c ****     #endif /* CYBLE_IAS_SERVER */
1384:Generated_Source\PSoC4/CyBle_eventHandler.c ****     
1385:Generated_Source\PSoC4/CyBle_eventHandler.c ****     #ifdef CYBLE_GLS_SERVER
1386:Generated_Source\PSoC4/CyBle_eventHandler.c ****         CyBle_GlsInit();
1387:Generated_Source\PSoC4/CyBle_eventHandler.c ****     #endif /* CYBLE_GLS_SERVER */
1388:Generated_Source\PSoC4/CyBle_eventHandler.c ****     
ARM GAS  C:\Users\Tymek\AppData\Local\Temp\ccJhKwfb.s 			page 26


1389:Generated_Source\PSoC4/CyBle_eventHandler.c ****     #ifdef CYBLE_LNS_SERVER
1390:Generated_Source\PSoC4/CyBle_eventHandler.c ****         CyBle_LnsInit();
1391:Generated_Source\PSoC4/CyBle_eventHandler.c ****     #endif /* CYBLE_LNS_SERVER */
1392:Generated_Source\PSoC4/CyBle_eventHandler.c ****     
1393:Generated_Source\PSoC4/CyBle_eventHandler.c ****     #ifdef CYBLE_UDS_SERVER
1394:Generated_Source\PSoC4/CyBle_eventHandler.c ****         CyBle_UdsInit();
1395:Generated_Source\PSoC4/CyBle_eventHandler.c ****     #endif /* CYBLE_UDS_SERVER */
1396:Generated_Source\PSoC4/CyBle_eventHandler.c **** }
  38              		.loc 1 1396 0
  39              		@ sp needed
  40 0008 7047     		bx	lr
  41              	.L3:
  42 000a C046     		.align	2
  43              	.L2:
  44 000c 00000000 		.word	cyBle_connHandle
  45              		.cfi_endproc
  46              	.LFE4:
  47              		.size	CyBle_GattDisconnectEventHandler, .-CyBle_GattDisconnectEventHandler
  48              		.section	.text.CyBle_WriteReqHandler,"ax",%progbits
  49              		.align	2
  50              		.code	16
  51              		.thumb_func
  52              		.type	CyBle_WriteReqHandler, %function
  53              	CyBle_WriteReqHandler:
  54              	.LFB2:
 250:Generated_Source\PSoC4/CyBle_eventHandler.c ****     CYBLE_GATT_ERR_CODE_T gattErr;
  55              		.loc 1 250 0
  56              		.cfi_startproc
  57              		@ args = 0, pretend = 0, frame = 8
  58              		@ frame_needed = 0, uses_anonymous_args = 0
  59              	.LVL0:
  60 0000 10B5     		push	{r4, lr}
  61              		.cfi_def_cfa_offset 8
  62              		.cfi_offset 4, -8
  63              		.cfi_offset 14, -4
  64 0002 82B0     		sub	sp, sp, #8
  65              		.cfi_def_cfa_offset 16
  66 0004 0400     		movs	r4, r0
 256:Generated_Source\PSoC4/CyBle_eventHandler.c **** #ifdef CYBLE_AIOS_SERVER
  67              		.loc 1 256 0
  68 0006 FFF7FEFF 		bl	CyBle_GattsWriteEventHandler
  69              	.LVL1:
 300:Generated_Source\PSoC4/CyBle_eventHandler.c ****     {
  70              		.loc 1 300 0
  71 000a 0E4B     		ldr	r3, .L8
  72 000c 1B78     		ldrb	r3, [r3]
  73 000e DB07     		lsls	r3, r3, #31
  74 0010 02D5     		bpl	.L5
 302:Generated_Source\PSoC4/CyBle_eventHandler.c ****     }
  75              		.loc 1 302 0
  76 0012 2000     		movs	r0, r4
  77              	.LVL2:
  78 0014 FFF7FEFF 		bl	CyBle_BtsWriteEventHandler
  79              	.LVL3:
  80              	.L5:
 433:Generated_Source\PSoC4/CyBle_eventHandler.c ****     {
  81              		.loc 1 433 0
ARM GAS  C:\Users\Tymek\AppData\Local\Temp\ccJhKwfb.s 			page 27


  82 0018 0A4B     		ldr	r3, .L8
  83 001a 1B78     		ldrb	r3, [r3]
  84 001c DB07     		lsls	r3, r3, #31
  85 001e 0ED4     		bmi	.L4
 435:Generated_Source\PSoC4/CyBle_eventHandler.c ****         {
  86              		.loc 1 435 0
  87 0020 0028     		cmp	r0, #0
  88 0022 09D0     		beq	.L7
  89              	.LBB2:
 439:Generated_Source\PSoC4/CyBle_eventHandler.c ****             err_param.attrHandle = eventParam->handleValPair.attrHandle;
  90              		.loc 1 439 0
  91 0024 01A9     		add	r1, sp, #4
  92 0026 1223     		movs	r3, #18
  93 0028 8B70     		strb	r3, [r1, #2]
 440:Generated_Source\PSoC4/CyBle_eventHandler.c ****             err_param.errorCode = gattErr;
  94              		.loc 1 440 0
  95 002a A389     		ldrh	r3, [r4, #12]
  96 002c 0B80     		strh	r3, [r1]
 441:Generated_Source\PSoC4/CyBle_eventHandler.c **** 
  97              		.loc 1 441 0
  98 002e C870     		strb	r0, [r1, #3]
 444:Generated_Source\PSoC4/CyBle_eventHandler.c ****         }
  99              		.loc 1 444 0
 100 0030 2068     		ldr	r0, [r4]
 101              	.LVL4:
 102 0032 FFF7FEFF 		bl	CyBle_GattsErrorRsp
 103              	.LVL5:
 104              	.LBE2:
 105 0036 02E0     		b	.L4
 106              	.LVL6:
 107              	.L7:
 448:Generated_Source\PSoC4/CyBle_eventHandler.c ****         }
 108              		.loc 1 448 0
 109 0038 2068     		ldr	r0, [r4]
 110              	.LVL7:
 111 003a FFF7FEFF 		bl	CyBle_GattsWriteRsp
 112              	.LVL8:
 113              	.L4:
 451:Generated_Source\PSoC4/CyBle_eventHandler.c **** 
 114              		.loc 1 451 0
 115 003e 02B0     		add	sp, sp, #8
 116              		@ sp needed
 117              	.LVL9:
 118 0040 10BD     		pop	{r4, pc}
 119              	.L9:
 120 0042 C046     		.align	2
 121              	.L8:
 122 0044 00000000 		.word	cyBle_eventHandlerFlag
 123              		.cfi_endproc
 124              	.LFE2:
 125              		.size	CyBle_WriteReqHandler, .-CyBle_WriteReqHandler
 126              		.section	.text.CyBle_IsDeviceAddressValid,"ax",%progbits
 127              		.align	2
 128              		.global	CyBle_IsDeviceAddressValid
 129              		.code	16
 130              		.thumb_func
 131              		.type	CyBle_IsDeviceAddressValid, %function
ARM GAS  C:\Users\Tymek\AppData\Local\Temp\ccJhKwfb.s 			page 28


 132              	CyBle_IsDeviceAddressValid:
 133              	.LFB7:
1397:Generated_Source\PSoC4/CyBle_eventHandler.c **** 
1398:Generated_Source\PSoC4/CyBle_eventHandler.c **** 
1399:Generated_Source\PSoC4/CyBle_eventHandler.c **** /****************************************************************************** 
1400:Generated_Source\PSoC4/CyBle_eventHandler.c **** * Function Name: CyBle_TimeOutEventHandler
1401:Generated_Source\PSoC4/CyBle_eventHandler.c **** ***************************************************************************//**
1402:Generated_Source\PSoC4/CyBle_eventHandler.c **** * 
1403:Generated_Source\PSoC4/CyBle_eventHandler.c **** *  Handles the CYBLE_EVT_TIMEOUT event from the BLE stack.
1404:Generated_Source\PSoC4/CyBle_eventHandler.c **** * 
1405:Generated_Source\PSoC4/CyBle_eventHandler.c **** *  \param eventParam: The pointer to a structure of type CYBLE_TO_REASON_CODE_T.
1406:Generated_Source\PSoC4/CyBle_eventHandler.c **** * 
1407:Generated_Source\PSoC4/CyBle_eventHandler.c **** * \return
1408:Generated_Source\PSoC4/CyBle_eventHandler.c **** *  None
1409:Generated_Source\PSoC4/CyBle_eventHandler.c **** * 
1410:Generated_Source\PSoC4/CyBle_eventHandler.c **** ******************************************************************************/
1411:Generated_Source\PSoC4/CyBle_eventHandler.c **** static void CyBle_TimeOutEventHandler(const CYBLE_TO_REASON_CODE_T *eventParam)
1412:Generated_Source\PSoC4/CyBle_eventHandler.c **** {
1413:Generated_Source\PSoC4/CyBle_eventHandler.c ****     if(*eventParam == CYBLE_GATT_RSP_TO)
1414:Generated_Source\PSoC4/CyBle_eventHandler.c ****     {
1415:Generated_Source\PSoC4/CyBle_eventHandler.c ****     #if (CYBLE_GATT_ROLE_CLIENT)
1416:Generated_Source\PSoC4/CyBle_eventHandler.c ****         if((cyBle_eventHandlerFlag & CYBLE_AUTO_DISCOVERY) != 0u)
1417:Generated_Source\PSoC4/CyBle_eventHandler.c ****         {
1418:Generated_Source\PSoC4/CyBle_eventHandler.c ****             switch(CyBle_GetClientState())
1419:Generated_Source\PSoC4/CyBle_eventHandler.c ****             {
1420:Generated_Source\PSoC4/CyBle_eventHandler.c ****                 case CYBLE_CLIENT_STATE_SRVC_DISCOVERING:
1421:Generated_Source\PSoC4/CyBle_eventHandler.c ****                     CyBle_ApplCallback(CYBLE_EVT_GATTC_SRVC_DISCOVERY_FAILED, NULL);
1422:Generated_Source\PSoC4/CyBle_eventHandler.c ****                     break;
1423:Generated_Source\PSoC4/CyBle_eventHandler.c ****                 case CYBLE_CLIENT_STATE_INCL_DISCOVERING:
1424:Generated_Source\PSoC4/CyBle_eventHandler.c ****                     CyBle_ApplCallback(CYBLE_EVT_GATTC_INCL_DISCOVERY_FAILED, NULL);
1425:Generated_Source\PSoC4/CyBle_eventHandler.c ****                     break;
1426:Generated_Source\PSoC4/CyBle_eventHandler.c ****                 case CYBLE_CLIENT_STATE_CHAR_DISCOVERING:
1427:Generated_Source\PSoC4/CyBle_eventHandler.c ****                     CyBle_ApplCallback(CYBLE_EVT_GATTC_CHAR_DISCOVERY_FAILED, NULL);
1428:Generated_Source\PSoC4/CyBle_eventHandler.c ****                     break;
1429:Generated_Source\PSoC4/CyBle_eventHandler.c ****                 case CYBLE_CLIENT_STATE_DESCR_DISCOVERING:
1430:Generated_Source\PSoC4/CyBle_eventHandler.c ****                     CyBle_ApplCallback(CYBLE_EVT_GATTC_DESCR_DISCOVERY_FAILED, NULL);
1431:Generated_Source\PSoC4/CyBle_eventHandler.c ****                     break;
1432:Generated_Source\PSoC4/CyBle_eventHandler.c ****                 default:        /* Other states should not be set in Auto discovery mode */
1433:Generated_Source\PSoC4/CyBle_eventHandler.c ****                     break;
1434:Generated_Source\PSoC4/CyBle_eventHandler.c ****             }
1435:Generated_Source\PSoC4/CyBle_eventHandler.c ****             cyBle_eventHandlerFlag &= (uint8)~CYBLE_AUTO_DISCOVERY;
1436:Generated_Source\PSoC4/CyBle_eventHandler.c ****             CyBle_SetClientState(CYBLE_CLIENT_STATE_CONNECTED);
1437:Generated_Source\PSoC4/CyBle_eventHandler.c ****         }
1438:Generated_Source\PSoC4/CyBle_eventHandler.c ****     #endif /* CYBLE_GATT_ROLE_CLIENT */
1439:Generated_Source\PSoC4/CyBle_eventHandler.c ****     #ifdef CYBLE_CPS_SERVER
1440:Generated_Source\PSoC4/CyBle_eventHandler.c ****         CyBle_CpssTimeOutEventHandler();
1441:Generated_Source\PSoC4/CyBle_eventHandler.c ****     #endif /* CYBLE_CPS_SERVER */
1442:Generated_Source\PSoC4/CyBle_eventHandler.c ****     }
1443:Generated_Source\PSoC4/CyBle_eventHandler.c ****     
1444:Generated_Source\PSoC4/CyBle_eventHandler.c ****     /* Connection procedure timeout */
1445:Generated_Source\PSoC4/CyBle_eventHandler.c ****     if(*eventParam == CYBLE_GENERIC_TO)
1446:Generated_Source\PSoC4/CyBle_eventHandler.c ****     {
1447:Generated_Source\PSoC4/CyBle_eventHandler.c ****     #if(CYBLE_GAP_ROLE_CENTRAL)
1448:Generated_Source\PSoC4/CyBle_eventHandler.c ****         if(CyBle_GetState() == CYBLE_STATE_CONNECTING)
1449:Generated_Source\PSoC4/CyBle_eventHandler.c ****         {
1450:Generated_Source\PSoC4/CyBle_eventHandler.c ****             (void)CyBle_GapcCancelDeviceConnection();
1451:Generated_Source\PSoC4/CyBle_eventHandler.c ****         }
ARM GAS  C:\Users\Tymek\AppData\Local\Temp\ccJhKwfb.s 			page 29


1452:Generated_Source\PSoC4/CyBle_eventHandler.c ****     #endif /* CYBLE_GAP_ROLE_CENTRAL */
1453:Generated_Source\PSoC4/CyBle_eventHandler.c ****     }
1454:Generated_Source\PSoC4/CyBle_eventHandler.c **** }
1455:Generated_Source\PSoC4/CyBle_eventHandler.c **** 
1456:Generated_Source\PSoC4/CyBle_eventHandler.c **** 
1457:Generated_Source\PSoC4/CyBle_eventHandler.c **** /****************************************************************************** 
1458:Generated_Source\PSoC4/CyBle_eventHandler.c **** * Function Name: CyBle_GattConnectReqHandler
1459:Generated_Source\PSoC4/CyBle_eventHandler.c **** ***************************************************************************//**
1460:Generated_Source\PSoC4/CyBle_eventHandler.c **** * 
1461:Generated_Source\PSoC4/CyBle_eventHandler.c **** *  Handles the GATT connect event from the BLE stack.
1462:Generated_Source\PSoC4/CyBle_eventHandler.c **** * 
1463:Generated_Source\PSoC4/CyBle_eventHandler.c **** * \return
1464:Generated_Source\PSoC4/CyBle_eventHandler.c **** *  None
1465:Generated_Source\PSoC4/CyBle_eventHandler.c **** * 
1466:Generated_Source\PSoC4/CyBle_eventHandler.c **** ******************************************************************************/
1467:Generated_Source\PSoC4/CyBle_eventHandler.c **** static void CyBle_GattConnectReqHandler(void)
1468:Generated_Source\PSoC4/CyBle_eventHandler.c **** {
1469:Generated_Source\PSoC4/CyBle_eventHandler.c ****     #ifdef CYBLE_CGMS_SERVER
1470:Generated_Source\PSoC4/CyBle_eventHandler.c ****         CyBle_CgmsInit();
1471:Generated_Source\PSoC4/CyBle_eventHandler.c ****     #endif /* CYBLE_CGMS_SERVER */
1472:Generated_Source\PSoC4/CyBle_eventHandler.c ****     
1473:Generated_Source\PSoC4/CyBle_eventHandler.c ****     #ifdef CYBLE_CPS_SERVER
1474:Generated_Source\PSoC4/CyBle_eventHandler.c ****         CyBle_CpssConnectEventHandler();
1475:Generated_Source\PSoC4/CyBle_eventHandler.c ****     #endif /* CYBLE_CPS_SERVER */
1476:Generated_Source\PSoC4/CyBle_eventHandler.c ****     
1477:Generated_Source\PSoC4/CyBle_eventHandler.c ****     #ifdef CYBLE_CSCS_SERVER
1478:Generated_Source\PSoC4/CyBle_eventHandler.c ****             CyBle_CscsInit();
1479:Generated_Source\PSoC4/CyBle_eventHandler.c ****     #endif /* CYBLE_CSCS_SERVER */
1480:Generated_Source\PSoC4/CyBle_eventHandler.c ****     
1481:Generated_Source\PSoC4/CyBle_eventHandler.c ****     #ifdef CYBLE_LLS_SERVER
1482:Generated_Source\PSoC4/CyBle_eventHandler.c ****         CyBle_LlssConnectEventHandler();
1483:Generated_Source\PSoC4/CyBle_eventHandler.c ****     #endif /* CYBLE_LLS_SERVER */
1484:Generated_Source\PSoC4/CyBle_eventHandler.c ****     
1485:Generated_Source\PSoC4/CyBle_eventHandler.c ****     #ifdef CYBLE_HIDS_SERVER
1486:Generated_Source\PSoC4/CyBle_eventHandler.c ****         CyBle_HidssOnDeviceConnected();
1487:Generated_Source\PSoC4/CyBle_eventHandler.c ****     #endif /* CYBLE_HIDS_SERVER */
1488:Generated_Source\PSoC4/CyBle_eventHandler.c **** 
1489:Generated_Source\PSoC4/CyBle_eventHandler.c ****     #ifdef CYBLE_RSCS_SERVER
1490:Generated_Source\PSoC4/CyBle_eventHandler.c ****         CyBle_RscsInit();
1491:Generated_Source\PSoC4/CyBle_eventHandler.c ****     #endif /* CYBLE_RSCS_SERVER */
1492:Generated_Source\PSoC4/CyBle_eventHandler.c **** }
1493:Generated_Source\PSoC4/CyBle_eventHandler.c **** 
1494:Generated_Source\PSoC4/CyBle_eventHandler.c **** 
1495:Generated_Source\PSoC4/CyBle_eventHandler.c **** #if (CYBLE_GATT_ROLE_SERVER || CYBLE_GATT_ROLE_CLIENT)
1496:Generated_Source\PSoC4/CyBle_eventHandler.c **** 
1497:Generated_Source\PSoC4/CyBle_eventHandler.c **** /****************************************************************************** 
1498:Generated_Source\PSoC4/CyBle_eventHandler.c **** * Function Name: CyBle_IsDeviceAddressValid
1499:Generated_Source\PSoC4/CyBle_eventHandler.c **** ***************************************************************************//**
1500:Generated_Source\PSoC4/CyBle_eventHandler.c **** * 
1501:Generated_Source\PSoC4/CyBle_eventHandler.c **** *  This function verifies that BLE public address has been programmed to SFLASH 
1502:Generated_Source\PSoC4/CyBle_eventHandler.c **** *  during manufacture. It could be used to verify if public device address is 
1503:Generated_Source\PSoC4/CyBle_eventHandler.c **** *  programmed to flash memory.
1504:Generated_Source\PSoC4/CyBle_eventHandler.c **** * 
1505:Generated_Source\PSoC4/CyBle_eventHandler.c **** *  \param deviceAddress: the pointer to the BD address of type CYBLE_GAP_BD_ADDR_T. 
1506:Generated_Source\PSoC4/CyBle_eventHandler.c **** * 
1507:Generated_Source\PSoC4/CyBle_eventHandler.c **** * \return
1508:Generated_Source\PSoC4/CyBle_eventHandler.c **** *  Non zero value when a device address differs from the default SFLASH content.
ARM GAS  C:\Users\Tymek\AppData\Local\Temp\ccJhKwfb.s 			page 30


1509:Generated_Source\PSoC4/CyBle_eventHandler.c **** * 
1510:Generated_Source\PSoC4/CyBle_eventHandler.c **** ******************************************************************************/
1511:Generated_Source\PSoC4/CyBle_eventHandler.c **** uint8 CyBle_IsDeviceAddressValid(const CYBLE_GAP_BD_ADDR_T *deviceAddress)
1512:Generated_Source\PSoC4/CyBle_eventHandler.c **** {
 134              		.loc 1 1512 0
 135              		.cfi_startproc
 136              		@ args = 0, pretend = 0, frame = 0
 137              		@ frame_needed = 0, uses_anonymous_args = 0
 138              		@ link register save eliminated.
 139              	.LVL10:
1513:Generated_Source\PSoC4/CyBle_eventHandler.c ****     uint8 i;
1514:Generated_Source\PSoC4/CyBle_eventHandler.c ****     uint8 addressValid = 0u;
1515:Generated_Source\PSoC4/CyBle_eventHandler.c ****     
1516:Generated_Source\PSoC4/CyBle_eventHandler.c ****     if(deviceAddress -> type == CYBLE_GAP_ADDR_TYPE_PUBLIC)  
 140              		.loc 1 1516 0
 141 0000 8379     		ldrb	r3, [r0, #6]
 142 0002 002B     		cmp	r3, #0
 143 0004 07D0     		beq	.L14
1514:Generated_Source\PSoC4/CyBle_eventHandler.c ****     
 144              		.loc 1 1514 0
 145 0006 0020     		movs	r0, #0
 146              	.LVL11:
 147 0008 0BE0     		b	.L12
 148              	.LVL12:
 149              	.L13:
1517:Generated_Source\PSoC4/CyBle_eventHandler.c ****     {
1518:Generated_Source\PSoC4/CyBle_eventHandler.c ****         for(i = 0u; i < CYBLE_GAP_BD_ADDR_SIZE; i++)
1519:Generated_Source\PSoC4/CyBle_eventHandler.c ****         {
1520:Generated_Source\PSoC4/CyBle_eventHandler.c ****             if(deviceAddress->bdAddr[i] != 0u)
 150              		.loc 1 1520 0
 151 000a C25C     		ldrb	r2, [r0, r3]
 152 000c 002A     		cmp	r2, #0
 153 000e 07D1     		bne	.L15
1518:Generated_Source\PSoC4/CyBle_eventHandler.c ****         {
 154              		.loc 1 1518 0 discriminator 2
 155 0010 0133     		adds	r3, r3, #1
 156              	.LVL13:
 157 0012 DBB2     		uxtb	r3, r3
 158              	.LVL14:
 159 0014 00E0     		b	.L11
 160              	.LVL15:
 161              	.L14:
 162 0016 0023     		movs	r3, #0
 163              	.L11:
 164              	.LVL16:
1518:Generated_Source\PSoC4/CyBle_eventHandler.c ****         {
 165              		.loc 1 1518 0 is_stmt 0 discriminator 1
 166 0018 052B     		cmp	r3, #5
 167 001a F6D9     		bls	.L13
1514:Generated_Source\PSoC4/CyBle_eventHandler.c ****     
 168              		.loc 1 1514 0 is_stmt 1
 169 001c 0020     		movs	r0, #0
 170              	.LVL17:
 171 001e 00E0     		b	.L12
 172              	.LVL18:
 173              	.L15:
1521:Generated_Source\PSoC4/CyBle_eventHandler.c ****             {
ARM GAS  C:\Users\Tymek\AppData\Local\Temp\ccJhKwfb.s 			page 31


1522:Generated_Source\PSoC4/CyBle_eventHandler.c ****                 addressValid = 1u;
 174              		.loc 1 1522 0
 175 0020 0120     		movs	r0, #1
 176              	.LVL19:
 177              	.L12:
1523:Generated_Source\PSoC4/CyBle_eventHandler.c ****                 break;
1524:Generated_Source\PSoC4/CyBle_eventHandler.c ****             }
1525:Generated_Source\PSoC4/CyBle_eventHandler.c ****         }
1526:Generated_Source\PSoC4/CyBle_eventHandler.c ****     }
1527:Generated_Source\PSoC4/CyBle_eventHandler.c ****     return (addressValid);
1528:Generated_Source\PSoC4/CyBle_eventHandler.c **** }
 178              		.loc 1 1528 0
 179              		@ sp needed
 180 0022 7047     		bx	lr
 181              		.cfi_endproc
 182              	.LFE7:
 183              		.size	CyBle_IsDeviceAddressValid, .-CyBle_IsDeviceAddressValid
 184              		.section	.text.CyBle_EventHandler,"ax",%progbits
 185              		.align	2
 186              		.global	CyBle_EventHandler
 187              		.code	16
 188              		.thumb_func
 189              		.type	CyBle_EventHandler, %function
 190              	CyBle_EventHandler:
 191              	.LFB10:
1529:Generated_Source\PSoC4/CyBle_eventHandler.c **** #endif /* CYBLE_GATT_ROLE_SERVER || CYBLE_GATT_ROLE_CLIENT */
1530:Generated_Source\PSoC4/CyBle_eventHandler.c **** 
1531:Generated_Source\PSoC4/CyBle_eventHandler.c **** 
1532:Generated_Source\PSoC4/CyBle_eventHandler.c **** /****************************************************************************** 
1533:Generated_Source\PSoC4/CyBle_eventHandler.c **** * Function Name: CyBle_L2Cap_ConnParamUpdateRspHandler
1534:Generated_Source\PSoC4/CyBle_eventHandler.c **** ***************************************************************************//**
1535:Generated_Source\PSoC4/CyBle_eventHandler.c **** * 
1536:Generated_Source\PSoC4/CyBle_eventHandler.c **** *  Handles the L2CAP connection parameter response event from
1537:Generated_Source\PSoC4/CyBle_eventHandler.c **** *  the BLE stack.
1538:Generated_Source\PSoC4/CyBle_eventHandler.c **** * 
1539:Generated_Source\PSoC4/CyBle_eventHandler.c **** *  \param response:
1540:Generated_Source\PSoC4/CyBle_eventHandler.c **** *      * Accepted = 0x0000
1541:Generated_Source\PSoC4/CyBle_eventHandler.c **** *      * Rejected = 0x0001
1542:Generated_Source\PSoC4/CyBle_eventHandler.c **** * 
1543:Generated_Source\PSoC4/CyBle_eventHandler.c **** * \return
1544:Generated_Source\PSoC4/CyBle_eventHandler.c **** *  None
1545:Generated_Source\PSoC4/CyBle_eventHandler.c **** * 
1546:Generated_Source\PSoC4/CyBle_eventHandler.c **** ******************************************************************************/
1547:Generated_Source\PSoC4/CyBle_eventHandler.c **** static void CyBle_L2Cap_ConnParamUpdateRspEventHandler(uint16 response)
1548:Generated_Source\PSoC4/CyBle_eventHandler.c **** {
1549:Generated_Source\PSoC4/CyBle_eventHandler.c ****     #ifdef CYBLE_CPS_SERVER
1550:Generated_Source\PSoC4/CyBle_eventHandler.c ****         CyBle_CpssConnParamUpdateRspEventHandler(response);
1551:Generated_Source\PSoC4/CyBle_eventHandler.c ****     #endif /* CYBLE_CPS_SERVER */
1552:Generated_Source\PSoC4/CyBle_eventHandler.c ****     
1553:Generated_Source\PSoC4/CyBle_eventHandler.c ****     /* Unreferenced variable warning workaround */
1554:Generated_Source\PSoC4/CyBle_eventHandler.c ****     if(response != 0u)
1555:Generated_Source\PSoC4/CyBle_eventHandler.c ****     {
1556:Generated_Source\PSoC4/CyBle_eventHandler.c ****     }
1557:Generated_Source\PSoC4/CyBle_eventHandler.c **** }
1558:Generated_Source\PSoC4/CyBle_eventHandler.c **** 
1559:Generated_Source\PSoC4/CyBle_eventHandler.c **** 
1560:Generated_Source\PSoC4/CyBle_eventHandler.c **** /****************************************************************************** 
ARM GAS  C:\Users\Tymek\AppData\Local\Temp\ccJhKwfb.s 			page 32


1561:Generated_Source\PSoC4/CyBle_eventHandler.c **** * Function Name: CyBle_GapConnUpdateCompleteEventHandler
1562:Generated_Source\PSoC4/CyBle_eventHandler.c **** ***************************************************************************//**
1563:Generated_Source\PSoC4/CyBle_eventHandler.c **** * 
1564:Generated_Source\PSoC4/CyBle_eventHandler.c **** *  Handles the CYBLE_EVT_GAP_CONNECTION_UPDATE_COMPLETE event from
1565:Generated_Source\PSoC4/CyBle_eventHandler.c **** *  the BLE stack.
1566:Generated_Source\PSoC4/CyBle_eventHandler.c **** * 
1567:Generated_Source\PSoC4/CyBle_eventHandler.c **** *  \param eventParam: The pointer to the data structure specified by the event.
1568:Generated_Source\PSoC4/CyBle_eventHandler.c **** * 
1569:Generated_Source\PSoC4/CyBle_eventHandler.c **** * \return
1570:Generated_Source\PSoC4/CyBle_eventHandler.c **** *  None
1571:Generated_Source\PSoC4/CyBle_eventHandler.c **** * 
1572:Generated_Source\PSoC4/CyBle_eventHandler.c **** ******************************************************************************/
1573:Generated_Source\PSoC4/CyBle_eventHandler.c **** static void CyBle_GapConnUpdateCompleteEventHandler(const CYBLE_GAP_CONN_PARAM_UPDATED_IN_CONTROLLE
1574:Generated_Source\PSoC4/CyBle_eventHandler.c **** {
1575:Generated_Source\PSoC4/CyBle_eventHandler.c ****     #ifdef CYBLE_CPS_SERVER
1576:Generated_Source\PSoC4/CyBle_eventHandler.c ****         CyBle_CpssConnUpdateCompleteEventHandler(eventParam);
1577:Generated_Source\PSoC4/CyBle_eventHandler.c ****     #endif /* CYBLE_CPS_SERVER */
1578:Generated_Source\PSoC4/CyBle_eventHandler.c ****     
1579:Generated_Source\PSoC4/CyBle_eventHandler.c ****     /* Unreferenced variable warning workaround */
1580:Generated_Source\PSoC4/CyBle_eventHandler.c ****     if(eventParam != 0u)
1581:Generated_Source\PSoC4/CyBle_eventHandler.c ****     {
1582:Generated_Source\PSoC4/CyBle_eventHandler.c ****     }
1583:Generated_Source\PSoC4/CyBle_eventHandler.c **** }
1584:Generated_Source\PSoC4/CyBle_eventHandler.c **** 
1585:Generated_Source\PSoC4/CyBle_eventHandler.c **** 
1586:Generated_Source\PSoC4/CyBle_eventHandler.c **** /****************************************************************************** 
1587:Generated_Source\PSoC4/CyBle_eventHandler.c **** * Function Name: CyBle_EventHandler
1588:Generated_Source\PSoC4/CyBle_eventHandler.c **** ***************************************************************************//**
1589:Generated_Source\PSoC4/CyBle_eventHandler.c **** * 
1590:Generated_Source\PSoC4/CyBle_eventHandler.c **** *  Handles the events from the BLE stack
1591:Generated_Source\PSoC4/CyBle_eventHandler.c **** * 
1592:Generated_Source\PSoC4/CyBle_eventHandler.c **** *  \param eventCode:    the event code
1593:Generated_Source\PSoC4/CyBle_eventHandler.c **** *  \param eventParam:  the event parameters
1594:Generated_Source\PSoC4/CyBle_eventHandler.c **** * 
1595:Generated_Source\PSoC4/CyBle_eventHandler.c **** * \return
1596:Generated_Source\PSoC4/CyBle_eventHandler.c **** *  None.
1597:Generated_Source\PSoC4/CyBle_eventHandler.c **** * 
1598:Generated_Source\PSoC4/CyBle_eventHandler.c **** ******************************************************************************/
1599:Generated_Source\PSoC4/CyBle_eventHandler.c **** void CyBle_EventHandler(uint8 eventCode, void *eventParam)
1600:Generated_Source\PSoC4/CyBle_eventHandler.c **** {
 192              		.loc 1 1600 0
 193              		.cfi_startproc
 194              		@ args = 0, pretend = 0, frame = 8
 195              		@ frame_needed = 0, uses_anonymous_args = 0
 196              	.LVL20:
 197 0000 F0B5     		push	{r4, r5, r6, r7, lr}
 198              		.cfi_def_cfa_offset 20
 199              		.cfi_offset 4, -20
 200              		.cfi_offset 5, -16
 201              		.cfi_offset 6, -12
 202              		.cfi_offset 7, -8
 203              		.cfi_offset 14, -4
 204 0002 83B0     		sub	sp, sp, #12
 205              		.cfi_def_cfa_offset 32
 206 0004 0500     		movs	r5, r0
 207 0006 0C00     		movs	r4, r1
1601:Generated_Source\PSoC4/CyBle_eventHandler.c ****     cyBle_eventHandlerFlag |= CYBLE_CALLBACK;
ARM GAS  C:\Users\Tymek\AppData\Local\Temp\ccJhKwfb.s 			page 33


 208              		.loc 1 1601 0
 209 0008 7C4A     		ldr	r2, .L41
 210 000a 1178     		ldrb	r1, [r2]
 211              	.LVL21:
 212 000c 0123     		movs	r3, #1
 213 000e 0B43     		orrs	r3, r1
 214 0010 DBB2     		uxtb	r3, r3
 215 0012 1370     		strb	r3, [r2]
1602:Generated_Source\PSoC4/CyBle_eventHandler.c **** 
1603:Generated_Source\PSoC4/CyBle_eventHandler.c ****     /* Common Profile event handling */
1604:Generated_Source\PSoC4/CyBle_eventHandler.c ****     switch(eventCode)
 216              		.loc 1 1604 0
 217 0014 5028     		cmp	r0, #80
 218 0016 00D9     		bls	.LCB187
 219 0018 DFE0     		b	.L17	@long jump
 220              	.LCB187:
 221 001a 8300     		lsls	r3, r0, #2
 222 001c 784A     		ldr	r2, .L41+4
 223 001e D358     		ldr	r3, [r2, r3]
 224 0020 9F46     		mov	pc, r3
 225              		.section	.rodata
 226              		.align	2
 227              	.L19:
 228 0000 DA010000 		.word	.L17
 229 0004 22000000 		.word	.L18
 230 0008 DA010000 		.word	.L17
 231 000c DA010000 		.word	.L17
 232 0010 DA010000 		.word	.L17
 233 0014 9A000000 		.word	.L20
 234 0018 A2000000 		.word	.L21
 235 001c DA010000 		.word	.L17
 236 0020 DA010000 		.word	.L17
 237 0024 DA010000 		.word	.L17
 238 0028 DA010000 		.word	.L17
 239 002c DA010000 		.word	.L17
 240 0030 DA010000 		.word	.L17
 241 0034 DA010000 		.word	.L17
 242 0038 DA010000 		.word	.L17
 243 003c DA010000 		.word	.L17
 244 0040 DA010000 		.word	.L17
 245 0044 DA010000 		.word	.L17
 246 0048 DA010000 		.word	.L17
 247 004c DA010000 		.word	.L17
 248 0050 DA010000 		.word	.L17
 249 0054 DA010000 		.word	.L17
 250 0058 DA010000 		.word	.L17
 251 005c DA010000 		.word	.L17
 252 0060 DA010000 		.word	.L17
 253 0064 DA010000 		.word	.L17
 254 0068 DA010000 		.word	.L17
 255 006c DA010000 		.word	.L17
 256 0070 DA010000 		.word	.L17
 257 0074 DA010000 		.word	.L17
 258 0078 DA010000 		.word	.L17
 259 007c DA010000 		.word	.L17
 260 0080 DA010000 		.word	.L17
 261 0084 D6000000 		.word	.L22
ARM GAS  C:\Users\Tymek\AppData\Local\Temp\ccJhKwfb.s 			page 34


 262 0088 DA010000 		.word	.L17
 263 008c DA010000 		.word	.L17
 264 0090 DA010000 		.word	.L17
 265 0094 DA010000 		.word	.L17
 266 0098 26010000 		.word	.L23
 267 009c 16010000 		.word	.L24
 268 00a0 1E010000 		.word	.L25
 269 00a4 DA010000 		.word	.L17
 270 00a8 DA010000 		.word	.L17
 271 00ac DA010000 		.word	.L17
 272 00b0 DA010000 		.word	.L17
 273 00b4 DA010000 		.word	.L17
 274 00b8 DA010000 		.word	.L17
 275 00bc DA010000 		.word	.L17
 276 00c0 DA010000 		.word	.L17
 277 00c4 DA010000 		.word	.L17
 278 00c8 DA010000 		.word	.L17
 279 00cc DA010000 		.word	.L17
 280 00d0 DA010000 		.word	.L17
 281 00d4 DA010000 		.word	.L17
 282 00d8 DA010000 		.word	.L17
 283 00dc DA010000 		.word	.L17
 284 00e0 DA010000 		.word	.L17
 285 00e4 DA010000 		.word	.L17
 286 00e8 DA010000 		.word	.L17
 287 00ec DA010000 		.word	.L17
 288 00f0 DA010000 		.word	.L17
 289 00f4 DA010000 		.word	.L17
 290 00f8 DA010000 		.word	.L17
 291 00fc DA010000 		.word	.L17
 292 0100 DA010000 		.word	.L17
 293 0104 8E010000 		.word	.L26
 294 0108 A0010000 		.word	.L27
 295 010c A6010000 		.word	.L28
 296 0110 DA010000 		.word	.L17
 297 0114 DA010000 		.word	.L17
 298 0118 DA010000 		.word	.L17
 299 011c DA010000 		.word	.L17
 300 0120 DA010000 		.word	.L17
 301 0124 DA010000 		.word	.L17
 302 0128 DA010000 		.word	.L17
 303 012c DA010000 		.word	.L17
 304 0130 BC010000 		.word	.L29
 305 0134 DA010000 		.word	.L17
 306 0138 DA010000 		.word	.L17
 307 013c C4010000 		.word	.L30
 308 0140 D4010000 		.word	.L31
 309              		.section	.text.CyBle_EventHandler
 310              	.L18:
 311              	.LBB3:
1605:Generated_Source\PSoC4/CyBle_eventHandler.c ****     {
1606:Generated_Source\PSoC4/CyBle_eventHandler.c ****         /**********************************************************
1607:Generated_Source\PSoC4/CyBle_eventHandler.c ****         * General events
1608:Generated_Source\PSoC4/CyBle_eventHandler.c ****         ************************************************************/
1609:Generated_Source\PSoC4/CyBle_eventHandler.c ****         case CYBLE_EVT_STACK_ON:
1610:Generated_Source\PSoC4/CyBle_eventHandler.c ****         #if(CYBLE_MODE_PROFILE)
1611:Generated_Source\PSoC4/CyBle_eventHandler.c ****         {
ARM GAS  C:\Users\Tymek\AppData\Local\Temp\ccJhKwfb.s 			page 35


1612:Generated_Source\PSoC4/CyBle_eventHandler.c ****             CYBLE_BLESS_PWR_IN_DB_T bleSsPowerLevel;
1613:Generated_Source\PSoC4/CyBle_eventHandler.c ****             
1614:Generated_Source\PSoC4/CyBle_eventHandler.c ****             /* Set Tx Power Level for advertising and connection channels */
1615:Generated_Source\PSoC4/CyBle_eventHandler.c ****             bleSsPowerLevel.blePwrLevelInDbm = CYBLE_TX_POWER_LEVEL_ADV;
 312              		.loc 1 1615 0
 313 0022 01AE     		add	r6, sp, #4
 314 0024 0727     		movs	r7, #7
 315 0026 3770     		strb	r7, [r6]
1616:Generated_Source\PSoC4/CyBle_eventHandler.c ****             bleSsPowerLevel.bleSsChId = CYBLE_LL_ADV_CH_TYPE;
 316              		.loc 1 1616 0
 317 0028 0023     		movs	r3, #0
 318 002a 7370     		strb	r3, [r6, #1]
1617:Generated_Source\PSoC4/CyBle_eventHandler.c ****             (void) CyBle_SetTxPowerLevel (&bleSsPowerLevel);
 319              		.loc 1 1617 0
 320 002c 3000     		movs	r0, r6
 321              	.LVL22:
 322 002e FFF7FEFF 		bl	CyBle_SetTxPowerLevel
 323              	.LVL23:
1618:Generated_Source\PSoC4/CyBle_eventHandler.c ****             bleSsPowerLevel.blePwrLevelInDbm = CYBLE_TX_POWER_LEVEL_CONN;
 324              		.loc 1 1618 0
 325 0032 3770     		strb	r7, [r6]
1619:Generated_Source\PSoC4/CyBle_eventHandler.c ****             bleSsPowerLevel.bleSsChId = CYBLE_LL_CONN_CH_TYPE;
 326              		.loc 1 1619 0
 327 0034 0123     		movs	r3, #1
 328 0036 7370     		strb	r3, [r6, #1]
1620:Generated_Source\PSoC4/CyBle_eventHandler.c ****             (void) CyBle_SetTxPowerLevel (&bleSsPowerLevel);
 329              		.loc 1 1620 0
 330 0038 3000     		movs	r0, r6
 331 003a FFF7FEFF 		bl	CyBle_SetTxPowerLevel
 332              	.LVL24:
 333              	.LBE3:
1621:Generated_Source\PSoC4/CyBle_eventHandler.c ****             
1622:Generated_Source\PSoC4/CyBle_eventHandler.c ****             #if (CYBLE_GATT_ROLE_SERVER)
1623:Generated_Source\PSoC4/CyBle_eventHandler.c ****                 /* As per Privacy Errata a call to CyBle_EnableDefaultDevicePrivacy() is
1624:Generated_Source\PSoC4/CyBle_eventHandler.c ****                   required to set a device to use device privacy instead of network privacy
1625:Generated_Source\PSoC4/CyBle_eventHandler.c ****                   that is enabled by default starting from BLE Stack 3.3.
1626:Generated_Source\PSoC4/CyBle_eventHandler.c ****                 */
1627:Generated_Source\PSoC4/CyBle_eventHandler.c ****                 if(cyBle_gaps.rpaOnlyCharHandle != CYBLE_GATT_INVALID_ATTR_HANDLE_VALUE)
1628:Generated_Source\PSoC4/CyBle_eventHandler.c ****                 {
1629:Generated_Source\PSoC4/CyBle_eventHandler.c ****                     CyBle_EnableDefaultDevicePrivacy();
1630:Generated_Source\PSoC4/CyBle_eventHandler.c ****                 }
1631:Generated_Source\PSoC4/CyBle_eventHandler.c ****             #endif /* (CYBLE_GATT_ROLE_SERVER) */
1632:Generated_Source\PSoC4/CyBle_eventHandler.c ****             
1633:Generated_Source\PSoC4/CyBle_eventHandler.c ****             #if (CYBLE_STRICT_PAIRING_ENABLED)
1634:Generated_Source\PSoC4/CyBle_eventHandler.c ****                 (void) CyBle_GapSetSecurityRequirements(CYBLE_STRICT_PAIRING_REQ_VALUE, CYBLE_SECUR
1635:Generated_Source\PSoC4/CyBle_eventHandler.c ****             #endif /* (CYBLE_STRICT_PAIRING_ENABLED) */
1636:Generated_Source\PSoC4/CyBle_eventHandler.c ****             
1637:Generated_Source\PSoC4/CyBle_eventHandler.c ****         }
1638:Generated_Source\PSoC4/CyBle_eventHandler.c ****         #endif /* CYBLE_MODE_PROFILE */
1639:Generated_Source\PSoC4/CyBle_eventHandler.c ****         #if (CYBLE_GATT_ROLE_SERVER || CYBLE_GATT_ROLE_CLIENT)
1640:Generated_Source\PSoC4/CyBle_eventHandler.c ****             /* Set device Address  */
1641:Generated_Source\PSoC4/CyBle_eventHandler.c ****             if(CyBle_IsDeviceAddressValid(cyBle_sflashDeviceAddress) != 0u)
 334              		.loc 1 1641 0
 335 003e 714B     		ldr	r3, .L41+8
 336 0040 1E68     		ldr	r6, [r3]
 337 0042 3000     		movs	r0, r6
 338 0044 FFF7FEFF 		bl	CyBle_IsDeviceAddressValid
ARM GAS  C:\Users\Tymek\AppData\Local\Temp\ccJhKwfb.s 			page 36


 339              	.LVL25:
 340 0048 0028     		cmp	r0, #0
 341 004a 0CD0     		beq	.L32
1642:Generated_Source\PSoC4/CyBle_eventHandler.c ****             {
1643:Generated_Source\PSoC4/CyBle_eventHandler.c ****                 (void) CyBle_SetDeviceAddress(cyBle_sflashDeviceAddress);
 342              		.loc 1 1643 0
 343 004c 3000     		movs	r0, r6
 344 004e FFF7FEFF 		bl	CyBle_SetDeviceAddress
 345              	.LVL26:
1644:Generated_Source\PSoC4/CyBle_eventHandler.c ****                 #if(CYBLE_GAP_ROLE_PERIPHERAL || CYBLE_GAP_ROLE_BROADCASTER)
1645:Generated_Source\PSoC4/CyBle_eventHandler.c ****                     CyBle_ChangeAdDeviceAddress(cyBle_sflashDeviceAddress, 0u);
 346              		.loc 1 1645 0
 347 0052 6C4E     		ldr	r6, .L41+8
 348 0054 0021     		movs	r1, #0
 349 0056 3068     		ldr	r0, [r6]
 350 0058 FFF7FEFF 		bl	CyBle_ChangeAdDeviceAddress
 351              	.LVL27:
1646:Generated_Source\PSoC4/CyBle_eventHandler.c ****                     CyBle_ChangeAdDeviceAddress(cyBle_sflashDeviceAddress, 1u);
 352              		.loc 1 1646 0
 353 005c 3068     		ldr	r0, [r6]
 354 005e 0121     		movs	r1, #1
 355 0060 FFF7FEFF 		bl	CyBle_ChangeAdDeviceAddress
 356              	.LVL28:
 357 0064 0BE0     		b	.L33
 358              	.L32:
1647:Generated_Source\PSoC4/CyBle_eventHandler.c ****                 #endif /* CYBLE_GAP_ROLE_PERIPHERAL || CYBLE_GAP_ROLE_BROADCASTER */    
1648:Generated_Source\PSoC4/CyBle_eventHandler.c ****             }
1649:Generated_Source\PSoC4/CyBle_eventHandler.c ****             else
1650:Generated_Source\PSoC4/CyBle_eventHandler.c ****             {
1651:Generated_Source\PSoC4/CyBle_eventHandler.c ****             #if (SILICON_GENERATED_DEVICE_ADDRESS != 0u)
1652:Generated_Source\PSoC4/CyBle_eventHandler.c ****             {
1653:Generated_Source\PSoC4/CyBle_eventHandler.c ****                 uint32 bdAddrLoc;
1654:Generated_Source\PSoC4/CyBle_eventHandler.c ****                 bdAddrLoc = (CYBLE_SFLASH_DIE_X_REG & CYBLE_SFLASH_DIE_X_MASK) |
1655:Generated_Source\PSoC4/CyBle_eventHandler.c ****                     ((uint32)(((uint32)CYBLE_SFLASH_DIE_Y_REG) & ((uint32)CYBLE_SFLASH_DIE_Y_MASK))
1656:Generated_Source\PSoC4/CyBle_eventHandler.c ****                         CYBLE_SFLASH_DIE_X_BITS) |
1657:Generated_Source\PSoC4/CyBle_eventHandler.c ****                     ((uint32)(((uint32)CYBLE_SFLASH_DIE_WAFER_REG) & ((uint32)CYBLE_SFLASH_DIE_WAFE
1658:Generated_Source\PSoC4/CyBle_eventHandler.c ****                         CYBLE_SFLASH_DIE_XY_BITS) |
1659:Generated_Source\PSoC4/CyBle_eventHandler.c ****                     ((uint32)(((uint32)CYBLE_SFLASH_DIE_LOT_REG) & ((uint32)CYBLE_SFLASH_DIE_LOT_MA
1660:Generated_Source\PSoC4/CyBle_eventHandler.c ****                         CYBLE_SFLASH_DIE_XYWAFER_BITS);
1661:Generated_Source\PSoC4/CyBle_eventHandler.c ****                             
1662:Generated_Source\PSoC4/CyBle_eventHandler.c ****                 cyBle_deviceAddress.bdAddr[0] = (uint8)bdAddrLoc;
1663:Generated_Source\PSoC4/CyBle_eventHandler.c ****                 cyBle_deviceAddress.bdAddr[1] = (uint8)(bdAddrLoc >> 8u);
1664:Generated_Source\PSoC4/CyBle_eventHandler.c ****                 cyBle_deviceAddress.bdAddr[2] = (uint8)(bdAddrLoc >> 16u);
1665:Generated_Source\PSoC4/CyBle_eventHandler.c ****             }
1666:Generated_Source\PSoC4/CyBle_eventHandler.c ****             #endif /* SILICON_GENERATED_DEVICE_ADDRESS != 0u */
1667:Generated_Source\PSoC4/CyBle_eventHandler.c ****                 (void) CyBle_SetDeviceAddress(&cyBle_deviceAddress);
 359              		.loc 1 1667 0
 360 0066 684E     		ldr	r6, .L41+12
 361 0068 3000     		movs	r0, r6
 362 006a FFF7FEFF 		bl	CyBle_SetDeviceAddress
 363              	.LVL29:
1668:Generated_Source\PSoC4/CyBle_eventHandler.c ****                 #if(CYBLE_GAP_ROLE_PERIPHERAL || CYBLE_GAP_ROLE_BROADCASTER)
1669:Generated_Source\PSoC4/CyBle_eventHandler.c ****                     CyBle_ChangeAdDeviceAddress(&cyBle_deviceAddress, 0u);
 364              		.loc 1 1669 0
 365 006e 0021     		movs	r1, #0
 366 0070 3000     		movs	r0, r6
 367 0072 FFF7FEFF 		bl	CyBle_ChangeAdDeviceAddress
ARM GAS  C:\Users\Tymek\AppData\Local\Temp\ccJhKwfb.s 			page 37


 368              	.LVL30:
1670:Generated_Source\PSoC4/CyBle_eventHandler.c ****                     CyBle_ChangeAdDeviceAddress(&cyBle_deviceAddress, 1u);
 369              		.loc 1 1670 0
 370 0076 0121     		movs	r1, #1
 371 0078 3000     		movs	r0, r6
 372 007a FFF7FEFF 		bl	CyBle_ChangeAdDeviceAddress
 373              	.LVL31:
 374              	.L33:
1671:Generated_Source\PSoC4/CyBle_eventHandler.c ****                 #endif /* CYBLE_GAP_ROLE_PERIPHERAL || CYBLE_GAP_ROLE_BROADCASTER */    
1672:Generated_Source\PSoC4/CyBle_eventHandler.c ****             }
1673:Generated_Source\PSoC4/CyBle_eventHandler.c ****             /* Set device IO Capability  */
1674:Generated_Source\PSoC4/CyBle_eventHandler.c ****             (void) CyBle_GapSetIoCap(CYBLE_IO_CAPABILITY);    
 375              		.loc 1 1674 0
 376 007e 0320     		movs	r0, #3
 377 0080 FFF7FEFF 		bl	CyBle_GapSetIoCap
 378              	.LVL32:
 379              	.LBB4:
1675:Generated_Source\PSoC4/CyBle_eventHandler.c ****             {
1676:Generated_Source\PSoC4/CyBle_eventHandler.c ****                 /* Enable all 4.1 events and configured 4.2 events */
1677:Generated_Source\PSoC4/CyBle_eventHandler.c ****                 uint8 leMask[CYBLE_LE_MASK_LENGTH] = {LO8(CYBLE_LE_MASK), HI8(CYBLE_LE_MASK)};
 380              		.loc 1 1677 0
 381 0084 01A8     		add	r0, sp, #4
 382 0086 3F23     		movs	r3, #63
 383 0088 0370     		strb	r3, [r0]
 384 008a 0023     		movs	r3, #0
 385 008c 4370     		strb	r3, [r0, #1]
1678:Generated_Source\PSoC4/CyBle_eventHandler.c ****                 (void) CyBle_GapSetLeEventMask(leMask);
 386              		.loc 1 1678 0
 387 008e FFF7FEFF 		bl	CyBle_GapSetLeEventMask
 388              	.LVL33:
 389              	.LBE4:
1679:Generated_Source\PSoC4/CyBle_eventHandler.c ****             }
1680:Generated_Source\PSoC4/CyBle_eventHandler.c ****         #if(CYBLE_DLE_FEATURE_ENABLED)
1681:Generated_Source\PSoC4/CyBle_eventHandler.c ****         {
1682:Generated_Source\PSoC4/CyBle_eventHandler.c ****             /* Set maximum suggested TX payload size */
1683:Generated_Source\PSoC4/CyBle_eventHandler.c ****             uint16 payloadTime = CYBLE_LL_MAX_TX_TIME;
1684:Generated_Source\PSoC4/CyBle_eventHandler.c ****             (void) CyBle_GapConvertOctetToTime(CYBLE_GAP_PHY_1MBPS, CYBLE_LL_MAX_TX_PAYLOAD_SIZE, &
1685:Generated_Source\PSoC4/CyBle_eventHandler.c ****             (void) CyBle_GapSetSuggestedDataLength(CYBLE_LL_MAX_TX_PAYLOAD_SIZE, payloadTime); 
1686:Generated_Source\PSoC4/CyBle_eventHandler.c ****         }
1687:Generated_Source\PSoC4/CyBle_eventHandler.c ****         #endif /* CYBLE_DLE_FEATURE != 0u */
1688:Generated_Source\PSoC4/CyBle_eventHandler.c ****         
1689:Generated_Source\PSoC4/CyBle_eventHandler.c ****         #endif /* CYBLE_GATT_ROLE_SERVER || CYBLE_GATT_ROLE_CLIENT */
1690:Generated_Source\PSoC4/CyBle_eventHandler.c ****             CyBle_SetState(CYBLE_STATE_DISCONNECTED);
 390              		.loc 1 1690 0
 391 0092 0422     		movs	r2, #4
 392 0094 5D4B     		ldr	r3, .L41+16
 393 0096 1A70     		strb	r2, [r3]
1691:Generated_Source\PSoC4/CyBle_eventHandler.c ****             break;
 394              		.loc 1 1691 0
 395 0098 9FE0     		b	.L17
 396              	.LVL34:
 397              	.L20:
1692:Generated_Source\PSoC4/CyBle_eventHandler.c ****         case CYBLE_EVT_TIMEOUT:
1693:Generated_Source\PSoC4/CyBle_eventHandler.c ****             CyBle_TimeOutEventHandler((CYBLE_TO_REASON_CODE_T *)eventParam);
1694:Generated_Source\PSoC4/CyBle_eventHandler.c ****             break;
1695:Generated_Source\PSoC4/CyBle_eventHandler.c ****     	case CYBLE_EVT_STACK_BUSY_STATUS:
1696:Generated_Source\PSoC4/CyBle_eventHandler.c ****             cyBle_busyStatus = *(uint8 *)eventParam;
ARM GAS  C:\Users\Tymek\AppData\Local\Temp\ccJhKwfb.s 			page 38


 398              		.loc 1 1696 0
 399 009a 2278     		ldrb	r2, [r4]
 400 009c 5C4B     		ldr	r3, .L41+20
 401 009e 1A70     		strb	r2, [r3]
1697:Generated_Source\PSoC4/CyBle_eventHandler.c ****             break;
 402              		.loc 1 1697 0
 403 00a0 9BE0     		b	.L17
 404              	.L21:
 405              	.LVL35:
 406              	.LBB5:
1698:Generated_Source\PSoC4/CyBle_eventHandler.c ****     	case CYBLE_EVT_MEMORY_REQUEST:
1699:Generated_Source\PSoC4/CyBle_eventHandler.c ****         #if(CYBLE_MODE_PROFILE)
1700:Generated_Source\PSoC4/CyBle_eventHandler.c ****         {
1701:Generated_Source\PSoC4/CyBle_eventHandler.c ****             CYBLE_MEMORY_REQUEST_T *memReq = (CYBLE_MEMORY_REQUEST_T *)eventParam;
1702:Generated_Source\PSoC4/CyBle_eventHandler.c ****             if(memReq->request == CYBLE_PREPARED_WRITE_REQUEST)
 407              		.loc 1 1702 0
 408 00a2 2378     		ldrb	r3, [r4]
 409 00a4 002B     		cmp	r3, #0
 410 00a6 00D0     		beq	.LCB286
 411 00a8 97E0     		b	.L17	@long jump
 412              	.LCB286:
1703:Generated_Source\PSoC4/CyBle_eventHandler.c ****             {  
1704:Generated_Source\PSoC4/CyBle_eventHandler.c ****             #if(CYBLE_GATT_ENABLE_EXTERNAL_PREP_WRITE_BUFF == 0u)
1705:Generated_Source\PSoC4/CyBle_eventHandler.c ****                 /* Stack requests to provide memory to process remote request */
1706:Generated_Source\PSoC4/CyBle_eventHandler.c ****                 if(memReq->allocFree == CYBLE_ALLOC_MEMORY)
 413              		.loc 1 1706 0
 414 00aa 6378     		ldrb	r3, [r4, #1]
 415 00ac 002B     		cmp	r3, #0
 416 00ae 0CD1     		bne	.L34
 417              	.LBB6:
1707:Generated_Source\PSoC4/CyBle_eventHandler.c ****                 {
1708:Generated_Source\PSoC4/CyBle_eventHandler.c ****                     static CYBLE_PREPARE_WRITE_REQUEST_MEMORY_T gPrepWriteReqMem;
1709:Generated_Source\PSoC4/CyBle_eventHandler.c ****                     
1710:Generated_Source\PSoC4/CyBle_eventHandler.c ****                     /* Configure and return statically allocated buffer at the end of cyBle_stackMe
1711:Generated_Source\PSoC4/CyBle_eventHandler.c ****                     gPrepWriteReqMem.prepareWriteQueueSize = CYBLE_GATT_MAX_PREPARE_BUFF_COUNT;
 418              		.loc 1 1711 0
 419 00b0 584B     		ldr	r3, .L41+24
 420 00b2 1022     		movs	r2, #16
 421 00b4 DA80     		strh	r2, [r3, #6]
1712:Generated_Source\PSoC4/CyBle_eventHandler.c ****                     gPrepWriteReqMem.totalAttrValueLength = CYBLE_GATT_PREPARE_LENGTH_ALIGN;
 422              		.loc 1 1712 0
 423 00b6 0132     		adds	r2, r2, #1
 424 00b8 FF32     		adds	r2, r2, #255
 425 00ba 9A80     		strh	r2, [r3, #4]
1713:Generated_Source\PSoC4/CyBle_eventHandler.c ****                     gPrepWriteReqMem.queueBuffer = &cyBle_stackMemoryRam[CYBLE_STACK_RAM_SIZE - 
 426              		.loc 1 1713 0
 427 00bc 564A     		ldr	r2, .L41+28
 428 00be 1268     		ldr	r2, [r2]
 429 00c0 5649     		ldr	r1, .L41+32
 430 00c2 8C46     		mov	ip, r1
 431 00c4 6244     		add	r2, r2, ip
 432 00c6 1A60     		str	r2, [r3]
1714:Generated_Source\PSoC4/CyBle_eventHandler.c ****                                                                          CYBLE_GATT_PREPARE_WRITE_B
1715:Generated_Source\PSoC4/CyBle_eventHandler.c ****                     memReq->configMemory = &gPrepWriteReqMem;  
 433              		.loc 1 1715 0
 434 00c8 6360     		str	r3, [r4, #4]
 435              	.L34:
ARM GAS  C:\Users\Tymek\AppData\Local\Temp\ccJhKwfb.s 			page 39


 436              	.LBE6:
1716:Generated_Source\PSoC4/CyBle_eventHandler.c ****                 }                
1717:Generated_Source\PSoC4/CyBle_eventHandler.c ****                 /* Clear CYBLE_CALLBACK flag not to provide handled event to application */
1718:Generated_Source\PSoC4/CyBle_eventHandler.c ****                 cyBle_eventHandlerFlag &= (uint8)~CYBLE_CALLBACK;
 437              		.loc 1 1718 0
 438 00ca 4C4A     		ldr	r2, .L41
 439 00cc 1378     		ldrb	r3, [r2]
 440 00ce 0121     		movs	r1, #1
 441 00d0 8B43     		bics	r3, r1
 442 00d2 1370     		strb	r3, [r2]
 443 00d4 81E0     		b	.L17
 444              	.LVL36:
 445              	.L22:
 446              	.LBE5:
1719:Generated_Source\PSoC4/CyBle_eventHandler.c ****             #endif  /* CYBLE_GATT_ENABLE_EXTERNAL_PREP_WRITE_BUFF == 0u */
1720:Generated_Source\PSoC4/CyBle_eventHandler.c ****             }
1721:Generated_Source\PSoC4/CyBle_eventHandler.c ****         }
1722:Generated_Source\PSoC4/CyBle_eventHandler.c ****         #endif /* CYBLE_MODE_PROFILE */
1723:Generated_Source\PSoC4/CyBle_eventHandler.c ****             break;
1724:Generated_Source\PSoC4/CyBle_eventHandler.c ****         /**********************************************************
1725:Generated_Source\PSoC4/CyBle_eventHandler.c ****         * GAP events
1726:Generated_Source\PSoC4/CyBle_eventHandler.c ****         ************************************************************/
1727:Generated_Source\PSoC4/CyBle_eventHandler.c ****         case CYBLE_EVT_GAP_AUTH_REQ:
1728:Generated_Source\PSoC4/CyBle_eventHandler.c ****         #if(CYBLE_MODE_PROFILE)
1729:Generated_Source\PSoC4/CyBle_eventHandler.c ****             if((cyBle_eventHandlerFlag & CYBLE_DISABLE_AUTOMATIC_AUTH) == 0u)
 447              		.loc 1 1729 0
 448 00d6 494B     		ldr	r3, .L41
 449 00d8 1B78     		ldrb	r3, [r3]
 450 00da 9B06     		lsls	r3, r3, #26
 451 00dc 7DD4     		bmi	.L17
1730:Generated_Source\PSoC4/CyBle_eventHandler.c ****             {
1731:Generated_Source\PSoC4/CyBle_eventHandler.c ****                 /* If the responding device does not support pairing then the responding 
1732:Generated_Source\PSoC4/CyBle_eventHandler.c ****                    device shall respond using the Pairing Failed message with the error 
1733:Generated_Source\PSoC4/CyBle_eventHandler.c ****                    code "Pairing Not Supported" otherwise it responds with a Pairing 
1734:Generated_Source\PSoC4/CyBle_eventHandler.c ****                    Response message.
1735:Generated_Source\PSoC4/CyBle_eventHandler.c ****                 */
1736:Generated_Source\PSoC4/CyBle_eventHandler.c ****                 if(cyBle_authInfo.security == (CYBLE_GAP_SEC_MODE_1 | CYBLE_GAP_SEC_LEVEL_1))
 452              		.loc 1 1736 0
 453 00de 504B     		ldr	r3, .L41+36
 454 00e0 1B78     		ldrb	r3, [r3]
 455 00e2 102B     		cmp	r3, #16
 456 00e4 02D1     		bne	.L35
1737:Generated_Source\PSoC4/CyBle_eventHandler.c ****                 {
1738:Generated_Source\PSoC4/CyBle_eventHandler.c ****                     cyBle_authInfo.authErr = CYBLE_GAP_AUTH_ERROR_PAIRING_NOT_SUPPORTED;
 457              		.loc 1 1738 0
 458 00e6 0522     		movs	r2, #5
 459 00e8 4D4B     		ldr	r3, .L41+36
 460 00ea DA70     		strb	r2, [r3, #3]
 461              	.L35:
 462              	.LBB7:
1739:Generated_Source\PSoC4/CyBle_eventHandler.c ****                 }    
1740:Generated_Source\PSoC4/CyBle_eventHandler.c ****             #if(CYBLE_GAP_ROLE_PERIPHERAL)
1741:Generated_Source\PSoC4/CyBle_eventHandler.c ****                 {
1742:Generated_Source\PSoC4/CyBle_eventHandler.c ****                     CYBLE_API_RESULT_T apiResult;
1743:Generated_Source\PSoC4/CyBle_eventHandler.c ****                     
1744:Generated_Source\PSoC4/CyBle_eventHandler.c ****                     apiResult = CyBle_GappAuthReqReply(cyBle_connHandle.bdHandle, &cyBle_authInfo);
 463              		.loc 1 1744 0
ARM GAS  C:\Users\Tymek\AppData\Local\Temp\ccJhKwfb.s 			page 40


 464 00ec 4D4B     		ldr	r3, .L41+40
 465 00ee 1878     		ldrb	r0, [r3]
 466              	.LVL37:
 467 00f0 4B49     		ldr	r1, .L41+36
 468 00f2 FFF7FEFF 		bl	CyBle_GappAuthReqReply
 469              	.LVL38:
 470 00f6 01AB     		add	r3, sp, #4
 471 00f8 1880     		strh	r0, [r3]
1745:Generated_Source\PSoC4/CyBle_eventHandler.c ****                     /* Setting callback flag again as CyBle_GappAuthReqReply() will generate
1746:Generated_Source\PSoC4/CyBle_eventHandler.c ****                     * CYBLE_EVT_GAP_SMP_NEGOTIATED_AUTH_INFO event which will clear the callback
1747:Generated_Source\PSoC4/CyBle_eventHandler.c ****                     * flag.
1748:Generated_Source\PSoC4/CyBle_eventHandler.c ****                     */
1749:Generated_Source\PSoC4/CyBle_eventHandler.c ****                     if (apiResult != CYBLE_ERROR_OK)
 472              		.loc 1 1749 0
 473 00fa 0028     		cmp	r0, #0
 474 00fc 04D0     		beq	.L36
1750:Generated_Source\PSoC4/CyBle_eventHandler.c ****                     {   
1751:Generated_Source\PSoC4/CyBle_eventHandler.c ****                         CyBle_ApplCallback(CYBLE_EVT_GAP_AUTH_REQ_REPLY_ERR , &apiResult);
 475              		.loc 1 1751 0
 476 00fe 4A4B     		ldr	r3, .L41+44
 477 0100 1B68     		ldr	r3, [r3]
 478 0102 01A9     		add	r1, sp, #4
 479 0104 3620     		movs	r0, #54
 480 0106 9847     		blx	r3
 481              	.LVL39:
 482              	.L36:
1752:Generated_Source\PSoC4/CyBle_eventHandler.c ****                     }
1753:Generated_Source\PSoC4/CyBle_eventHandler.c ****                     cyBle_eventHandlerFlag |= CYBLE_CALLBACK;
 483              		.loc 1 1753 0
 484 0108 3C4A     		ldr	r2, .L41
 485 010a 1178     		ldrb	r1, [r2]
 486 010c 0123     		movs	r3, #1
 487 010e 0B43     		orrs	r3, r1
 488 0110 DBB2     		uxtb	r3, r3
 489 0112 1370     		strb	r3, [r2]
 490 0114 61E0     		b	.L17
 491              	.LVL40:
 492              	.L24:
 493              	.LBE7:
1754:Generated_Source\PSoC4/CyBle_eventHandler.c ****                 }
1755:Generated_Source\PSoC4/CyBle_eventHandler.c ****             #endif /* CYBLE_GAP_ROLE_PERIPHERAL */
1756:Generated_Source\PSoC4/CyBle_eventHandler.c ****             #if (CYBLE_GAP_ROLE_CENTRAL)
1757:Generated_Source\PSoC4/CyBle_eventHandler.c ****                 (void)CyBle_GapAuthReq(cyBle_connHandle.bdHandle, &cyBle_authInfo);
1758:Generated_Source\PSoC4/CyBle_eventHandler.c ****             #endif /* CYBLE_GAP_ROLE_CENTRAL */
1759:Generated_Source\PSoC4/CyBle_eventHandler.c ****             }
1760:Generated_Source\PSoC4/CyBle_eventHandler.c ****         #endif /* CYBLE_MODE_PROFILE */
1761:Generated_Source\PSoC4/CyBle_eventHandler.c ****             break;
1762:Generated_Source\PSoC4/CyBle_eventHandler.c ****         
1763:Generated_Source\PSoC4/CyBle_eventHandler.c ****         case CYBLE_EVT_GAP_AUTH_COMPLETE:
1764:Generated_Source\PSoC4/CyBle_eventHandler.c ****         #if((CYBLE_GAP_ROLE_PERIPHERAL || CYBLE_GAP_ROLE_CENTRAL) && (CYBLE_BONDING_REQUIREMENT == 
1765:Generated_Source\PSoC4/CyBle_eventHandler.c ****             cyBle_peerBonding = ((CYBLE_GAP_AUTH_INFO_T *)eventParam)->bonding;
1766:Generated_Source\PSoC4/CyBle_eventHandler.c ****         #endif  /* CYBLE_BONDING_REQUIREMENT == CYBLE_BONDING_YES */
1767:Generated_Source\PSoC4/CyBle_eventHandler.c ****             break;
1768:Generated_Source\PSoC4/CyBle_eventHandler.c ****         
1769:Generated_Source\PSoC4/CyBle_eventHandler.c ****         case CYBLE_EVT_GAP_CONNECTION_UPDATE_COMPLETE:
1770:Generated_Source\PSoC4/CyBle_eventHandler.c ****             CyBle_GapConnUpdateCompleteEventHandler((const CYBLE_GAP_CONN_PARAM_UPDATED_IN_CONTROLL
1771:Generated_Source\PSoC4/CyBle_eventHandler.c ****             break;
ARM GAS  C:\Users\Tymek\AppData\Local\Temp\ccJhKwfb.s 			page 41


1772:Generated_Source\PSoC4/CyBle_eventHandler.c ****             
1773:Generated_Source\PSoC4/CyBle_eventHandler.c ****     #if(CYBLE_LL_PRIVACY_FEATURE != 0u)        
1774:Generated_Source\PSoC4/CyBle_eventHandler.c ****         case CYBLE_EVT_GAP_ENHANCE_CONN_COMPLETE:
1775:Generated_Source\PSoC4/CyBle_eventHandler.c ****         {
1776:Generated_Source\PSoC4/CyBle_eventHandler.c ****             CYBLE_GAP_CONN_PARAM_UPDATED_IN_CONTROLLER_T  connCParam;
1777:Generated_Source\PSoC4/CyBle_eventHandler.c ****             CYBLE_GAP_ENHANCE_CONN_COMPLETE_T *connEnhanceParam;
1778:Generated_Source\PSoC4/CyBle_eventHandler.c ****             
1779:Generated_Source\PSoC4/CyBle_eventHandler.c ****             connEnhanceParam = (CYBLE_GAP_ENHANCE_CONN_COMPLETE_T *)eventParam;
1780:Generated_Source\PSoC4/CyBle_eventHandler.c ****             connCParam.status = connEnhanceParam->status;
1781:Generated_Source\PSoC4/CyBle_eventHandler.c ****             connCParam.connIntv = connEnhanceParam->connIntv;
1782:Generated_Source\PSoC4/CyBle_eventHandler.c ****             connCParam.connLatency = connEnhanceParam->connLatency;
1783:Generated_Source\PSoC4/CyBle_eventHandler.c ****             connCParam.supervisionTO = connEnhanceParam->supervisionTo;
1784:Generated_Source\PSoC4/CyBle_eventHandler.c ****             CyBle_GapConnUpdateCompleteEventHandler((const CYBLE_GAP_CONN_PARAM_UPDATED_IN_CONTROLL
1785:Generated_Source\PSoC4/CyBle_eventHandler.c ****             
1786:Generated_Source\PSoC4/CyBle_eventHandler.c ****             #if(CYBLE_GAP_ROLE_CENTRAL)
1787:Generated_Source\PSoC4/CyBle_eventHandler.c ****                 if(cyBle_connectingTimeout != 0u)
1788:Generated_Source\PSoC4/CyBle_eventHandler.c ****                 {
1789:Generated_Source\PSoC4/CyBle_eventHandler.c ****                    (void)CyBle_StopTimer();
1790:Generated_Source\PSoC4/CyBle_eventHandler.c ****                 }
1791:Generated_Source\PSoC4/CyBle_eventHandler.c ****             #endif /* CYBLE_GAP_ROLE_CENTRAL */
1792:Generated_Source\PSoC4/CyBle_eventHandler.c ****             CyBle_SetState(CYBLE_STATE_CONNECTED);
1793:Generated_Source\PSoC4/CyBle_eventHandler.c ****         }
1794:Generated_Source\PSoC4/CyBle_eventHandler.c ****             break;
1795:Generated_Source\PSoC4/CyBle_eventHandler.c ****     #endif /* CYBLE_LL_PRIVACY_FEATURE != 0u */      
1796:Generated_Source\PSoC4/CyBle_eventHandler.c ****             
1797:Generated_Source\PSoC4/CyBle_eventHandler.c ****         case CYBLE_EVT_GAP_DEVICE_CONNECTED:
1798:Generated_Source\PSoC4/CyBle_eventHandler.c ****             CyBle_GapConnUpdateCompleteEventHandler((const CYBLE_GAP_CONN_PARAM_UPDATED_IN_CONTROLL
1799:Generated_Source\PSoC4/CyBle_eventHandler.c ****             #if(CYBLE_GAP_ROLE_CENTRAL)
1800:Generated_Source\PSoC4/CyBle_eventHandler.c ****                 if(cyBle_connectingTimeout != 0u)
1801:Generated_Source\PSoC4/CyBle_eventHandler.c ****                 {
1802:Generated_Source\PSoC4/CyBle_eventHandler.c ****                    (void)CyBle_StopTimer();
1803:Generated_Source\PSoC4/CyBle_eventHandler.c ****                 }
1804:Generated_Source\PSoC4/CyBle_eventHandler.c ****             #endif /* CYBLE_GAP_ROLE_CENTRAL */
1805:Generated_Source\PSoC4/CyBle_eventHandler.c ****             CyBle_SetState(CYBLE_STATE_CONNECTED);
 494              		.loc 1 1805 0
 495 0116 0222     		movs	r2, #2
 496 0118 3C4B     		ldr	r3, .L41+16
 497 011a 1A70     		strb	r2, [r3]
1806:Generated_Source\PSoC4/CyBle_eventHandler.c ****             break;
 498              		.loc 1 1806 0
 499 011c 5DE0     		b	.L17
 500              	.L25:
1807:Generated_Source\PSoC4/CyBle_eventHandler.c **** 
1808:Generated_Source\PSoC4/CyBle_eventHandler.c ****         case CYBLE_EVT_GAP_DEVICE_DISCONNECTED:
1809:Generated_Source\PSoC4/CyBle_eventHandler.c ****             CyBle_SetState(CYBLE_STATE_DISCONNECTED);
 501              		.loc 1 1809 0
 502 011e 0422     		movs	r2, #4
 503 0120 3A4B     		ldr	r3, .L41+16
 504 0122 1A70     		strb	r2, [r3]
1810:Generated_Source\PSoC4/CyBle_eventHandler.c ****             break;
 505              		.loc 1 1810 0
 506 0124 59E0     		b	.L17
 507              	.L23:
1811:Generated_Source\PSoC4/CyBle_eventHandler.c ****         #if(CYBLE_GAP_ROLE_PERIPHERAL || CYBLE_GAP_ROLE_BROADCASTER)
1812:Generated_Source\PSoC4/CyBle_eventHandler.c ****             
1813:Generated_Source\PSoC4/CyBle_eventHandler.c ****         case CYBLE_EVT_GAPP_ADVERTISEMENT_START_STOP:
1814:Generated_Source\PSoC4/CyBle_eventHandler.c ****             #ifdef CYBLE_CPS_SERVER
ARM GAS  C:\Users\Tymek\AppData\Local\Temp\ccJhKwfb.s 			page 42


1815:Generated_Source\PSoC4/CyBle_eventHandler.c ****                 #if(CYBLE_GAP_ROLE_BROADCASTER)
1816:Generated_Source\PSoC4/CyBle_eventHandler.c ****                     CyBle_CpssAdvertisementStartStopEventHandler();
1817:Generated_Source\PSoC4/CyBle_eventHandler.c ****                 #endif /* CYBLE_GAP_ROLE_BROADCASTER */
1818:Generated_Source\PSoC4/CyBle_eventHandler.c ****             #endif /* CYBLE_CPS_SERVER */
1819:Generated_Source\PSoC4/CyBle_eventHandler.c ****             
1820:Generated_Source\PSoC4/CyBle_eventHandler.c ****             if((CYBLE_STATE_CONNECTED != CyBle_GetState()) && ((cyBle_eventHandlerFlag & CYBLE_CALL
 508              		.loc 1 1820 0
 509 0126 394B     		ldr	r3, .L41+16
 510 0128 1B78     		ldrb	r3, [r3]
 511 012a 022B     		cmp	r3, #2
 512 012c 55D0     		beq	.L17
 513              		.loc 1 1820 0 is_stmt 0 discriminator 1
 514 012e 334A     		ldr	r2, .L41
 515 0130 1278     		ldrb	r2, [r2]
 516 0132 D207     		lsls	r2, r2, #31
 517 0134 51D5     		bpl	.L17
1821:Generated_Source\PSoC4/CyBle_eventHandler.c ****             {
1822:Generated_Source\PSoC4/CyBle_eventHandler.c ****                 /* After CyBle_GappStartAdvertisement first event indicates that advertising has be
1823:Generated_Source\PSoC4/CyBle_eventHandler.c ****                 if(0u != (cyBle_eventHandlerFlag & CYBLE_START_FLAG))
 518              		.loc 1 1823 0 is_stmt 1
 519 0136 314A     		ldr	r2, .L41
 520 0138 1278     		ldrb	r2, [r2]
 521 013a 5207     		lsls	r2, r2, #29
 522 013c 08D5     		bpl	.L37
1824:Generated_Source\PSoC4/CyBle_eventHandler.c ****                 {
1825:Generated_Source\PSoC4/CyBle_eventHandler.c ****                     CyBle_SetState(CYBLE_STATE_ADVERTISING);
 523              		.loc 1 1825 0
 524 013e 0322     		movs	r2, #3
 525 0140 324B     		ldr	r3, .L41+16
 526 0142 1A70     		strb	r2, [r3]
1826:Generated_Source\PSoC4/CyBle_eventHandler.c ****                     cyBle_eventHandlerFlag &= (uint8)~CYBLE_START_FLAG;
 527              		.loc 1 1826 0
 528 0144 2D4A     		ldr	r2, .L41
 529 0146 1378     		ldrb	r3, [r2]
 530 0148 0421     		movs	r1, #4
 531 014a 8B43     		bics	r3, r1
 532 014c 1370     		strb	r3, [r2]
 533 014e 44E0     		b	.L17
 534              	.L37:
1827:Generated_Source\PSoC4/CyBle_eventHandler.c ****                 }
1828:Generated_Source\PSoC4/CyBle_eventHandler.c ****                 /* When application initiated stop advertisement */
1829:Generated_Source\PSoC4/CyBle_eventHandler.c ****                 else if(0u != (cyBle_eventHandlerFlag & CYBLE_STOP_FLAG))
 535              		.loc 1 1829 0
 536 0150 2A4A     		ldr	r2, .L41
 537 0152 1278     		ldrb	r2, [r2]
 538 0154 1207     		lsls	r2, r2, #28
 539 0156 08D5     		bpl	.L38
1830:Generated_Source\PSoC4/CyBle_eventHandler.c ****                 {
1831:Generated_Source\PSoC4/CyBle_eventHandler.c ****                     CyBle_SetState(CYBLE_STATE_DISCONNECTED);  
 540              		.loc 1 1831 0
 541 0158 0422     		movs	r2, #4
 542 015a 2C4B     		ldr	r3, .L41+16
 543 015c 1A70     		strb	r2, [r3]
1832:Generated_Source\PSoC4/CyBle_eventHandler.c ****                     cyBle_eventHandlerFlag &= (uint8)~CYBLE_STOP_FLAG;
 544              		.loc 1 1832 0
 545 015e 274A     		ldr	r2, .L41
 546 0160 1378     		ldrb	r3, [r2]
ARM GAS  C:\Users\Tymek\AppData\Local\Temp\ccJhKwfb.s 			page 43


 547 0162 0821     		movs	r1, #8
 548 0164 8B43     		bics	r3, r1
 549 0166 1370     		strb	r3, [r2]
 550 0168 37E0     		b	.L17
 551              	.L38:
1833:Generated_Source\PSoC4/CyBle_eventHandler.c ****                 }
1834:Generated_Source\PSoC4/CyBle_eventHandler.c ****                 else /* Following event indicates that advertising has been stopped */
1835:Generated_Source\PSoC4/CyBle_eventHandler.c ****                 {
1836:Generated_Source\PSoC4/CyBle_eventHandler.c ****                     if(CyBle_GetState() == CYBLE_STATE_ADVERTISING)
 552              		.loc 1 1836 0
 553 016a 032B     		cmp	r3, #3
 554 016c 35D1     		bne	.L17
1837:Generated_Source\PSoC4/CyBle_eventHandler.c ****                     {
1838:Generated_Source\PSoC4/CyBle_eventHandler.c ****                         CyBle_SetState(CYBLE_STATE_DISCONNECTED);
 555              		.loc 1 1838 0
 556 016e 0422     		movs	r2, #4
 557 0170 264B     		ldr	r3, .L41+16
 558 0172 1A70     		strb	r2, [r3]
1839:Generated_Source\PSoC4/CyBle_eventHandler.c ****                     #if ((CYBLE_SLOW_ADV_ENABLED != 0u) && (CYBLE_FAST_ADV_TIMEOUT != 0u))
1840:Generated_Source\PSoC4/CyBle_eventHandler.c ****                         if(cyBle_advertisingIntervalType == CYBLE_ADVERTISING_FAST)
 559              		.loc 1 1840 0
 560 0174 2D4B     		ldr	r3, .L41+48
 561 0176 1B78     		ldrb	r3, [r3]
 562 0178 002B     		cmp	r3, #0
 563 017a 2ED1     		bne	.L17
1841:Generated_Source\PSoC4/CyBle_eventHandler.c ****                         {
1842:Generated_Source\PSoC4/CyBle_eventHandler.c ****                             /* When fast advertising time out occur: Start slow advertising */
1843:Generated_Source\PSoC4/CyBle_eventHandler.c ****                             if(CyBle_GappStartAdvertisement(CYBLE_ADVERTISING_SLOW) == CYBLE_ERROR_
 564              		.loc 1 1843 0
 565 017c 0120     		movs	r0, #1
 566              	.LVL41:
 567 017e FFF7FEFF 		bl	CyBle_GappStartAdvertisement
 568              	.LVL42:
 569 0182 0028     		cmp	r0, #0
 570 0184 29D1     		bne	.L17
1844:Generated_Source\PSoC4/CyBle_eventHandler.c ****                             {
1845:Generated_Source\PSoC4/CyBle_eventHandler.c ****                                 CyBle_SetState(CYBLE_STATE_ADVERTISING);
 571              		.loc 1 1845 0
 572 0186 0322     		movs	r2, #3
 573 0188 204B     		ldr	r3, .L41+16
 574 018a 1A70     		strb	r2, [r3]
 575 018c 25E0     		b	.L17
 576              	.LVL43:
 577              	.L26:
1846:Generated_Source\PSoC4/CyBle_eventHandler.c ****                             }
1847:Generated_Source\PSoC4/CyBle_eventHandler.c ****                         }
1848:Generated_Source\PSoC4/CyBle_eventHandler.c ****                     #endif /* CYBLE_SLOW_ADV_ENABLED */
1849:Generated_Source\PSoC4/CyBle_eventHandler.c ****                     }
1850:Generated_Source\PSoC4/CyBle_eventHandler.c ****                 }
1851:Generated_Source\PSoC4/CyBle_eventHandler.c ****             }
1852:Generated_Source\PSoC4/CyBle_eventHandler.c ****             break;
1853:Generated_Source\PSoC4/CyBle_eventHandler.c ****         #endif /* CYBLE_GAP_ROLE_PERIPHERAL || CYBLE_GAP_ROLE_BROADCASTER */
1854:Generated_Source\PSoC4/CyBle_eventHandler.c ****         
1855:Generated_Source\PSoC4/CyBle_eventHandler.c ****         #if(CYBLE_GAP_ROLE_CENTRAL || CYBLE_GAP_ROLE_OBSERVER)    
1856:Generated_Source\PSoC4/CyBle_eventHandler.c ****         case CYBLE_EVT_GAPC_SCAN_START_STOP:
1857:Generated_Source\PSoC4/CyBle_eventHandler.c ****             #ifdef CYBLE_CPS_CLIENT
1858:Generated_Source\PSoC4/CyBle_eventHandler.c ****                 CyBle_CpscScanStartStopEventHandler();
ARM GAS  C:\Users\Tymek\AppData\Local\Temp\ccJhKwfb.s 			page 44


1859:Generated_Source\PSoC4/CyBle_eventHandler.c ****             #endif /* CYBLE_CPS_CLIENT */
1860:Generated_Source\PSoC4/CyBle_eventHandler.c ****             
1861:Generated_Source\PSoC4/CyBle_eventHandler.c ****             if((CYBLE_STATE_CONNECTED != CyBle_GetState()) && ((cyBle_eventHandlerFlag & CYBLE_CALL
1862:Generated_Source\PSoC4/CyBle_eventHandler.c ****             {
1863:Generated_Source\PSoC4/CyBle_eventHandler.c ****                 /* After CyBle_GapcStartScan first event indicates that scanning has been started *
1864:Generated_Source\PSoC4/CyBle_eventHandler.c ****                 if(0u != (cyBle_eventHandlerFlag & CYBLE_START_FLAG))
1865:Generated_Source\PSoC4/CyBle_eventHandler.c ****                 {
1866:Generated_Source\PSoC4/CyBle_eventHandler.c ****                     CyBle_SetState(CYBLE_STATE_SCANNING);
1867:Generated_Source\PSoC4/CyBle_eventHandler.c ****                     cyBle_eventHandlerFlag &= (uint8)~CYBLE_START_FLAG;
1868:Generated_Source\PSoC4/CyBle_eventHandler.c ****                 }
1869:Generated_Source\PSoC4/CyBle_eventHandler.c ****                 /* When application initiated stop scanning */
1870:Generated_Source\PSoC4/CyBle_eventHandler.c ****                 else if(0u != (cyBle_eventHandlerFlag & CYBLE_STOP_FLAG))
1871:Generated_Source\PSoC4/CyBle_eventHandler.c ****                 {
1872:Generated_Source\PSoC4/CyBle_eventHandler.c ****                     CyBle_SetState(CYBLE_STATE_DISCONNECTED);  
1873:Generated_Source\PSoC4/CyBle_eventHandler.c ****                     cyBle_eventHandlerFlag &= (uint8)~CYBLE_STOP_FLAG;
1874:Generated_Source\PSoC4/CyBle_eventHandler.c ****                 }
1875:Generated_Source\PSoC4/CyBle_eventHandler.c ****                 else /* Following event indicates that scanning has been stopped by stack */
1876:Generated_Source\PSoC4/CyBle_eventHandler.c ****                 {
1877:Generated_Source\PSoC4/CyBle_eventHandler.c ****                     if(CyBle_GetState() == CYBLE_STATE_SCANNING)
1878:Generated_Source\PSoC4/CyBle_eventHandler.c ****                     {
1879:Generated_Source\PSoC4/CyBle_eventHandler.c ****                         CyBle_SetState(CYBLE_STATE_DISCONNECTED);  
1880:Generated_Source\PSoC4/CyBle_eventHandler.c ****                     #if ((CYBLE_SLOW_SCAN_ENABLED != 0u) && (CYBLE_FAST_SCAN_TIMEOUT != 0u))
1881:Generated_Source\PSoC4/CyBle_eventHandler.c ****                         if(cyBle_scanningIntervalType == CYBLE_SCANNING_FAST)
1882:Generated_Source\PSoC4/CyBle_eventHandler.c ****                         {
1883:Generated_Source\PSoC4/CyBle_eventHandler.c ****                             /* When fast scanning time out occur: Start slow scanning */
1884:Generated_Source\PSoC4/CyBle_eventHandler.c ****                             if(CyBle_GapcStartScan(CYBLE_SCANNING_SLOW) == CYBLE_ERROR_OK)
1885:Generated_Source\PSoC4/CyBle_eventHandler.c ****                             {
1886:Generated_Source\PSoC4/CyBle_eventHandler.c ****                                 CyBle_SetState(CYBLE_STATE_SCANNING);
1887:Generated_Source\PSoC4/CyBle_eventHandler.c ****                             }
1888:Generated_Source\PSoC4/CyBle_eventHandler.c ****                         }
1889:Generated_Source\PSoC4/CyBle_eventHandler.c ****                     #endif /* CYBLE_SLOW_SCAN_ENABLED */
1890:Generated_Source\PSoC4/CyBle_eventHandler.c ****                     }
1891:Generated_Source\PSoC4/CyBle_eventHandler.c ****                 }
1892:Generated_Source\PSoC4/CyBle_eventHandler.c ****             }
1893:Generated_Source\PSoC4/CyBle_eventHandler.c ****             break;
1894:Generated_Source\PSoC4/CyBle_eventHandler.c ****         #endif /* CYBLE_GAP_ROLE_CENTRAL || CYBLE_GAP_ROLE_OBSERVER */
1895:Generated_Source\PSoC4/CyBle_eventHandler.c **** 
1896:Generated_Source\PSoC4/CyBle_eventHandler.c ****         /**********************************************************
1897:Generated_Source\PSoC4/CyBle_eventHandler.c ****         * L2AP events 
1898:Generated_Source\PSoC4/CyBle_eventHandler.c ****         ************************************************************/
1899:Generated_Source\PSoC4/CyBle_eventHandler.c ****         case CYBLE_EVT_L2CAP_CONN_PARAM_UPDATE_RSP:
1900:Generated_Source\PSoC4/CyBle_eventHandler.c ****             CyBle_L2Cap_ConnParamUpdateRspEventHandler(*(uint16 *)eventParam);
1901:Generated_Source\PSoC4/CyBle_eventHandler.c ****             break;
1902:Generated_Source\PSoC4/CyBle_eventHandler.c ****         
1903:Generated_Source\PSoC4/CyBle_eventHandler.c ****         /**********************************************************
1904:Generated_Source\PSoC4/CyBle_eventHandler.c ****         * GATT events
1905:Generated_Source\PSoC4/CyBle_eventHandler.c ****         ************************************************************/        
1906:Generated_Source\PSoC4/CyBle_eventHandler.c ****         case CYBLE_EVT_GATT_CONNECT_IND:
1907:Generated_Source\PSoC4/CyBle_eventHandler.c ****             cyBle_connHandle = *(CYBLE_CONN_HANDLE_T *)eventParam;
 578              		.loc 1 1907 0
 579 018e 0222     		movs	r2, #2
 580 0190 2100     		movs	r1, r4
 581 0192 2448     		ldr	r0, .L41+40
 582              	.LVL44:
 583 0194 FFF7FEFF 		bl	memcpy
 584              	.LVL45:
1908:Generated_Source\PSoC4/CyBle_eventHandler.c ****             cyBle_busyStatus = CYBLE_STACK_STATE_FREE;
ARM GAS  C:\Users\Tymek\AppData\Local\Temp\ccJhKwfb.s 			page 45


 585              		.loc 1 1908 0
 586 0198 0022     		movs	r2, #0
 587 019a 1D4B     		ldr	r3, .L41+20
 588 019c 1A70     		strb	r2, [r3]
1909:Generated_Source\PSoC4/CyBle_eventHandler.c ****             
1910:Generated_Source\PSoC4/CyBle_eventHandler.c ****         #if((CYBLE_GATT_ROLE_SERVER) && (CYBLE_GATT_DB_CCCD_COUNT != 0u) && \
1911:Generated_Source\PSoC4/CyBle_eventHandler.c ****             (CYBLE_BONDING_REQUIREMENT == CYBLE_BONDING_YES))
1912:Generated_Source\PSoC4/CyBle_eventHandler.c ****             /* Init CCCD values in RAM when bonding is enabled */
1913:Generated_Source\PSoC4/CyBle_eventHandler.c ****         	(void) memcpy (cyBle_attValuesCCCD, cyBle_flashStorage.attValuesCCCDFlashMemory[cyBle_conn
1914:Generated_Source\PSoC4/CyBle_eventHandler.c ****                             CYBLE_GATT_DB_CCCD_COUNT);
1915:Generated_Source\PSoC4/CyBle_eventHandler.c ****         #endif /* CYBLE_GATT_ROLE_SERVER && (CYBLE_BONDING_REQUIREMENT == CYBLE_BONDING_YES) */
1916:Generated_Source\PSoC4/CyBle_eventHandler.c ****         
1917:Generated_Source\PSoC4/CyBle_eventHandler.c ****         #if (CYBLE_GATT_ROLE_CLIENT)
1918:Generated_Source\PSoC4/CyBle_eventHandler.c ****             CyBle_SetClientState(CYBLE_CLIENT_STATE_CONNECTED);
1919:Generated_Source\PSoC4/CyBle_eventHandler.c ****         #endif /* CYBLE_GATT_ROLE_CLIENT */
1920:Generated_Source\PSoC4/CyBle_eventHandler.c ****         
1921:Generated_Source\PSoC4/CyBle_eventHandler.c ****             CyBle_GattConnectReqHandler();
1922:Generated_Source\PSoC4/CyBle_eventHandler.c ****             break;
 589              		.loc 1 1922 0
 590 019e 1CE0     		b	.L17
 591              	.LVL46:
 592              	.L27:
1923:Generated_Source\PSoC4/CyBle_eventHandler.c **** 
1924:Generated_Source\PSoC4/CyBle_eventHandler.c ****         case CYBLE_EVT_GATT_DISCONNECT_IND:
1925:Generated_Source\PSoC4/CyBle_eventHandler.c ****             CyBle_GattDisconnectEventHandler();
 593              		.loc 1 1925 0
 594 01a0 FFF7FEFF 		bl	CyBle_GattDisconnectEventHandler
 595              	.LVL47:
1926:Generated_Source\PSoC4/CyBle_eventHandler.c ****             break;
 596              		.loc 1 1926 0
 597 01a4 19E0     		b	.L17
 598              	.LVL48:
 599              	.L28:
 600              	.LBB8:
1927:Generated_Source\PSoC4/CyBle_eventHandler.c **** 
1928:Generated_Source\PSoC4/CyBle_eventHandler.c ****     #if((CYBLE_GATT_ROLE_SERVER) || (CYBLE_GATT_ROLE_CLIENT))
1929:Generated_Source\PSoC4/CyBle_eventHandler.c ****         case CYBLE_EVT_GATTS_XCNHG_MTU_REQ:
1930:Generated_Source\PSoC4/CyBle_eventHandler.c ****             {
1931:Generated_Source\PSoC4/CyBle_eventHandler.c ****                 uint16 cyBle_mtuSize;
1932:Generated_Source\PSoC4/CyBle_eventHandler.c ****                 if(CYBLE_GATT_MTU > ((CYBLE_GATT_XCHG_MTU_PARAM_T *)eventParam)->mtu)
 601              		.loc 1 1932 0
 602 01a6 6188     		ldrh	r1, [r4, #2]
 603 01a8 2C23     		movs	r3, #44
 604 01aa FF33     		adds	r3, r3, #255
 605 01ac 9942     		cmp	r1, r3
 606 01ae 01D9     		bls	.L39
1933:Generated_Source\PSoC4/CyBle_eventHandler.c ****                 {
1934:Generated_Source\PSoC4/CyBle_eventHandler.c ****                     cyBle_mtuSize = ((CYBLE_GATT_XCHG_MTU_PARAM_T *)eventParam)->mtu;
1935:Generated_Source\PSoC4/CyBle_eventHandler.c ****                 }
1936:Generated_Source\PSoC4/CyBle_eventHandler.c ****                 else
1937:Generated_Source\PSoC4/CyBle_eventHandler.c ****                 {
1938:Generated_Source\PSoC4/CyBle_eventHandler.c ****                     cyBle_mtuSize = CYBLE_GATT_MTU;
 607              		.loc 1 1938 0
 608 01b0 9621     		movs	r1, #150
 609 01b2 4900     		lsls	r1, r1, #1
 610              	.L39:
 611              	.LVL49:
ARM GAS  C:\Users\Tymek\AppData\Local\Temp\ccJhKwfb.s 			page 46


1939:Generated_Source\PSoC4/CyBle_eventHandler.c ****                 }
1940:Generated_Source\PSoC4/CyBle_eventHandler.c ****                 (void)CyBle_GattsExchangeMtuRsp(((CYBLE_GATT_XCHG_MTU_PARAM_T *)eventParam)->connHa
 612              		.loc 1 1940 0
 613 01b4 2088     		ldrh	r0, [r4]
 614              	.LVL50:
 615 01b6 FFF7FEFF 		bl	CyBle_GattsExchangeMtuRsp
 616              	.LVL51:
 617              	.LBE8:
1941:Generated_Source\PSoC4/CyBle_eventHandler.c ****             }
1942:Generated_Source\PSoC4/CyBle_eventHandler.c ****             break;
 618              		.loc 1 1942 0
 619 01ba 0EE0     		b	.L17
 620              	.LVL52:
 621              	.L29:
1943:Generated_Source\PSoC4/CyBle_eventHandler.c ****     #endif /* CYBLE_GATT_ROLE_SERVER || CYBLE_GATT_ROLE_CLIENT */
1944:Generated_Source\PSoC4/CyBle_eventHandler.c ****     
1945:Generated_Source\PSoC4/CyBle_eventHandler.c ****     #if (CYBLE_GATT_ROLE_CLIENT)
1946:Generated_Source\PSoC4/CyBle_eventHandler.c ****         case CYBLE_EVT_GAPC_SCAN_PROGRESS_RESULT:
1947:Generated_Source\PSoC4/CyBle_eventHandler.c ****         #ifdef CYBLE_CPS_CLIENT
1948:Generated_Source\PSoC4/CyBle_eventHandler.c ****             CyBle_CpscScanProcessEventHandler((CYBLE_GAPC_ADV_REPORT_T *)eventParam);
1949:Generated_Source\PSoC4/CyBle_eventHandler.c ****         #endif /* CYBLE_CPS_CLIENT */
1950:Generated_Source\PSoC4/CyBle_eventHandler.c ****             break;
1951:Generated_Source\PSoC4/CyBle_eventHandler.c ****     #endif /* CYBLE_GATT_ROLE_CLIENT */
1952:Generated_Source\PSoC4/CyBle_eventHandler.c **** 
1953:Generated_Source\PSoC4/CyBle_eventHandler.c ****     #if(CYBLE_GATT_ROLE_SERVER)
1954:Generated_Source\PSoC4/CyBle_eventHandler.c ****         case CYBLE_EVT_GATTS_WRITE_REQ:
1955:Generated_Source\PSoC4/CyBle_eventHandler.c ****             CyBle_WriteReqHandler((CYBLE_GATTS_WRITE_REQ_PARAM_T *)eventParam);
 622              		.loc 1 1955 0
 623 01bc 2000     		movs	r0, r4
 624              	.LVL53:
 625 01be FFF7FEFF 		bl	CyBle_WriteReqHandler
 626              	.LVL54:
1956:Generated_Source\PSoC4/CyBle_eventHandler.c ****             break;
 627              		.loc 1 1956 0
 628 01c2 0AE0     		b	.L17
 629              	.LVL55:
 630              	.L30:
1957:Generated_Source\PSoC4/CyBle_eventHandler.c **** 
1958:Generated_Source\PSoC4/CyBle_eventHandler.c ****         case CYBLE_EVT_GATTS_WRITE_CMD_REQ:
1959:Generated_Source\PSoC4/CyBle_eventHandler.c ****         #ifdef CYBLE_AIOS_SERVER
1960:Generated_Source\PSoC4/CyBle_eventHandler.c ****             if((cyBle_eventHandlerFlag & CYBLE_CALLBACK) != 0u)
1961:Generated_Source\PSoC4/CyBle_eventHandler.c ****             {
1962:Generated_Source\PSoC4/CyBle_eventHandler.c ****                 (void)CyBle_AiossWriteEventHandler((CYBLE_GATTS_WRITE_REQ_PARAM_T *)eventParam);
1963:Generated_Source\PSoC4/CyBle_eventHandler.c ****             }
1964:Generated_Source\PSoC4/CyBle_eventHandler.c ****         #endif /* CYBLE_AIOS_SERVER */
1965:Generated_Source\PSoC4/CyBle_eventHandler.c ****         #ifdef CYBLE_IAS_SERVER
1966:Generated_Source\PSoC4/CyBle_eventHandler.c ****             if((cyBle_eventHandlerFlag & CYBLE_CALLBACK) != 0u)
1967:Generated_Source\PSoC4/CyBle_eventHandler.c ****             {
1968:Generated_Source\PSoC4/CyBle_eventHandler.c ****                 (void)CyBle_IassWriteCmdEventHandler((CYBLE_GATTS_WRITE_REQ_PARAM_T *)eventParam);
1969:Generated_Source\PSoC4/CyBle_eventHandler.c ****             }
1970:Generated_Source\PSoC4/CyBle_eventHandler.c ****         #endif /* CYBLE_IAS_SERVER */
1971:Generated_Source\PSoC4/CyBle_eventHandler.c ****         #ifdef CYBLE_IPS_SERVER
1972:Generated_Source\PSoC4/CyBle_eventHandler.c ****             if((cyBle_eventHandlerFlag & CYBLE_CALLBACK) != 0u)
1973:Generated_Source\PSoC4/CyBle_eventHandler.c ****             {
1974:Generated_Source\PSoC4/CyBle_eventHandler.c ****                 (void)CyBle_IpssWriteCmdEventHandler((CYBLE_GATTS_WRITE_REQ_PARAM_T *)eventParam);
1975:Generated_Source\PSoC4/CyBle_eventHandler.c ****             }
1976:Generated_Source\PSoC4/CyBle_eventHandler.c ****         #endif /* CYBLE_IPS_SERVER */
ARM GAS  C:\Users\Tymek\AppData\Local\Temp\ccJhKwfb.s 			page 47


1977:Generated_Source\PSoC4/CyBle_eventHandler.c ****         #ifdef CYBLE_HIDS_SERVER
1978:Generated_Source\PSoC4/CyBle_eventHandler.c ****             if((cyBle_eventHandlerFlag & CYBLE_CALLBACK) != 0u)
1979:Generated_Source\PSoC4/CyBle_eventHandler.c ****             {
1980:Generated_Source\PSoC4/CyBle_eventHandler.c ****                 (void)CyBle_HidssWriteEventHandler((CYBLE_GATTS_WRITE_REQ_PARAM_T *)eventParam);
1981:Generated_Source\PSoC4/CyBle_eventHandler.c ****             }
1982:Generated_Source\PSoC4/CyBle_eventHandler.c ****         #endif /* CYBLE_HIDS_SERVER */
1983:Generated_Source\PSoC4/CyBle_eventHandler.c ****         #ifdef CYBLE_PASS_SERVER
1984:Generated_Source\PSoC4/CyBle_eventHandler.c ****             if((cyBle_eventHandlerFlag & CYBLE_CALLBACK) != 0u)
1985:Generated_Source\PSoC4/CyBle_eventHandler.c ****             {
1986:Generated_Source\PSoC4/CyBle_eventHandler.c ****                 (void)CyBle_PasssWriteCmdEventHandler((CYBLE_GATTS_WRITE_REQ_PARAM_T *)eventParam);
1987:Generated_Source\PSoC4/CyBle_eventHandler.c ****             }
1988:Generated_Source\PSoC4/CyBle_eventHandler.c ****         #endif /* CYBLE_PASS_SERVER */
1989:Generated_Source\PSoC4/CyBle_eventHandler.c ****         #ifdef CYBLE_RTUS_SERVER
1990:Generated_Source\PSoC4/CyBle_eventHandler.c ****             if((cyBle_eventHandlerFlag & CYBLE_CALLBACK) != 0u)
1991:Generated_Source\PSoC4/CyBle_eventHandler.c ****             {
1992:Generated_Source\PSoC4/CyBle_eventHandler.c ****                 (void)CyBle_RtussWriteCmdEventHandler((CYBLE_GATTS_WRITE_REQ_PARAM_T *)eventParam);
1993:Generated_Source\PSoC4/CyBle_eventHandler.c ****             }
1994:Generated_Source\PSoC4/CyBle_eventHandler.c ****         #endif /* CYBLE_RTUS_SERVER */
1995:Generated_Source\PSoC4/CyBle_eventHandler.c ****         #ifdef CYBLE_SCPS_SERVER
1996:Generated_Source\PSoC4/CyBle_eventHandler.c ****             if((cyBle_eventHandlerFlag & CYBLE_CALLBACK) != 0u)
1997:Generated_Source\PSoC4/CyBle_eventHandler.c ****             {
1998:Generated_Source\PSoC4/CyBle_eventHandler.c ****                 (void)CyBle_ScpssWriteEventHandler((CYBLE_GATTS_WRITE_REQ_PARAM_T *)eventParam);
1999:Generated_Source\PSoC4/CyBle_eventHandler.c ****             }
2000:Generated_Source\PSoC4/CyBle_eventHandler.c ****         #endif /* CYBLE_SCPS_SERVER */
2001:Generated_Source\PSoC4/CyBle_eventHandler.c ****             break;
2002:Generated_Source\PSoC4/CyBle_eventHandler.c ****         
2003:Generated_Source\PSoC4/CyBle_eventHandler.c ****         case CYBLE_EVT_GATTS_PREP_WRITE_REQ:
2004:Generated_Source\PSoC4/CyBle_eventHandler.c ****         #ifdef CYBLE_BMS_SERVER
2005:Generated_Source\PSoC4/CyBle_eventHandler.c ****             CyBle_BmssPrepareWriteRequestEventHandler((CYBLE_GATTS_PREP_WRITE_REQ_PARAM_T *)eventPa
2006:Generated_Source\PSoC4/CyBle_eventHandler.c ****         #endif /* CYBLE_BMS_SERVER */
2007:Generated_Source\PSoC4/CyBle_eventHandler.c ****         #ifdef CYBLE_BTS_SERVER
2008:Generated_Source\PSoC4/CyBle_eventHandler.c ****             if((cyBle_eventHandlerFlag & CYBLE_CALLBACK) != 0u)
 631              		.loc 1 2008 0
 632 01c4 0D4B     		ldr	r3, .L41
 633 01c6 1B78     		ldrb	r3, [r3]
 634 01c8 DB07     		lsls	r3, r3, #31
 635 01ca 06D5     		bpl	.L17
2009:Generated_Source\PSoC4/CyBle_eventHandler.c ****             {
2010:Generated_Source\PSoC4/CyBle_eventHandler.c ****                 CyBle_BtssPrepareWriteRequestEventHandler((CYBLE_GATTS_PREP_WRITE_REQ_PARAM_T *)eve
 636              		.loc 1 2010 0
 637 01cc 2000     		movs	r0, r4
 638              	.LVL56:
 639 01ce FFF7FEFF 		bl	CyBle_BtssPrepareWriteRequestEventHandler
 640              	.LVL57:
 641 01d2 02E0     		b	.L17
 642              	.LVL58:
 643              	.L31:
2011:Generated_Source\PSoC4/CyBle_eventHandler.c ****             }
2012:Generated_Source\PSoC4/CyBle_eventHandler.c ****         #endif /* CYBLE_BTS_SERVER */
2013:Generated_Source\PSoC4/CyBle_eventHandler.c ****         #ifdef CYBLE_ESS_SERVER
2014:Generated_Source\PSoC4/CyBle_eventHandler.c ****             if((cyBle_eventHandlerFlag & CYBLE_CALLBACK) != 0u)
2015:Generated_Source\PSoC4/CyBle_eventHandler.c ****             {
2016:Generated_Source\PSoC4/CyBle_eventHandler.c ****                 CyBle_EsssPrepareWriteRequestEventHandler((CYBLE_GATTS_PREP_WRITE_REQ_PARAM_T *)eve
2017:Generated_Source\PSoC4/CyBle_eventHandler.c ****             }
2018:Generated_Source\PSoC4/CyBle_eventHandler.c ****         #endif /* CYBLE_ESS_SERVER */
2019:Generated_Source\PSoC4/CyBle_eventHandler.c ****         #ifdef CYBLE_HPS_SERVER
2020:Generated_Source\PSoC4/CyBle_eventHandler.c ****             if((cyBle_eventHandlerFlag & CYBLE_CALLBACK) != 0u)
ARM GAS  C:\Users\Tymek\AppData\Local\Temp\ccJhKwfb.s 			page 48


2021:Generated_Source\PSoC4/CyBle_eventHandler.c ****             {
2022:Generated_Source\PSoC4/CyBle_eventHandler.c ****                 CyBle_HpssPrepareWriteRequestEventHandler((CYBLE_GATTS_PREP_WRITE_REQ_PARAM_T *)eve
2023:Generated_Source\PSoC4/CyBle_eventHandler.c ****             }
2024:Generated_Source\PSoC4/CyBle_eventHandler.c ****         #endif /* CYBLE_HPS_SERVER */
2025:Generated_Source\PSoC4/CyBle_eventHandler.c ****         #ifdef CYBLE_IPS_SERVER
2026:Generated_Source\PSoC4/CyBle_eventHandler.c ****             if((cyBle_eventHandlerFlag & CYBLE_CALLBACK) != 0u)
2027:Generated_Source\PSoC4/CyBle_eventHandler.c ****             {
2028:Generated_Source\PSoC4/CyBle_eventHandler.c ****                 CyBle_IpssPrepareWriteRequestEventHandler((CYBLE_GATTS_PREP_WRITE_REQ_PARAM_T *)eve
2029:Generated_Source\PSoC4/CyBle_eventHandler.c ****             }
2030:Generated_Source\PSoC4/CyBle_eventHandler.c ****         #endif /* CYBLE_IPS_SERVER */
2031:Generated_Source\PSoC4/CyBle_eventHandler.c ****         #ifdef CYBLE_UDS_SERVER
2032:Generated_Source\PSoC4/CyBle_eventHandler.c ****             if((cyBle_eventHandlerFlag & CYBLE_CALLBACK) != 0u)
2033:Generated_Source\PSoC4/CyBle_eventHandler.c ****             {
2034:Generated_Source\PSoC4/CyBle_eventHandler.c ****                 CyBle_UdssPrepareWriteRequestEventHandler((CYBLE_GATTS_PREP_WRITE_REQ_PARAM_T *)eve
2035:Generated_Source\PSoC4/CyBle_eventHandler.c ****             }
2036:Generated_Source\PSoC4/CyBle_eventHandler.c ****         #endif /* CYBLE_UDS_SERVER */
2037:Generated_Source\PSoC4/CyBle_eventHandler.c ****             break;
2038:Generated_Source\PSoC4/CyBle_eventHandler.c **** 
2039:Generated_Source\PSoC4/CyBle_eventHandler.c ****         case CYBLE_EVT_GATTS_EXEC_WRITE_REQ:
2040:Generated_Source\PSoC4/CyBle_eventHandler.c ****         #ifdef CYBLE_BMS_SERVER
2041:Generated_Source\PSoC4/CyBle_eventHandler.c ****             CyBle_BmssExecuteWriteRequestEventHandler((CYBLE_GATTS_EXEC_WRITE_REQ_T *)eventParam);
2042:Generated_Source\PSoC4/CyBle_eventHandler.c ****         #endif /* CYBLE_BMS_SERVER */
2043:Generated_Source\PSoC4/CyBle_eventHandler.c ****         #ifdef CYBLE_BTS_SERVER
2044:Generated_Source\PSoC4/CyBle_eventHandler.c ****             CyBle_BtssExecuteWriteRequestEventHandler((CYBLE_GATTS_EXEC_WRITE_REQ_T *)eventParam);
 644              		.loc 1 2044 0
 645 01d4 2000     		movs	r0, r4
 646              	.LVL59:
 647 01d6 FFF7FEFF 		bl	CyBle_BtssExecuteWriteRequestEventHandler
 648              	.LVL60:
 649              	.L17:
2045:Generated_Source\PSoC4/CyBle_eventHandler.c ****         #endif /* CYBLE_BTS_SERVER */
2046:Generated_Source\PSoC4/CyBle_eventHandler.c ****         #ifdef CYBLE_ESS_SERVER
2047:Generated_Source\PSoC4/CyBle_eventHandler.c ****             CyBle_EsssExecuteWriteRequestEventHandler((CYBLE_GATTS_EXEC_WRITE_REQ_T *)eventParam);
2048:Generated_Source\PSoC4/CyBle_eventHandler.c ****         #endif /* CYBLE_ESS_SERVER */
2049:Generated_Source\PSoC4/CyBle_eventHandler.c ****         #ifdef CYBLE_HPS_SERVER
2050:Generated_Source\PSoC4/CyBle_eventHandler.c ****             CyBle_HpssExecuteWriteRequestEventHandler((CYBLE_GATTS_EXEC_WRITE_REQ_T *)eventParam);
2051:Generated_Source\PSoC4/CyBle_eventHandler.c ****         #endif /* CYBLE_HPS_SERVER */
2052:Generated_Source\PSoC4/CyBle_eventHandler.c ****         #ifdef CYBLE_IPS_SERVER
2053:Generated_Source\PSoC4/CyBle_eventHandler.c ****             CyBle_IpssExecuteWriteRequestEventHandler((CYBLE_GATTS_EXEC_WRITE_REQ_T *)eventParam);
2054:Generated_Source\PSoC4/CyBle_eventHandler.c ****         #endif /* CYBLE_IPS_SERVER */
2055:Generated_Source\PSoC4/CyBle_eventHandler.c **** 		#ifdef CYBLE_UDS_SERVER
2056:Generated_Source\PSoC4/CyBle_eventHandler.c ****             CyBle_UdssExecuteWriteRequestEventHandler((CYBLE_GATTS_EXEC_WRITE_REQ_T *)eventParam);
2057:Generated_Source\PSoC4/CyBle_eventHandler.c ****         #endif /* CYBLE_UDS_SERVER */
2058:Generated_Source\PSoC4/CyBle_eventHandler.c ****             break;
2059:Generated_Source\PSoC4/CyBle_eventHandler.c ****         
2060:Generated_Source\PSoC4/CyBle_eventHandler.c ****         case CYBLE_EVT_GATTS_HANDLE_VALUE_CNF:
2061:Generated_Source\PSoC4/CyBle_eventHandler.c ****             CyBle_ValueConfirmation((CYBLE_CONN_HANDLE_T *)eventParam);
2062:Generated_Source\PSoC4/CyBle_eventHandler.c ****             break;
2063:Generated_Source\PSoC4/CyBle_eventHandler.c ****             
2064:Generated_Source\PSoC4/CyBle_eventHandler.c ****         case CYBLE_EVT_GATTS_READ_CHAR_VAL_ACCESS_REQ:
2065:Generated_Source\PSoC4/CyBle_eventHandler.c ****         #ifdef CYBLE_UDS_SERVER
2066:Generated_Source\PSoC4/CyBle_eventHandler.c ****             CyBle_UdssReadRequestEventHandler((CYBLE_GATTS_CHAR_VAL_READ_REQ_T *)eventParam);
2067:Generated_Source\PSoC4/CyBle_eventHandler.c ****         #endif /* CYBLE_UDS_SERVER */
2068:Generated_Source\PSoC4/CyBle_eventHandler.c ****             break;
2069:Generated_Source\PSoC4/CyBle_eventHandler.c ****             
2070:Generated_Source\PSoC4/CyBle_eventHandler.c ****     #endif /* CYBLE_GATT_ROLE_SERVER */
2071:Generated_Source\PSoC4/CyBle_eventHandler.c **** 
ARM GAS  C:\Users\Tymek\AppData\Local\Temp\ccJhKwfb.s 			page 49


2072:Generated_Source\PSoC4/CyBle_eventHandler.c ****     #if (CYBLE_GATT_ROLE_CLIENT)
2073:Generated_Source\PSoC4/CyBle_eventHandler.c ****         
2074:Generated_Source\PSoC4/CyBle_eventHandler.c ****         case CYBLE_EVT_GATTC_READ_BY_GROUP_TYPE_RSP:
2075:Generated_Source\PSoC4/CyBle_eventHandler.c ****             CyBle_ReadByGroupEventHandler((CYBLE_GATTC_READ_BY_GRP_RSP_PARAM_T *)eventParam);
2076:Generated_Source\PSoC4/CyBle_eventHandler.c ****             break;
2077:Generated_Source\PSoC4/CyBle_eventHandler.c **** 
2078:Generated_Source\PSoC4/CyBle_eventHandler.c ****         case CYBLE_EVT_GATTC_READ_BY_TYPE_RSP:
2079:Generated_Source\PSoC4/CyBle_eventHandler.c ****             CyBle_ReadByTypeEventHandler((CYBLE_GATTC_READ_BY_TYPE_RSP_PARAM_T *)eventParam);
2080:Generated_Source\PSoC4/CyBle_eventHandler.c ****             break;
2081:Generated_Source\PSoC4/CyBle_eventHandler.c **** 
2082:Generated_Source\PSoC4/CyBle_eventHandler.c ****         case CYBLE_EVT_GATTC_READ_BLOB_RSP:
2083:Generated_Source\PSoC4/CyBle_eventHandler.c ****         #ifdef CYBLE_ESS_CLIENT
2084:Generated_Source\PSoC4/CyBle_eventHandler.c ****             CyBle_EsscReadLongRespEventHandler((CYBLE_GATTC_READ_RSP_PARAM_T *)eventParam);
2085:Generated_Source\PSoC4/CyBle_eventHandler.c ****         #endif /* CYBLE_ESS_CLIENT */
2086:Generated_Source\PSoC4/CyBle_eventHandler.c ****         #ifdef CYBLE_HPS_CLIENT
2087:Generated_Source\PSoC4/CyBle_eventHandler.c ****             CyBle_HpscReadLongRespEventHandler((CYBLE_GATTC_READ_RSP_PARAM_T *)eventParam);
2088:Generated_Source\PSoC4/CyBle_eventHandler.c ****         #endif /* CYBLE_HPS_CLIENT */
2089:Generated_Source\PSoC4/CyBle_eventHandler.c **** 		#ifdef CYBLE_IPS_CLIENT
2090:Generated_Source\PSoC4/CyBle_eventHandler.c ****             CyBle_IpscReadLongRespEventHandler((CYBLE_GATTC_READ_RSP_PARAM_T *)eventParam);
2091:Generated_Source\PSoC4/CyBle_eventHandler.c ****         #endif /* CYBLE_IPS_CLIENT */
2092:Generated_Source\PSoC4/CyBle_eventHandler.c ****         #ifdef CYBLE_UDS_CLIENT
2093:Generated_Source\PSoC4/CyBle_eventHandler.c ****             if((cyBle_eventHandlerFlag & CYBLE_CALLBACK) != 0u)
2094:Generated_Source\PSoC4/CyBle_eventHandler.c ****             {
2095:Generated_Source\PSoC4/CyBle_eventHandler.c ****                 CyBle_UdscReadLongRespEventHandler((CYBLE_GATTC_READ_RSP_PARAM_T *)eventParam);
2096:Generated_Source\PSoC4/CyBle_eventHandler.c ****             }
2097:Generated_Source\PSoC4/CyBle_eventHandler.c ****         #endif /* CYBLE_UDS_CLIENT */
2098:Generated_Source\PSoC4/CyBle_eventHandler.c ****             break;
2099:Generated_Source\PSoC4/CyBle_eventHandler.c ****         
2100:Generated_Source\PSoC4/CyBle_eventHandler.c ****         case CYBLE_EVT_GATTC_LONG_PROCEDURE_END:
2101:Generated_Source\PSoC4/CyBle_eventHandler.c ****             CyBle_LongProcedureEndEventHandler();
2102:Generated_Source\PSoC4/CyBle_eventHandler.c ****             break;
2103:Generated_Source\PSoC4/CyBle_eventHandler.c ****         
2104:Generated_Source\PSoC4/CyBle_eventHandler.c ****         case CYBLE_EVT_GATTC_FIND_INFO_RSP:
2105:Generated_Source\PSoC4/CyBle_eventHandler.c ****             CyBle_FindInfoEventHandler((CYBLE_GATTC_FIND_INFO_RSP_PARAM_T *)eventParam);
2106:Generated_Source\PSoC4/CyBle_eventHandler.c ****             break;
2107:Generated_Source\PSoC4/CyBle_eventHandler.c **** 
2108:Generated_Source\PSoC4/CyBle_eventHandler.c ****         case CYBLE_EVT_GATTC_ERROR_RSP:
2109:Generated_Source\PSoC4/CyBle_eventHandler.c ****             CyBle_ErrorResponseEventHandler((CYBLE_GATTC_ERR_RSP_PARAM_T *)eventParam);
2110:Generated_Source\PSoC4/CyBle_eventHandler.c ****             break;
2111:Generated_Source\PSoC4/CyBle_eventHandler.c **** 
2112:Generated_Source\PSoC4/CyBle_eventHandler.c ****         case CYBLE_EVT_GATTC_HANDLE_VALUE_NTF:
2113:Generated_Source\PSoC4/CyBle_eventHandler.c ****             CyBle_NotificationEventHandler((CYBLE_GATTC_HANDLE_VALUE_NTF_PARAM_T *)eventParam);
2114:Generated_Source\PSoC4/CyBle_eventHandler.c ****             break;
2115:Generated_Source\PSoC4/CyBle_eventHandler.c **** 
2116:Generated_Source\PSoC4/CyBle_eventHandler.c ****         case CYBLE_EVT_GATTC_HANDLE_VALUE_IND:
2117:Generated_Source\PSoC4/CyBle_eventHandler.c ****             CyBle_GattcIndicationEventHandler((CYBLE_GATTC_HANDLE_VALUE_IND_PARAM_T *)eventParam);
2118:Generated_Source\PSoC4/CyBle_eventHandler.c ****             CyBle_IndicationEventHandler((CYBLE_GATTC_HANDLE_VALUE_IND_PARAM_T *)eventParam);
2119:Generated_Source\PSoC4/CyBle_eventHandler.c ****         
2120:Generated_Source\PSoC4/CyBle_eventHandler.c ****             /* Respond with a Handle Value Confirmation when request handled */
2121:Generated_Source\PSoC4/CyBle_eventHandler.c ****             if((cyBle_eventHandlerFlag & CYBLE_CALLBACK) == 0u)
2122:Generated_Source\PSoC4/CyBle_eventHandler.c ****             {
2123:Generated_Source\PSoC4/CyBle_eventHandler.c ****                 (void)CyBle_GattcConfirmation(((CYBLE_GATTC_HANDLE_VALUE_IND_PARAM_T *)eventParam)-
2124:Generated_Source\PSoC4/CyBle_eventHandler.c ****             }
2125:Generated_Source\PSoC4/CyBle_eventHandler.c ****             break;
2126:Generated_Source\PSoC4/CyBle_eventHandler.c ****         
2127:Generated_Source\PSoC4/CyBle_eventHandler.c ****         case CYBLE_EVT_GATTC_READ_RSP:
2128:Generated_Source\PSoC4/CyBle_eventHandler.c ****             CyBle_ReadResponseEventHandler((CYBLE_GATTC_READ_RSP_PARAM_T *)eventParam);
ARM GAS  C:\Users\Tymek\AppData\Local\Temp\ccJhKwfb.s 			page 50


2129:Generated_Source\PSoC4/CyBle_eventHandler.c ****             break;
2130:Generated_Source\PSoC4/CyBle_eventHandler.c ****         
2131:Generated_Source\PSoC4/CyBle_eventHandler.c ****         case CYBLE_EVT_GATTC_READ_MULTI_RSP:
2132:Generated_Source\PSoC4/CyBle_eventHandler.c ****             CyBle_ReadMultipleResponseEventHandler((CYBLE_GATTC_READ_RSP_PARAM_T *)eventParam);
2133:Generated_Source\PSoC4/CyBle_eventHandler.c ****             break;
2134:Generated_Source\PSoC4/CyBle_eventHandler.c ****             
2135:Generated_Source\PSoC4/CyBle_eventHandler.c ****         case CYBLE_EVT_GATTC_WRITE_RSP:
2136:Generated_Source\PSoC4/CyBle_eventHandler.c ****             CyBle_GattcWriteResponseEventHandler((CYBLE_CONN_HANDLE_T *)eventParam);
2137:Generated_Source\PSoC4/CyBle_eventHandler.c ****             break;
2138:Generated_Source\PSoC4/CyBle_eventHandler.c ****             
2139:Generated_Source\PSoC4/CyBle_eventHandler.c ****         case CYBLE_EVT_GATTC_EXEC_WRITE_RSP:
2140:Generated_Source\PSoC4/CyBle_eventHandler.c ****         #ifdef CYBLE_BMS_CLIENT
2141:Generated_Source\PSoC4/CyBle_eventHandler.c ****             CyBle_BmscExecuteWriteResponseEventHandler((CYBLE_GATTC_EXEC_WRITE_RSP_T *)eventParam);
2142:Generated_Source\PSoC4/CyBle_eventHandler.c ****         #endif /* CYBLE_BMS_CLIENT */
2143:Generated_Source\PSoC4/CyBle_eventHandler.c ****         #ifdef CYBLE_ESS_CLIENT
2144:Generated_Source\PSoC4/CyBle_eventHandler.c ****             if((cyBle_eventHandlerFlag & CYBLE_CALLBACK) != 0u)
2145:Generated_Source\PSoC4/CyBle_eventHandler.c ****             {
2146:Generated_Source\PSoC4/CyBle_eventHandler.c ****                 CyBle_EsscExecuteWriteResponseEventHandler((CYBLE_GATTC_EXEC_WRITE_RSP_T *)eventPar
2147:Generated_Source\PSoC4/CyBle_eventHandler.c ****             }
2148:Generated_Source\PSoC4/CyBle_eventHandler.c ****         #endif /* CYBLE_ESS_CLIENT */
2149:Generated_Source\PSoC4/CyBle_eventHandler.c ****         #ifdef CYBLE_HPS_CLIENT
2150:Generated_Source\PSoC4/CyBle_eventHandler.c ****             if((cyBle_eventHandlerFlag & CYBLE_CALLBACK) != 0u)
2151:Generated_Source\PSoC4/CyBle_eventHandler.c ****             {
2152:Generated_Source\PSoC4/CyBle_eventHandler.c ****                 CyBle_HpscExecuteWriteResponseEventHandler((CYBLE_GATTC_EXEC_WRITE_RSP_T *)eventPar
2153:Generated_Source\PSoC4/CyBle_eventHandler.c ****             }
2154:Generated_Source\PSoC4/CyBle_eventHandler.c ****         #endif /* CYBLE_HPS_CLIENT */
2155:Generated_Source\PSoC4/CyBle_eventHandler.c ****         #ifdef CYBLE_IPS_CLIENT
2156:Generated_Source\PSoC4/CyBle_eventHandler.c ****             if((cyBle_eventHandlerFlag & CYBLE_CALLBACK) != 0u)
2157:Generated_Source\PSoC4/CyBle_eventHandler.c ****             {
2158:Generated_Source\PSoC4/CyBle_eventHandler.c ****                 CyBle_IpscExecuteWriteResponseEventHandler((CYBLE_GATTC_EXEC_WRITE_RSP_T *)eventPar
2159:Generated_Source\PSoC4/CyBle_eventHandler.c ****             }
2160:Generated_Source\PSoC4/CyBle_eventHandler.c ****         #endif /* CYBLE_IPS_CLIENT */
2161:Generated_Source\PSoC4/CyBle_eventHandler.c ****         #ifdef CYBLE_UDS_CLIENT
2162:Generated_Source\PSoC4/CyBle_eventHandler.c ****             if((cyBle_eventHandlerFlag & CYBLE_CALLBACK) != 0u)
2163:Generated_Source\PSoC4/CyBle_eventHandler.c ****             {
2164:Generated_Source\PSoC4/CyBle_eventHandler.c ****                 CyBle_UdscExecuteWriteResponseEventHandler((CYBLE_GATTC_EXEC_WRITE_RSP_T *)eventPar
2165:Generated_Source\PSoC4/CyBle_eventHandler.c ****             }
2166:Generated_Source\PSoC4/CyBle_eventHandler.c ****         #endif /* CYBLE_UDS_CLIENT */
2167:Generated_Source\PSoC4/CyBle_eventHandler.c ****             break;
2168:Generated_Source\PSoC4/CyBle_eventHandler.c ****             
2169:Generated_Source\PSoC4/CyBle_eventHandler.c ****     #endif /* CYBLE_GATT_ROLE_CLIENT */
2170:Generated_Source\PSoC4/CyBle_eventHandler.c **** 
2171:Generated_Source\PSoC4/CyBle_eventHandler.c ****     #if((CYBLE_GAP_ROLE_PERIPHERAL || CYBLE_GAP_ROLE_CENTRAL) && (CYBLE_BONDING_REQUIREMENT == CYBL
2172:Generated_Source\PSoC4/CyBle_eventHandler.c **** 
2173:Generated_Source\PSoC4/CyBle_eventHandler.c ****         case CYBLE_EVT_PENDING_FLASH_WRITE:
2174:Generated_Source\PSoC4/CyBle_eventHandler.c ****             cyBle_pendingFlashWrite |= CYBLE_PENDING_STACK_FLASH_WRITE_BIT;
2175:Generated_Source\PSoC4/CyBle_eventHandler.c ****             break;
2176:Generated_Source\PSoC4/CyBle_eventHandler.c ****         
2177:Generated_Source\PSoC4/CyBle_eventHandler.c ****     #endif  /* (CYBLE_BONDING_REQUIREMENT == CYBLE_BONDING_YES) */
2178:Generated_Source\PSoC4/CyBle_eventHandler.c ****     
2179:Generated_Source\PSoC4/CyBle_eventHandler.c ****         default:
2180:Generated_Source\PSoC4/CyBle_eventHandler.c ****             break;
2181:Generated_Source\PSoC4/CyBle_eventHandler.c ****     }
2182:Generated_Source\PSoC4/CyBle_eventHandler.c **** 
2183:Generated_Source\PSoC4/CyBle_eventHandler.c ****     if(0u != (cyBle_eventHandlerFlag & (CYBLE_CALLBACK | CYBLE_ENABLE_ALL_EVENTS))) 
 650              		.loc 1 2183 0
 651 01da 084B     		ldr	r3, .L41
ARM GAS  C:\Users\Tymek\AppData\Local\Temp\ccJhKwfb.s 			page 51


 652 01dc 1A78     		ldrb	r2, [r3]
 653 01de 1123     		movs	r3, #17
 654 01e0 1A42     		tst	r2, r3
 655 01e2 09D0     		beq	.L16
2184:Generated_Source\PSoC4/CyBle_eventHandler.c ****     {
2185:Generated_Source\PSoC4/CyBle_eventHandler.c ****         cyBle_eventHandlerFlag &= (uint8)~CYBLE_CALLBACK;
 656              		.loc 1 2185 0
 657 01e4 054A     		ldr	r2, .L41
 658 01e6 1378     		ldrb	r3, [r2]
 659 01e8 0121     		movs	r1, #1
 660 01ea 8B43     		bics	r3, r1
 661 01ec 1370     		strb	r3, [r2]
2186:Generated_Source\PSoC4/CyBle_eventHandler.c ****         CyBle_ApplCallback((uint32)eventCode, eventParam);
 662              		.loc 1 2186 0
 663 01ee 0E4B     		ldr	r3, .L41+44
 664 01f0 1B68     		ldr	r3, [r3]
 665 01f2 2100     		movs	r1, r4
 666 01f4 2800     		movs	r0, r5
 667 01f6 9847     		blx	r3
 668              	.LVL61:
 669              	.L16:
2187:Generated_Source\PSoC4/CyBle_eventHandler.c ****     }
2188:Generated_Source\PSoC4/CyBle_eventHandler.c **** }
 670              		.loc 1 2188 0
 671 01f8 03B0     		add	sp, sp, #12
 672              		@ sp needed
 673              	.LVL62:
 674 01fa F0BD     		pop	{r4, r5, r6, r7, pc}
 675              	.L42:
 676              		.align	2
 677              	.L41:
 678 01fc 00000000 		.word	cyBle_eventHandlerFlag
 679 0200 00000000 		.word	.L19
 680 0204 00000000 		.word	cyBle_sflashDeviceAddress
 681 0208 00000000 		.word	cyBle_deviceAddress
 682 020c 00000000 		.word	cyBle_state
 683 0210 00000000 		.word	cyBle_busyStatus
 684 0214 00000000 		.word	.LANCHOR0
 685 0218 00000000 		.word	cyBle_stackMemoryRam
 686 021c 44100000 		.word	4164
 687 0220 00000000 		.word	.LANCHOR1
 688 0224 00000000 		.word	cyBle_connHandle
 689 0228 00000000 		.word	CyBle_ApplCallback
 690 022c 00000000 		.word	cyBle_advertisingIntervalType
 691              		.cfi_endproc
 692              	.LFE10:
 693              		.size	CyBle_EventHandler, .-CyBle_EventHandler
 694              		.global	cyBle_authInfo
 695              		.comm	cyBle_advertisingIntervalType,1,1
 696              		.global	cyBle_gaps
 697              		.comm	cyBle_busyStatus,1,1
 698              		.comm	cyBle_eventHandlerFlag,1,1
 699              		.comm	cyBle_connHandle,2,4
 700              		.section	.rodata
 701              		.align	2
 702              		.type	cyBle_gaps, %object
 703              		.size	cyBle_gaps, 12
ARM GAS  C:\Users\Tymek\AppData\Local\Temp\ccJhKwfb.s 			page 52


 704              	cyBle_gaps:
 705 0144 0100     		.short	1
 706 0146 0300     		.short	3
 707 0148 0500     		.short	5
 708 014a 0700     		.short	7
 709 014c 0000     		.short	0
 710 014e 0000     		.short	0
 711              		.data
 712              		.align	2
 713              		.set	.LANCHOR1,. + 0
 714              		.type	cyBle_authInfo, %object
 715              		.size	cyBle_authInfo, 5
 716              	cyBle_authInfo:
 717 0000 11       		.byte	17
 718 0001 00       		.byte	0
 719 0002 10       		.byte	16
 720 0003 00       		.byte	0
 721 0004 00       		.byte	0
 722              		.bss
 723              		.align	2
 724              		.set	.LANCHOR0,. + 0
 725              		.type	gPrepWriteReqMem.6683, %object
 726              		.size	gPrepWriteReqMem.6683, 8
 727              	gPrepWriteReqMem.6683:
 728 0000 00000000 		.space	8
 728      00000000 
 729              		.text
 730              	.Letext0:
 731              		.file 2 "Generated_Source\\PSoC4\\cytypes.h"
 732              		.file 3 "Generated_Source\\PSoC4\\CyBle_Stack.h"
 733              		.file 4 "Generated_Source\\PSoC4\\CyBle_StackHostMain.h"
 734              		.file 5 "Generated_Source\\PSoC4\\CyBle_StackGap.h"
 735              		.file 6 "Generated_Source\\PSoC4\\CyBle_StackGatt.h"
 736              		.file 7 "Generated_Source\\PSoC4\\CyBle_StackGattServer.h"
 737              		.file 8 "Generated_Source\\PSoC4\\CyBle.h"
 738              		.file 9 "Generated_Source\\PSoC4\\CyBle_eventHandler.h"
 739              		.file 10 "Generated_Source\\PSoC4\\CyBle_gatt.h"
 740              		.file 11 "Generated_Source\\PSoC4\\CyBle_bts.h"
 741              		.section	.debug_info,"",%progbits
 742              	.Ldebug_info0:
 743 0000 1C100000 		.4byte	0x101c
 744 0004 0400     		.2byte	0x4
 745 0006 00000000 		.4byte	.Ldebug_abbrev0
 746 000a 04       		.byte	0x4
 747 000b 01       		.uleb128 0x1
 748 000c 2A030000 		.4byte	.LASF346
 749 0010 0C       		.byte	0xc
 750 0011 BD130000 		.4byte	.LASF347
 751 0015 09120000 		.4byte	.LASF348
 752 0019 00000000 		.4byte	.Ldebug_ranges0+0
 753 001d 00000000 		.4byte	0
 754 0021 00000000 		.4byte	.Ldebug_line0
 755 0025 02       		.uleb128 0x2
 756 0026 01       		.byte	0x1
 757 0027 06       		.byte	0x6
 758 0028 04090000 		.4byte	.LASF0
 759 002c 02       		.uleb128 0x2
ARM GAS  C:\Users\Tymek\AppData\Local\Temp\ccJhKwfb.s 			page 53


 760 002d 01       		.byte	0x1
 761 002e 08       		.byte	0x8
 762 002f 560A0000 		.4byte	.LASF1
 763 0033 02       		.uleb128 0x2
 764 0034 02       		.byte	0x2
 765 0035 05       		.byte	0x5
 766 0036 801F0000 		.4byte	.LASF2
 767 003a 02       		.uleb128 0x2
 768 003b 02       		.byte	0x2
 769 003c 07       		.byte	0x7
 770 003d FA230000 		.4byte	.LASF3
 771 0041 02       		.uleb128 0x2
 772 0042 04       		.byte	0x4
 773 0043 05       		.byte	0x5
 774 0044 EB060000 		.4byte	.LASF4
 775 0048 02       		.uleb128 0x2
 776 0049 04       		.byte	0x4
 777 004a 07       		.byte	0x7
 778 004b D8100000 		.4byte	.LASF5
 779 004f 02       		.uleb128 0x2
 780 0050 08       		.byte	0x8
 781 0051 05       		.byte	0x5
 782 0052 95140000 		.4byte	.LASF6
 783 0056 02       		.uleb128 0x2
 784 0057 08       		.byte	0x8
 785 0058 07       		.byte	0x7
 786 0059 031C0000 		.4byte	.LASF7
 787 005d 03       		.uleb128 0x3
 788 005e 04       		.byte	0x4
 789 005f 05       		.byte	0x5
 790 0060 696E7400 		.ascii	"int\000"
 791 0064 02       		.uleb128 0x2
 792 0065 04       		.byte	0x4
 793 0066 07       		.byte	0x7
 794 0067 32170000 		.4byte	.LASF8
 795 006b 04       		.uleb128 0x4
 796 006c 321F0000 		.4byte	.LASF9
 797 0070 02       		.byte	0x2
 798 0071 D201     		.2byte	0x1d2
 799 0073 2C000000 		.4byte	0x2c
 800 0077 04       		.uleb128 0x4
 801 0078 9C250000 		.4byte	.LASF10
 802 007c 02       		.byte	0x2
 803 007d D301     		.2byte	0x1d3
 804 007f 3A000000 		.4byte	0x3a
 805 0083 04       		.uleb128 0x4
 806 0084 B4010000 		.4byte	.LASF11
 807 0088 02       		.byte	0x2
 808 0089 D401     		.2byte	0x1d4
 809 008b 48000000 		.4byte	0x48
 810 008f 02       		.uleb128 0x2
 811 0090 04       		.byte	0x4
 812 0091 04       		.byte	0x4
 813 0092 7C160000 		.4byte	.LASF12
 814 0096 02       		.uleb128 0x2
 815 0097 08       		.byte	0x8
 816 0098 04       		.byte	0x4
ARM GAS  C:\Users\Tymek\AppData\Local\Temp\ccJhKwfb.s 			page 54


 817 0099 4F150000 		.4byte	.LASF13
 818 009d 02       		.uleb128 0x2
 819 009e 01       		.byte	0x1
 820 009f 08       		.byte	0x8
 821 00a0 A20B0000 		.4byte	.LASF14
 822 00a4 05       		.uleb128 0x5
 823 00a5 6B000000 		.4byte	0x6b
 824 00a9 02       		.uleb128 0x2
 825 00aa 08       		.byte	0x8
 826 00ab 04       		.byte	0x4
 827 00ac 671A0000 		.4byte	.LASF15
 828 00b0 02       		.uleb128 0x2
 829 00b1 04       		.byte	0x4
 830 00b2 07       		.byte	0x7
 831 00b3 45000000 		.4byte	.LASF16
 832 00b7 06       		.uleb128 0x6
 833 00b8 04       		.byte	0x4
 834 00b9 07       		.uleb128 0x7
 835 00ba 04       		.byte	0x4
 836 00bb BF000000 		.4byte	0xbf
 837 00bf 08       		.uleb128 0x8
 838 00c0 CF000000 		.4byte	0xcf
 839 00c4 09       		.uleb128 0x9
 840 00c5 83000000 		.4byte	0x83
 841 00c9 09       		.uleb128 0x9
 842 00ca B7000000 		.4byte	0xb7
 843 00ce 00       		.byte	0
 844 00cf 0A       		.uleb128 0xa
 845 00d0 01       		.byte	0x1
 846 00d1 2C000000 		.4byte	0x2c
 847 00d5 03       		.byte	0x3
 848 00d6 3501     		.2byte	0x135
 849 00d8 8D020000 		.4byte	0x28d
 850 00dc 0B       		.uleb128 0xb
 851 00dd 2A0C0000 		.4byte	.LASF17
 852 00e1 00       		.byte	0
 853 00e2 0B       		.uleb128 0xb
 854 00e3 6E070000 		.4byte	.LASF18
 855 00e7 01       		.byte	0x1
 856 00e8 0B       		.uleb128 0xb
 857 00e9 381C0000 		.4byte	.LASF19
 858 00ed 02       		.byte	0x2
 859 00ee 0B       		.uleb128 0xb
 860 00ef 45090000 		.4byte	.LASF20
 861 00f3 03       		.byte	0x3
 862 00f4 0B       		.uleb128 0xb
 863 00f5 95240000 		.4byte	.LASF21
 864 00f9 04       		.byte	0x4
 865 00fa 0B       		.uleb128 0xb
 866 00fb A8220000 		.4byte	.LASF22
 867 00ff 05       		.byte	0x5
 868 0100 0B       		.uleb128 0xb
 869 0101 B01A0000 		.4byte	.LASF23
 870 0105 06       		.byte	0x6
 871 0106 0B       		.uleb128 0xb
 872 0107 91200000 		.4byte	.LASF24
 873 010b 20       		.byte	0x20
ARM GAS  C:\Users\Tymek\AppData\Local\Temp\ccJhKwfb.s 			page 55


 874 010c 0B       		.uleb128 0xb
 875 010d CE040000 		.4byte	.LASF25
 876 0111 21       		.byte	0x21
 877 0112 0B       		.uleb128 0xb
 878 0113 8B130000 		.4byte	.LASF26
 879 0117 22       		.byte	0x22
 880 0118 0B       		.uleb128 0xb
 881 0119 4D190000 		.4byte	.LASF27
 882 011d 23       		.byte	0x23
 883 011e 0B       		.uleb128 0xb
 884 011f 05100000 		.4byte	.LASF28
 885 0123 24       		.byte	0x24
 886 0124 0B       		.uleb128 0xb
 887 0125 21100000 		.4byte	.LASF29
 888 0129 25       		.byte	0x25
 889 012a 0B       		.uleb128 0xb
 890 012b 0A1F0000 		.4byte	.LASF30
 891 012f 26       		.byte	0x26
 892 0130 0B       		.uleb128 0xb
 893 0131 44010000 		.4byte	.LASF31
 894 0135 27       		.byte	0x27
 895 0136 0B       		.uleb128 0xb
 896 0137 59250000 		.4byte	.LASF32
 897 013b 28       		.byte	0x28
 898 013c 0B       		.uleb128 0xb
 899 013d F81A0000 		.4byte	.LASF33
 900 0141 29       		.byte	0x29
 901 0142 0B       		.uleb128 0xb
 902 0143 C6120000 		.4byte	.LASF34
 903 0147 2A       		.byte	0x2a
 904 0148 0B       		.uleb128 0xb
 905 0149 C2180000 		.4byte	.LASF35
 906 014d 2B       		.byte	0x2b
 907 014e 0B       		.uleb128 0xb
 908 014f 1D230000 		.4byte	.LASF36
 909 0153 2C       		.byte	0x2c
 910 0154 0B       		.uleb128 0xb
 911 0155 8A000000 		.4byte	.LASF37
 912 0159 2D       		.byte	0x2d
 913 015a 0B       		.uleb128 0xb
 914 015b 471F0000 		.4byte	.LASF38
 915 015f 2E       		.byte	0x2e
 916 0160 0B       		.uleb128 0xb
 917 0161 97050000 		.4byte	.LASF39
 918 0165 2F       		.byte	0x2f
 919 0166 0B       		.uleb128 0xb
 920 0167 810B0000 		.4byte	.LASF40
 921 016b 30       		.byte	0x30
 922 016c 0B       		.uleb128 0xb
 923 016d 16160000 		.4byte	.LASF41
 924 0171 31       		.byte	0x31
 925 0172 0B       		.uleb128 0xb
 926 0173 7A0C0000 		.4byte	.LASF42
 927 0177 32       		.byte	0x32
 928 0178 0B       		.uleb128 0xb
 929 0179 9E0A0000 		.4byte	.LASF43
 930 017d 33       		.byte	0x33
ARM GAS  C:\Users\Tymek\AppData\Local\Temp\ccJhKwfb.s 			page 56


 931 017e 0B       		.uleb128 0xb
 932 017f C50A0000 		.4byte	.LASF44
 933 0183 34       		.byte	0x34
 934 0184 0B       		.uleb128 0xb
 935 0185 39210000 		.4byte	.LASF45
 936 0189 35       		.byte	0x35
 937 018a 0B       		.uleb128 0xb
 938 018b 36050000 		.4byte	.LASF46
 939 018f 36       		.byte	0x36
 940 0190 0B       		.uleb128 0xb
 941 0191 841B0000 		.4byte	.LASF47
 942 0195 37       		.byte	0x37
 943 0196 0B       		.uleb128 0xb
 944 0197 0B200000 		.4byte	.LASF48
 945 019b 40       		.byte	0x40
 946 019c 0B       		.uleb128 0xb
 947 019d 84010000 		.4byte	.LASF49
 948 01a1 41       		.byte	0x41
 949 01a2 0B       		.uleb128 0xb
 950 01a3 AA240000 		.4byte	.LASF50
 951 01a7 42       		.byte	0x42
 952 01a8 0B       		.uleb128 0xb
 953 01a9 211B0000 		.4byte	.LASF51
 954 01ad 43       		.byte	0x43
 955 01ae 0B       		.uleb128 0xb
 956 01af 640A0000 		.4byte	.LASF52
 957 01b3 44       		.byte	0x44
 958 01b4 0B       		.uleb128 0xb
 959 01b5 C6090000 		.4byte	.LASF53
 960 01b9 45       		.byte	0x45
 961 01ba 0B       		.uleb128 0xb
 962 01bb 361E0000 		.4byte	.LASF54
 963 01bf 46       		.byte	0x46
 964 01c0 0B       		.uleb128 0xb
 965 01c1 181E0000 		.4byte	.LASF55
 966 01c5 47       		.byte	0x47
 967 01c6 0B       		.uleb128 0xb
 968 01c7 5A0B0000 		.4byte	.LASF56
 969 01cb 48       		.byte	0x48
 970 01cc 0B       		.uleb128 0xb
 971 01cd C2190000 		.4byte	.LASF57
 972 01d1 49       		.byte	0x49
 973 01d2 0B       		.uleb128 0xb
 974 01d3 D10C0000 		.4byte	.LASF58
 975 01d7 4A       		.byte	0x4a
 976 01d8 0B       		.uleb128 0xb
 977 01d9 D70B0000 		.4byte	.LASF59
 978 01dd 4B       		.byte	0x4b
 979 01de 0B       		.uleb128 0xb
 980 01df 1B190000 		.4byte	.LASF60
 981 01e3 4C       		.byte	0x4c
 982 01e4 0B       		.uleb128 0xb
 983 01e5 D01E0000 		.4byte	.LASF61
 984 01e9 4D       		.byte	0x4d
 985 01ea 0B       		.uleb128 0xb
 986 01eb AA060000 		.4byte	.LASF62
 987 01ef 4E       		.byte	0x4e
ARM GAS  C:\Users\Tymek\AppData\Local\Temp\ccJhKwfb.s 			page 57


 988 01f0 0B       		.uleb128 0xb
 989 01f1 3F170000 		.4byte	.LASF63
 990 01f5 4F       		.byte	0x4f
 991 01f6 0B       		.uleb128 0xb
 992 01f7 72200000 		.4byte	.LASF64
 993 01fb 50       		.byte	0x50
 994 01fc 0B       		.uleb128 0xb
 995 01fd 140D0000 		.4byte	.LASF65
 996 0201 51       		.byte	0x51
 997 0202 0B       		.uleb128 0xb
 998 0203 AD040000 		.4byte	.LASF66
 999 0207 52       		.byte	0x52
 1000 0208 0B       		.uleb128 0xb
 1001 0209 66220000 		.4byte	.LASF67
 1002 020d 53       		.byte	0x53
 1003 020e 0B       		.uleb128 0xb
 1004 020f 7B250000 		.4byte	.LASF68
 1005 0213 54       		.byte	0x54
 1006 0214 0B       		.uleb128 0xb
 1007 0215 D0020000 		.4byte	.LASF69
 1008 0219 55       		.byte	0x55
 1009 021a 0B       		.uleb128 0xb
 1010 021b A40D0000 		.4byte	.LASF70
 1011 021f 56       		.byte	0x56
 1012 0220 0B       		.uleb128 0xb
 1013 0221 A7160000 		.4byte	.LASF71
 1014 0225 57       		.byte	0x57
 1015 0226 0B       		.uleb128 0xb
 1016 0227 36250000 		.4byte	.LASF72
 1017 022b 58       		.byte	0x58
 1018 022c 0B       		.uleb128 0xb
 1019 022d 8B230000 		.4byte	.LASF73
 1020 0231 70       		.byte	0x70
 1021 0232 0B       		.uleb128 0xb
 1022 0233 780F0000 		.4byte	.LASF74
 1023 0237 71       		.byte	0x71
 1024 0238 0B       		.uleb128 0xb
 1025 0239 70080000 		.4byte	.LASF75
 1026 023d 72       		.byte	0x72
 1027 023e 0B       		.uleb128 0xb
 1028 023f 54200000 		.4byte	.LASF76
 1029 0243 73       		.byte	0x73
 1030 0244 0B       		.uleb128 0xb
 1031 0245 151A0000 		.4byte	.LASF77
 1032 0249 74       		.byte	0x74
 1033 024a 0B       		.uleb128 0xb
 1034 024b 6A130000 		.4byte	.LASF78
 1035 024f 75       		.byte	0x75
 1036 0250 0B       		.uleb128 0xb
 1037 0251 390B0000 		.4byte	.LASF79
 1038 0255 76       		.byte	0x76
 1039 0256 0B       		.uleb128 0xb
 1040 0257 AB1C0000 		.4byte	.LASF80
 1041 025b 77       		.byte	0x77
 1042 025c 0B       		.uleb128 0xb
 1043 025d F4020000 		.4byte	.LASF81
 1044 0261 78       		.byte	0x78
ARM GAS  C:\Users\Tymek\AppData\Local\Temp\ccJhKwfb.s 			page 58


 1045 0262 0B       		.uleb128 0xb
 1046 0263 C8060000 		.4byte	.LASF82
 1047 0267 79       		.byte	0x79
 1048 0268 0B       		.uleb128 0xb
 1049 0269 E8240000 		.4byte	.LASF83
 1050 026d 7A       		.byte	0x7a
 1051 026e 0B       		.uleb128 0xb
 1052 026f 78150000 		.4byte	.LASF84
 1053 0273 FA       		.byte	0xfa
 1054 0274 0B       		.uleb128 0xb
 1055 0275 34220000 		.4byte	.LASF85
 1056 0279 FB       		.byte	0xfb
 1057 027a 0B       		.uleb128 0xb
 1058 027b C50F0000 		.4byte	.LASF86
 1059 027f FC       		.byte	0xfc
 1060 0280 0B       		.uleb128 0xb
 1061 0281 4F1A0000 		.4byte	.LASF87
 1062 0285 FD       		.byte	0xfd
 1063 0286 0B       		.uleb128 0xb
 1064 0287 B4180000 		.4byte	.LASF88
 1065 028b FF       		.byte	0xff
 1066 028c 00       		.byte	0
 1067 028d 0A       		.uleb128 0xa
 1068 028e 02       		.byte	0x2
 1069 028f 3A000000 		.4byte	0x3a
 1070 0293 03       		.byte	0x3
 1071 0294 EA03     		.2byte	0x3ea
 1072 0296 6C030000 		.4byte	0x36c
 1073 029a 0B       		.uleb128 0xb
 1074 029b 71090000 		.4byte	.LASF89
 1075 029f 00       		.byte	0
 1076 02a0 0B       		.uleb128 0xb
 1077 02a1 350E0000 		.4byte	.LASF90
 1078 02a5 01       		.byte	0x1
 1079 02a6 0B       		.uleb128 0xb
 1080 02a7 77240000 		.4byte	.LASF91
 1081 02ab 02       		.byte	0x2
 1082 02ac 0B       		.uleb128 0xb
 1083 02ad 950E0000 		.4byte	.LASF92
 1084 02b1 03       		.byte	0x3
 1085 02b2 0B       		.uleb128 0xb
 1086 02b3 79100000 		.4byte	.LASF93
 1087 02b7 04       		.byte	0x4
 1088 02b8 0B       		.uleb128 0xb
 1089 02b9 31150000 		.4byte	.LASF94
 1090 02bd 05       		.byte	0x5
 1091 02be 0B       		.uleb128 0xb
 1092 02bf CE210000 		.4byte	.LASF95
 1093 02c3 06       		.byte	0x6
 1094 02c4 0B       		.uleb128 0xb
 1095 02c5 B40C0000 		.4byte	.LASF96
 1096 02c9 07       		.byte	0x7
 1097 02ca 0B       		.uleb128 0xb
 1098 02cb 5E160000 		.4byte	.LASF97
 1099 02cf 08       		.byte	0x8
 1100 02d0 0B       		.uleb128 0xb
 1101 02d1 F1200000 		.4byte	.LASF98
ARM GAS  C:\Users\Tymek\AppData\Local\Temp\ccJhKwfb.s 			page 59


 1102 02d5 09       		.byte	0x9
 1103 02d6 0B       		.uleb128 0xb
 1104 02d7 A3250000 		.4byte	.LASF99
 1105 02db 0A       		.byte	0xa
 1106 02dc 0B       		.uleb128 0xb
 1107 02dd F9040000 		.4byte	.LASF100
 1108 02e1 0B       		.byte	0xb
 1109 02e2 0B       		.uleb128 0xb
 1110 02e3 91220000 		.4byte	.LASF101
 1111 02e7 0C       		.byte	0xc
 1112 02e8 0B       		.uleb128 0xb
 1113 02e9 21180000 		.4byte	.LASF102
 1114 02ed 0D       		.byte	0xd
 1115 02ee 0B       		.uleb128 0xb
 1116 02ef E0110000 		.4byte	.LASF103
 1117 02f3 0E       		.byte	0xe
 1118 02f4 0B       		.uleb128 0xb
 1119 02f5 0C150000 		.4byte	.LASF104
 1120 02f9 0F       		.byte	0xf
 1121 02fa 0B       		.uleb128 0xb
 1122 02fb 86020000 		.4byte	.LASF105
 1123 02ff 10       		.byte	0x10
 1124 0300 0B       		.uleb128 0xb
 1125 0301 3A160000 		.4byte	.LASF106
 1126 0305 11       		.byte	0x11
 1127 0306 0B       		.uleb128 0xb
 1128 0307 81070000 		.4byte	.LASF107
 1129 030b 12       		.byte	0x12
 1130 030c 0B       		.uleb128 0xb
 1131 030d DC080000 		.4byte	.LASF108
 1132 0311 13       		.byte	0x13
 1133 0312 0B       		.uleb128 0xb
 1134 0313 56150000 		.4byte	.LASF109
 1135 0317 27       		.byte	0x27
 1136 0318 0B       		.uleb128 0xb
 1137 0319 82160000 		.4byte	.LASF110
 1138 031d 28       		.byte	0x28
 1139 031e 0B       		.uleb128 0xb
 1140 031f B4020000 		.4byte	.LASF111
 1141 0323 29       		.byte	0x29
 1142 0324 0B       		.uleb128 0xb
 1143 0325 921F0000 		.4byte	.LASF112
 1144 0329 2A       		.byte	0x2a
 1145 032a 0B       		.uleb128 0xb
 1146 032b 20110000 		.4byte	.LASF113
 1147 032f 2B       		.byte	0x2b
 1148 0330 0B       		.uleb128 0xb
 1149 0331 0C1D0000 		.4byte	.LASF114
 1150 0335 2C       		.byte	0x2c
 1151 0336 0B       		.uleb128 0xb
 1152 0337 841E0000 		.4byte	.LASF115
 1153 033b 2D       		.byte	0x2d
 1154 033c 0B       		.uleb128 0xb
 1155 033d 190E0000 		.4byte	.LASF116
 1156 0341 FE       		.byte	0xfe
 1157 0342 0B       		.uleb128 0xb
 1158 0343 680F0000 		.4byte	.LASF117
ARM GAS  C:\Users\Tymek\AppData\Local\Temp\ccJhKwfb.s 			page 60


 1159 0347 FF       		.byte	0xff
 1160 0348 0C       		.uleb128 0xc
 1161 0349 8C190000 		.4byte	.LASF118
 1162 034d 0001     		.2byte	0x100
 1163 034f 0C       		.uleb128 0xc
 1164 0350 73190000 		.4byte	.LASF119
 1165 0354 0101     		.2byte	0x101
 1166 0356 0C       		.uleb128 0xc
 1167 0357 24080000 		.4byte	.LASF120
 1168 035b 0201     		.2byte	0x102
 1169 035d 0C       		.uleb128 0xc
 1170 035e 651C0000 		.4byte	.LASF121
 1171 0362 0301     		.2byte	0x103
 1172 0364 0C       		.uleb128 0xc
 1173 0365 45100000 		.4byte	.LASF122
 1174 0369 0401     		.2byte	0x104
 1175 036b 00       		.byte	0
 1176 036c 04       		.uleb128 0x4
 1177 036d 53220000 		.4byte	.LASF123
 1178 0371 03       		.byte	0x3
 1179 0372 5C04     		.2byte	0x45c
 1180 0374 8D020000 		.4byte	0x28d
 1181 0378 0A       		.uleb128 0xa
 1182 0379 01       		.byte	0x1
 1183 037a 2C000000 		.4byte	0x2c
 1184 037e 03       		.byte	0x3
 1185 037f 9504     		.2byte	0x495
 1186 0381 BC030000 		.4byte	0x3bc
 1187 0385 0B       		.uleb128 0xb
 1188 0386 10090000 		.4byte	.LASF124
 1189 038a 01       		.byte	0x1
 1190 038b 0B       		.uleb128 0xb
 1191 038c 75060000 		.4byte	.LASF125
 1192 0390 02       		.byte	0x2
 1193 0391 0B       		.uleb128 0xb
 1194 0392 951A0000 		.4byte	.LASF126
 1195 0396 03       		.byte	0x3
 1196 0397 0B       		.uleb128 0xb
 1197 0398 57050000 		.4byte	.LASF127
 1198 039c 04       		.byte	0x4
 1199 039d 0B       		.uleb128 0xb
 1200 039e A70B0000 		.4byte	.LASF128
 1201 03a2 05       		.byte	0x5
 1202 03a3 0B       		.uleb128 0xb
 1203 03a4 05110000 		.4byte	.LASF129
 1204 03a8 06       		.byte	0x6
 1205 03a9 0B       		.uleb128 0xb
 1206 03aa E8210000 		.4byte	.LASF130
 1207 03ae 07       		.byte	0x7
 1208 03af 0B       		.uleb128 0xb
 1209 03b0 C1100000 		.4byte	.LASF131
 1210 03b4 08       		.byte	0x8
 1211 03b5 0B       		.uleb128 0xb
 1212 03b6 BF150000 		.4byte	.LASF132
 1213 03ba 09       		.byte	0x9
 1214 03bb 00       		.byte	0
 1215 03bc 04       		.uleb128 0x4
ARM GAS  C:\Users\Tymek\AppData\Local\Temp\ccJhKwfb.s 			page 61


 1216 03bd 11140000 		.4byte	.LASF133
 1217 03c1 03       		.byte	0x3
 1218 03c2 AC04     		.2byte	0x4ac
 1219 03c4 78030000 		.4byte	0x378
 1220 03c8 0A       		.uleb128 0xa
 1221 03c9 01       		.byte	0x1
 1222 03ca 2C000000 		.4byte	0x2c
 1223 03ce 03       		.byte	0x3
 1224 03cf B004     		.2byte	0x4b0
 1225 03d1 E8030000 		.4byte	0x3e8
 1226 03d5 0B       		.uleb128 0xb
 1227 03d6 1F220000 		.4byte	.LASF134
 1228 03da 00       		.byte	0
 1229 03db 0B       		.uleb128 0xb
 1230 03dc B6170000 		.4byte	.LASF135
 1231 03e0 01       		.byte	0x1
 1232 03e1 0B       		.uleb128 0xb
 1233 03e2 76230000 		.4byte	.LASF136
 1234 03e6 02       		.byte	0x2
 1235 03e7 00       		.byte	0
 1236 03e8 04       		.uleb128 0x4
 1237 03e9 80090000 		.4byte	.LASF137
 1238 03ed 03       		.byte	0x3
 1239 03ee B704     		.2byte	0x4b7
 1240 03f0 C8030000 		.4byte	0x3c8
 1241 03f4 0D       		.uleb128 0xd
 1242 03f5 02       		.byte	0x2
 1243 03f6 03       		.byte	0x3
 1244 03f7 BA04     		.2byte	0x4ba
 1245 03f9 18040000 		.4byte	0x418
 1246 03fd 0E       		.uleb128 0xe
 1247 03fe D0010000 		.4byte	.LASF138
 1248 0402 03       		.byte	0x3
 1249 0403 BD04     		.2byte	0x4bd
 1250 0405 BC030000 		.4byte	0x3bc
 1251 0409 00       		.byte	0
 1252 040a 0E       		.uleb128 0xe
 1253 040b 66080000 		.4byte	.LASF139
 1254 040f 03       		.byte	0x3
 1255 0410 BF04     		.2byte	0x4bf
 1256 0412 E8030000 		.4byte	0x3e8
 1257 0416 01       		.byte	0x1
 1258 0417 00       		.byte	0
 1259 0418 04       		.uleb128 0x4
 1260 0419 5E230000 		.4byte	.LASF140
 1261 041d 03       		.byte	0x3
 1262 041e C004     		.2byte	0x4c0
 1263 0420 F4030000 		.4byte	0x3f4
 1264 0424 0A       		.uleb128 0xa
 1265 0425 01       		.byte	0x1
 1266 0426 2C000000 		.4byte	0x2c
 1267 042a 03       		.byte	0x3
 1268 042b EA04     		.2byte	0x4ea
 1269 042d 3E040000 		.4byte	0x43e
 1270 0431 0B       		.uleb128 0xb
 1271 0432 B91B0000 		.4byte	.LASF141
 1272 0436 00       		.byte	0
ARM GAS  C:\Users\Tymek\AppData\Local\Temp\ccJhKwfb.s 			page 62


 1273 0437 0B       		.uleb128 0xb
 1274 0438 53110000 		.4byte	.LASF142
 1275 043c 01       		.byte	0x1
 1276 043d 00       		.byte	0
 1277 043e 04       		.uleb128 0x4
 1278 043f B1230000 		.4byte	.LASF143
 1279 0443 03       		.byte	0x3
 1280 0444 F104     		.2byte	0x4f1
 1281 0446 24040000 		.4byte	0x424
 1282 044a 0D       		.uleb128 0xd
 1283 044b 08       		.byte	0x8
 1284 044c 03       		.byte	0x3
 1285 044d F404     		.2byte	0x4f4
 1286 044f 7B040000 		.4byte	0x47b
 1287 0453 0E       		.uleb128 0xe
 1288 0454 08010000 		.4byte	.LASF144
 1289 0458 03       		.byte	0x3
 1290 0459 F704     		.2byte	0x4f7
 1291 045b 3E040000 		.4byte	0x43e
 1292 045f 00       		.byte	0
 1293 0460 0E       		.uleb128 0xe
 1294 0461 3B100000 		.4byte	.LASF145
 1295 0465 03       		.byte	0x3
 1296 0466 FC04     		.2byte	0x4fc
 1297 0468 6B000000 		.4byte	0x6b
 1298 046c 01       		.byte	0x1
 1299 046d 0E       		.uleb128 0xe
 1300 046e 2C0B0000 		.4byte	.LASF146
 1301 0472 03       		.byte	0x3
 1302 0473 0405     		.2byte	0x504
 1303 0475 B7000000 		.4byte	0xb7
 1304 0479 04       		.byte	0x4
 1305 047a 00       		.byte	0
 1306 047b 04       		.uleb128 0x4
 1307 047c C4140000 		.4byte	.LASF147
 1308 0480 03       		.byte	0x3
 1309 0481 0605     		.2byte	0x506
 1310 0483 4A040000 		.4byte	0x44a
 1311 0487 0D       		.uleb128 0xd
 1312 0488 07       		.byte	0x7
 1313 0489 03       		.byte	0x3
 1314 048a 2A05     		.2byte	0x52a
 1315 048c AB040000 		.4byte	0x4ab
 1316 0490 0E       		.uleb128 0xe
 1317 0491 76210000 		.4byte	.LASF148
 1318 0495 03       		.byte	0x3
 1319 0496 2D05     		.2byte	0x52d
 1320 0498 AB040000 		.4byte	0x4ab
 1321 049c 00       		.byte	0
 1322 049d 0E       		.uleb128 0xe
 1323 049e DC030000 		.4byte	.LASF149
 1324 04a2 03       		.byte	0x3
 1325 04a3 2F05     		.2byte	0x52f
 1326 04a5 6B000000 		.4byte	0x6b
 1327 04a9 06       		.byte	0x6
 1328 04aa 00       		.byte	0
 1329 04ab 0F       		.uleb128 0xf
ARM GAS  C:\Users\Tymek\AppData\Local\Temp\ccJhKwfb.s 			page 63


 1330 04ac 6B000000 		.4byte	0x6b
 1331 04b0 BB040000 		.4byte	0x4bb
 1332 04b4 10       		.uleb128 0x10
 1333 04b5 B0000000 		.4byte	0xb0
 1334 04b9 05       		.byte	0x5
 1335 04ba 00       		.byte	0
 1336 04bb 04       		.uleb128 0x4
 1337 04bc 631D0000 		.4byte	.LASF150
 1338 04c0 03       		.byte	0x3
 1339 04c1 3005     		.2byte	0x530
 1340 04c3 87040000 		.4byte	0x487
 1341 04c7 07       		.uleb128 0x7
 1342 04c8 04       		.byte	0x4
 1343 04c9 6B000000 		.4byte	0x6b
 1344 04cd 11       		.uleb128 0x11
 1345 04ce 01       		.byte	0x1
 1346 04cf 2C000000 		.4byte	0x2c
 1347 04d3 04       		.byte	0x4
 1348 04d4 2F       		.byte	0x2f
 1349 04d5 F2040000 		.4byte	0x4f2
 1350 04d9 0B       		.uleb128 0xb
 1351 04da 901D0000 		.4byte	.LASF151
 1352 04de 01       		.byte	0x1
 1353 04df 0B       		.uleb128 0xb
 1354 04e0 241D0000 		.4byte	.LASF152
 1355 04e4 02       		.byte	0x2
 1356 04e5 0B       		.uleb128 0xb
 1357 04e6 D6240000 		.4byte	.LASF153
 1358 04ea 03       		.byte	0x3
 1359 04eb 0B       		.uleb128 0xb
 1360 04ec 071E0000 		.4byte	.LASF154
 1361 04f0 04       		.byte	0x4
 1362 04f1 00       		.byte	0
 1363 04f2 12       		.uleb128 0x12
 1364 04f3 E1030000 		.4byte	.LASF155
 1365 04f7 04       		.byte	0x4
 1366 04f8 3C       		.byte	0x3c
 1367 04f9 CD040000 		.4byte	0x4cd
 1368 04fd 0A       		.uleb128 0xa
 1369 04fe 01       		.byte	0x1
 1370 04ff 2C000000 		.4byte	0x2c
 1371 0503 05       		.byte	0x5
 1372 0504 0801     		.2byte	0x108
 1373 0506 29050000 		.4byte	0x529
 1374 050a 0B       		.uleb128 0xb
 1375 050b F4060000 		.4byte	.LASF156
 1376 050f 00       		.byte	0
 1377 0510 0B       		.uleb128 0xb
 1378 0511 0A070000 		.4byte	.LASF157
 1379 0515 01       		.byte	0x1
 1380 0516 0B       		.uleb128 0xb
 1381 0517 20070000 		.4byte	.LASF158
 1382 051b 02       		.byte	0x2
 1383 051c 0B       		.uleb128 0xb
 1384 051d 36070000 		.4byte	.LASF159
 1385 0521 03       		.byte	0x3
 1386 0522 0B       		.uleb128 0xb
ARM GAS  C:\Users\Tymek\AppData\Local\Temp\ccJhKwfb.s 			page 64


 1387 0523 8B0D0000 		.4byte	.LASF160
 1388 0527 0F       		.byte	0xf
 1389 0528 00       		.byte	0
 1390 0529 0A       		.uleb128 0xa
 1391 052a 01       		.byte	0x1
 1392 052b 2C000000 		.4byte	0x2c
 1393 052f 05       		.byte	0x5
 1394 0530 2701     		.2byte	0x127
 1395 0532 55050000 		.4byte	0x555
 1396 0536 0B       		.uleb128 0xb
 1397 0537 19050000 		.4byte	.LASF161
 1398 053b 00       		.byte	0
 1399 053c 0B       		.uleb128 0xb
 1400 053d FF220000 		.4byte	.LASF162
 1401 0541 01       		.byte	0x1
 1402 0542 0B       		.uleb128 0xb
 1403 0543 0C0C0000 		.4byte	.LASF163
 1404 0547 02       		.byte	0x2
 1405 0548 0B       		.uleb128 0xb
 1406 0549 63010000 		.4byte	.LASF164
 1407 054d 03       		.byte	0x3
 1408 054e 0B       		.uleb128 0xb
 1409 054f 25200000 		.4byte	.LASF165
 1410 0553 04       		.byte	0x4
 1411 0554 00       		.byte	0
 1412 0555 0A       		.uleb128 0xa
 1413 0556 01       		.byte	0x1
 1414 0557 2C000000 		.4byte	0x2c
 1415 055b 05       		.byte	0x5
 1416 055c 3D01     		.2byte	0x13d
 1417 055e CF050000 		.4byte	0x5cf
 1418 0562 0B       		.uleb128 0xb
 1419 0563 DE1A0000 		.4byte	.LASF166
 1420 0567 00       		.byte	0
 1421 0568 0B       		.uleb128 0xb
 1422 0569 11060000 		.4byte	.LASF167
 1423 056d 01       		.byte	0x1
 1424 056e 0B       		.uleb128 0xb
 1425 056f 581B0000 		.4byte	.LASF168
 1426 0573 02       		.byte	0x2
 1427 0574 0B       		.uleb128 0xb
 1428 0575 94110000 		.4byte	.LASF169
 1429 0579 03       		.byte	0x3
 1430 057a 0B       		.uleb128 0xb
 1431 057b F7070000 		.4byte	.LASF170
 1432 057f 04       		.byte	0x4
 1433 0580 0B       		.uleb128 0xb
 1434 0581 DC1D0000 		.4byte	.LASF171
 1435 0585 05       		.byte	0x5
 1436 0586 0B       		.uleb128 0xb
 1437 0587 47140000 		.4byte	.LASF172
 1438 058b 06       		.byte	0x6
 1439 058c 0B       		.uleb128 0xb
 1440 058d 69110000 		.4byte	.LASF173
 1441 0591 07       		.byte	0x7
 1442 0592 0B       		.uleb128 0xb
 1443 0593 58040000 		.4byte	.LASF174
ARM GAS  C:\Users\Tymek\AppData\Local\Temp\ccJhKwfb.s 			page 65


 1444 0597 08       		.byte	0x8
 1445 0598 0B       		.uleb128 0xb
 1446 0599 43130000 		.4byte	.LASF175
 1447 059d 09       		.byte	0x9
 1448 059e 0B       		.uleb128 0xb
 1449 059f 040B0000 		.4byte	.LASF176
 1450 05a3 0A       		.byte	0xa
 1451 05a4 0B       		.uleb128 0xb
 1452 05a5 E9130000 		.4byte	.LASF177
 1453 05a9 0B       		.byte	0xb
 1454 05aa 0B       		.uleb128 0xb
 1455 05ab D0220000 		.4byte	.LASF178
 1456 05af 0C       		.byte	0xc
 1457 05b0 0B       		.uleb128 0xb
 1458 05b1 650E0000 		.4byte	.LASF179
 1459 05b5 0D       		.byte	0xd
 1460 05b6 0B       		.uleb128 0xb
 1461 05b7 ED090000 		.4byte	.LASF180
 1462 05bb 0E       		.byte	0xe
 1463 05bc 0B       		.uleb128 0xb
 1464 05bd 10010000 		.4byte	.LASF181
 1465 05c1 0F       		.byte	0xf
 1466 05c2 0B       		.uleb128 0xb
 1467 05c3 2C040000 		.4byte	.LASF182
 1468 05c7 15       		.byte	0x15
 1469 05c8 0B       		.uleb128 0xb
 1470 05c9 9E0F0000 		.4byte	.LASF183
 1471 05cd 18       		.byte	0x18
 1472 05ce 00       		.byte	0
 1473 05cf 04       		.uleb128 0x4
 1474 05d0 FC180000 		.4byte	.LASF184
 1475 05d4 05       		.byte	0x5
 1476 05d5 7D01     		.2byte	0x17d
 1477 05d7 55050000 		.4byte	0x555
 1478 05db 0D       		.uleb128 0xd
 1479 05dc 05       		.byte	0x5
 1480 05dd 05       		.byte	0x5
 1481 05de C601     		.2byte	0x1c6
 1482 05e0 26060000 		.4byte	0x626
 1483 05e4 0E       		.uleb128 0xe
 1484 05e5 DB140000 		.4byte	.LASF185
 1485 05e9 05       		.byte	0x5
 1486 05ea D001     		.2byte	0x1d0
 1487 05ec 6B000000 		.4byte	0x6b
 1488 05f0 00       		.byte	0
 1489 05f1 0E       		.uleb128 0xe
 1490 05f2 0C170000 		.4byte	.LASF186
 1491 05f6 05       		.byte	0x5
 1492 05f7 D601     		.2byte	0x1d6
 1493 05f9 6B000000 		.4byte	0x6b
 1494 05fd 01       		.byte	0x1
 1495 05fe 0E       		.uleb128 0xe
 1496 05ff 4E000000 		.4byte	.LASF187
 1497 0603 05       		.byte	0x5
 1498 0604 DD01     		.2byte	0x1dd
 1499 0606 6B000000 		.4byte	0x6b
 1500 060a 02       		.byte	0x2
ARM GAS  C:\Users\Tymek\AppData\Local\Temp\ccJhKwfb.s 			page 66


 1501 060b 0E       		.uleb128 0xe
 1502 060c 8A1F0000 		.4byte	.LASF188
 1503 0610 05       		.byte	0x5
 1504 0611 E101     		.2byte	0x1e1
 1505 0613 CF050000 		.4byte	0x5cf
 1506 0617 03       		.byte	0x3
 1507 0618 0E       		.uleb128 0xe
 1508 0619 BE1E0000 		.4byte	.LASF189
 1509 061d 05       		.byte	0x5
 1510 061e EB01     		.2byte	0x1eb
 1511 0620 6B000000 		.4byte	0x6b
 1512 0624 04       		.byte	0x4
 1513 0625 00       		.byte	0
 1514 0626 04       		.uleb128 0x4
 1515 0627 F60B0000 		.4byte	.LASF190
 1516 062b 05       		.byte	0x5
 1517 062c ED01     		.2byte	0x1ed
 1518 062e DB050000 		.4byte	0x5db
 1519 0632 0D       		.uleb128 0xd
 1520 0633 08       		.byte	0x8
 1521 0634 05       		.byte	0x5
 1522 0635 7203     		.2byte	0x372
 1523 0637 70060000 		.4byte	0x670
 1524 063b 0E       		.uleb128 0xe
 1525 063c FE100000 		.4byte	.LASF191
 1526 0640 05       		.byte	0x5
 1527 0641 7803     		.2byte	0x378
 1528 0643 6B000000 		.4byte	0x6b
 1529 0647 00       		.byte	0
 1530 0648 0E       		.uleb128 0xe
 1531 0649 F1230000 		.4byte	.LASF192
 1532 064d 05       		.byte	0x5
 1533 064e 7E03     		.2byte	0x37e
 1534 0650 77000000 		.4byte	0x77
 1535 0654 02       		.byte	0x2
 1536 0655 0E       		.uleb128 0xe
 1537 0656 C4220000 		.4byte	.LASF193
 1538 065a 05       		.byte	0x5
 1539 065b 8303     		.2byte	0x383
 1540 065d 77000000 		.4byte	0x77
 1541 0661 04       		.byte	0x4
 1542 0662 0E       		.uleb128 0xe
 1543 0663 C8240000 		.4byte	.LASF194
 1544 0667 05       		.byte	0x5
 1545 0668 8903     		.2byte	0x389
 1546 066a 77000000 		.4byte	0x77
 1547 066e 06       		.byte	0x6
 1548 066f 00       		.byte	0
 1549 0670 04       		.uleb128 0x4
 1550 0671 D61B0000 		.4byte	.LASF195
 1551 0675 05       		.byte	0x5
 1552 0676 8B03     		.2byte	0x38b
 1553 0678 32060000 		.4byte	0x632
 1554 067c 11       		.uleb128 0x11
 1555 067d 01       		.byte	0x1
 1556 067e 2C000000 		.4byte	0x2c
 1557 0682 06       		.byte	0x6
ARM GAS  C:\Users\Tymek\AppData\Local\Temp\ccJhKwfb.s 			page 67


 1558 0683 49       		.byte	0x49
 1559 0684 37070000 		.4byte	0x737
 1560 0688 0B       		.uleb128 0xb
 1561 0689 040E0000 		.4byte	.LASF196
 1562 068d 01       		.byte	0x1
 1563 068e 0B       		.uleb128 0xb
 1564 068f 9B0C0000 		.4byte	.LASF197
 1565 0693 02       		.byte	0x2
 1566 0694 0B       		.uleb128 0xb
 1567 0695 91060000 		.4byte	.LASF198
 1568 0699 03       		.byte	0x3
 1569 069a 0B       		.uleb128 0xb
 1570 069b 2C090000 		.4byte	.LASF199
 1571 069f 04       		.byte	0x4
 1572 06a0 0B       		.uleb128 0xb
 1573 06a1 3F1B0000 		.4byte	.LASF200
 1574 06a5 05       		.byte	0x5
 1575 06a6 0B       		.uleb128 0xb
 1576 06a7 731A0000 		.4byte	.LASF201
 1577 06ab 06       		.byte	0x6
 1578 06ac 0B       		.uleb128 0xb
 1579 06ad 4C070000 		.4byte	.LASF202
 1580 06b1 07       		.byte	0x7
 1581 06b2 0B       		.uleb128 0xb
 1582 06b3 F9190000 		.4byte	.LASF203
 1583 06b7 08       		.byte	0x8
 1584 06b8 0B       		.uleb128 0xb
 1585 06b9 80040000 		.4byte	.LASF204
 1586 06bd 09       		.byte	0x9
 1587 06be 0B       		.uleb128 0xb
 1588 06bf EA100000 		.4byte	.LASF205
 1589 06c3 0A       		.byte	0xa
 1590 06c4 0B       		.uleb128 0xb
 1591 06c5 BA210000 		.4byte	.LASF206
 1592 06c9 0B       		.byte	0xb
 1593 06ca 0B       		.uleb128 0xb
 1594 06cb 771D0000 		.4byte	.LASF207
 1595 06cf 0C       		.byte	0xc
 1596 06d0 0B       		.uleb128 0xb
 1597 06d1 9E080000 		.4byte	.LASF208
 1598 06d5 0D       		.byte	0xd
 1599 06d6 0B       		.uleb128 0xb
 1600 06d7 A5190000 		.4byte	.LASF209
 1601 06db 0E       		.byte	0xe
 1602 06dc 0B       		.uleb128 0xb
 1603 06dd BF030000 		.4byte	.LASF210
 1604 06e1 0F       		.byte	0xf
 1605 06e2 0B       		.uleb128 0xb
 1606 06e3 54240000 		.4byte	.LASF211
 1607 06e7 10       		.byte	0x10
 1608 06e8 0B       		.uleb128 0xb
 1609 06e9 5C100000 		.4byte	.LASF212
 1610 06ed 11       		.byte	0x11
 1611 06ee 0B       		.uleb128 0xb
 1612 06ef 6B1F0000 		.4byte	.LASF213
 1613 06f3 12       		.byte	0x12
 1614 06f4 0B       		.uleb128 0xb
ARM GAS  C:\Users\Tymek\AppData\Local\Temp\ccJhKwfb.s 			page 68


 1615 06f5 C20B0000 		.4byte	.LASF214
 1616 06f9 13       		.byte	0x13
 1617 06fa 0B       		.uleb128 0xb
 1618 06fb 9F010000 		.4byte	.LASF215
 1619 06ff 52       		.byte	0x52
 1620 0700 0B       		.uleb128 0xb
 1621 0701 43020000 		.4byte	.LASF216
 1622 0705 16       		.byte	0x16
 1623 0706 0B       		.uleb128 0xb
 1624 0707 46180000 		.4byte	.LASF217
 1625 070b 17       		.byte	0x17
 1626 070c 0B       		.uleb128 0xb
 1627 070d 41230000 		.4byte	.LASF218
 1628 0711 18       		.byte	0x18
 1629 0712 0B       		.uleb128 0xb
 1630 0713 4B0F0000 		.4byte	.LASF219
 1631 0717 19       		.byte	0x19
 1632 0718 0B       		.uleb128 0xb
 1633 0719 C4110000 		.4byte	.LASF220
 1634 071d 1B       		.byte	0x1b
 1635 071e 0B       		.uleb128 0xb
 1636 071f 820A0000 		.4byte	.LASF221
 1637 0723 1D       		.byte	0x1d
 1638 0724 0B       		.uleb128 0xb
 1639 0725 57000000 		.4byte	.LASF222
 1640 0729 1E       		.byte	0x1e
 1641 072a 0B       		.uleb128 0xb
 1642 072b EA0E0000 		.4byte	.LASF223
 1643 072f D2       		.byte	0xd2
 1644 0730 0B       		.uleb128 0xb
 1645 0731 4A1C0000 		.4byte	.LASF224
 1646 0735 FF       		.byte	0xff
 1647 0736 00       		.byte	0
 1648 0737 11       		.uleb128 0x11
 1649 0738 01       		.byte	0x1
 1650 0739 2C000000 		.4byte	0x2c
 1651 073d 06       		.byte	0x6
 1652 073e A5       		.byte	0xa5
 1653 073f 2E080000 		.4byte	0x82e
 1654 0743 0B       		.uleb128 0xb
 1655 0744 CA1C0000 		.4byte	.LASF225
 1656 0748 00       		.byte	0
 1657 0749 0B       		.uleb128 0xb
 1658 074a 1A1C0000 		.4byte	.LASF226
 1659 074e 01       		.byte	0x1
 1660 074f 0B       		.uleb128 0xb
 1661 0750 FC010000 		.4byte	.LASF227
 1662 0754 02       		.byte	0x2
 1663 0755 0B       		.uleb128 0xb
 1664 0756 CE230000 		.4byte	.LASF228
 1665 075a 03       		.byte	0x3
 1666 075b 0B       		.uleb128 0xb
 1667 075c DC070000 		.4byte	.LASF229
 1668 0760 04       		.byte	0x4
 1669 0761 0B       		.uleb128 0xb
 1670 0762 5E170000 		.4byte	.LASF230
 1671 0766 05       		.byte	0x5
ARM GAS  C:\Users\Tymek\AppData\Local\Temp\ccJhKwfb.s 			page 69


 1672 0767 0B       		.uleb128 0xb
 1673 0768 E61F0000 		.4byte	.LASF231
 1674 076c 06       		.byte	0x6
 1675 076d 0B       		.uleb128 0xb
 1676 076e DB190000 		.4byte	.LASF232
 1677 0772 07       		.byte	0x7
 1678 0773 0B       		.uleb128 0xb
 1679 0774 D7160000 		.4byte	.LASF233
 1680 0778 08       		.byte	0x8
 1681 0779 0B       		.uleb128 0xb
 1682 077a E4140000 		.4byte	.LASF234
 1683 077e 09       		.byte	0x9
 1684 077f 0B       		.uleb128 0xb
 1685 0780 8A180000 		.4byte	.LASF235
 1686 0784 0A       		.byte	0xa
 1687 0785 0B       		.uleb128 0xb
 1688 0786 690D0000 		.4byte	.LASF236
 1689 078a 0B       		.byte	0xb
 1690 078b 0B       		.uleb128 0xb
 1691 078c 96150000 		.4byte	.LASF237
 1692 0790 0C       		.byte	0xc
 1693 0791 0B       		.uleb128 0xb
 1694 0792 B7080000 		.4byte	.LASF238
 1695 0796 0D       		.byte	0xd
 1696 0797 0B       		.uleb128 0xb
 1697 0798 5C0C0000 		.4byte	.LASF239
 1698 079c 0E       		.byte	0xe
 1699 079d 0B       		.uleb128 0xb
 1700 079e 0D240000 		.4byte	.LASF240
 1701 07a2 0F       		.byte	0xf
 1702 07a3 0B       		.uleb128 0xb
 1703 07a4 60020000 		.4byte	.LASF241
 1704 07a8 10       		.byte	0x10
 1705 07a9 0B       		.uleb128 0xb
 1706 07aa 1E020000 		.4byte	.LASF242
 1707 07ae 11       		.byte	0x11
 1708 07af 0B       		.uleb128 0xb
 1709 07b0 F8030000 		.4byte	.LASF243
 1710 07b4 80       		.byte	0x80
 1711 07b5 0B       		.uleb128 0xb
 1712 07b6 330D0000 		.4byte	.LASF244
 1713 07ba 80       		.byte	0x80
 1714 07bb 0B       		.uleb128 0xb
 1715 07bc D70F0000 		.4byte	.LASF245
 1716 07c0 80       		.byte	0x80
 1717 07c1 0B       		.uleb128 0xb
 1718 07c2 AF1F0000 		.4byte	.LASF246
 1719 07c6 80       		.byte	0x80
 1720 07c7 0B       		.uleb128 0xb
 1721 07c8 361D0000 		.4byte	.LASF247
 1722 07cc 80       		.byte	0x80
 1723 07cd 0B       		.uleb128 0xb
 1724 07ce E9170000 		.4byte	.LASF248
 1725 07d2 80       		.byte	0x80
 1726 07d3 0B       		.uleb128 0xb
 1727 07d4 9C100000 		.4byte	.LASF249
 1728 07d8 80       		.byte	0x80
ARM GAS  C:\Users\Tymek\AppData\Local\Temp\ccJhKwfb.s 			page 70


 1729 07d9 0B       		.uleb128 0xb
 1730 07da 410C0000 		.4byte	.LASF250
 1731 07de 80       		.byte	0x80
 1732 07df 0B       		.uleb128 0xb
 1733 07e0 060F0000 		.4byte	.LASF251
 1734 07e4 81       		.byte	0x81
 1735 07e5 0B       		.uleb128 0xb
 1736 07e6 571E0000 		.4byte	.LASF252
 1737 07ea 81       		.byte	0x81
 1738 07eb 0B       		.uleb128 0xb
 1739 07ec 00000000 		.4byte	.LASF253
 1740 07f0 81       		.byte	0x81
 1741 07f1 0B       		.uleb128 0xb
 1742 07f2 B8070000 		.4byte	.LASF254
 1743 07f6 81       		.byte	0x81
 1744 07f7 0B       		.uleb128 0xb
 1745 07f8 DD050000 		.4byte	.LASF255
 1746 07fc 82       		.byte	0x82
 1747 07fd 0B       		.uleb128 0xb
 1748 07fe 7D210000 		.4byte	.LASF256
 1749 0802 A0       		.byte	0xa0
 1750 0803 0B       		.uleb128 0xb
 1751 0804 7D120000 		.4byte	.LASF257
 1752 0808 A0       		.byte	0xa0
 1753 0809 0B       		.uleb128 0xb
 1754 080a 3B060000 		.4byte	.LASF258
 1755 080e A1       		.byte	0xa1
 1756 080f 0B       		.uleb128 0xb
 1757 0810 CB200000 		.4byte	.LASF259
 1758 0814 A2       		.byte	0xa2
 1759 0815 0B       		.uleb128 0xb
 1760 0816 C60D0000 		.4byte	.LASF260
 1761 081a A3       		.byte	0xa3
 1762 081b 0B       		.uleb128 0xb
 1763 081c 9C090000 		.4byte	.LASF261
 1764 0820 FD       		.byte	0xfd
 1765 0821 0B       		.uleb128 0xb
 1766 0822 E9150000 		.4byte	.LASF262
 1767 0826 FE       		.byte	0xfe
 1768 0827 0B       		.uleb128 0xb
 1769 0828 331A0000 		.4byte	.LASF263
 1770 082c FF       		.byte	0xff
 1771 082d 00       		.byte	0
 1772 082e 04       		.uleb128 0x4
 1773 082f B5200000 		.4byte	.LASF264
 1774 0833 06       		.byte	0x6
 1775 0834 5F01     		.2byte	0x15f
 1776 0836 37070000 		.4byte	0x737
 1777 083a 04       		.uleb128 0x4
 1778 083b 7F1C0000 		.4byte	.LASF265
 1779 083f 06       		.byte	0x6
 1780 0840 8901     		.2byte	0x189
 1781 0842 77000000 		.4byte	0x77
 1782 0846 0D       		.uleb128 0xd
 1783 0847 02       		.byte	0x2
 1784 0848 06       		.byte	0x6
 1785 0849 9301     		.2byte	0x193
ARM GAS  C:\Users\Tymek\AppData\Local\Temp\ccJhKwfb.s 			page 71


 1786 084b 6A080000 		.4byte	0x86a
 1787 084f 0E       		.uleb128 0xe
 1788 0850 D4050000 		.4byte	.LASF266
 1789 0854 06       		.byte	0x6
 1790 0855 9A01     		.2byte	0x19a
 1791 0857 6B000000 		.4byte	0x6b
 1792 085b 00       		.byte	0
 1793 085c 0E       		.uleb128 0xe
 1794 085d 71240000 		.4byte	.LASF267
 1795 0861 06       		.byte	0x6
 1796 0862 A001     		.2byte	0x1a0
 1797 0864 6B000000 		.4byte	0x6b
 1798 0868 01       		.byte	0x1
 1799 0869 00       		.byte	0
 1800 086a 04       		.uleb128 0x4
 1801 086b E5040000 		.4byte	.LASF268
 1802 086f 06       		.byte	0x6
 1803 0870 A201     		.2byte	0x1a2
 1804 0872 46080000 		.4byte	0x846
 1805 0876 0D       		.uleb128 0xd
 1806 0877 08       		.byte	0x8
 1807 0878 06       		.byte	0x6
 1808 0879 BE01     		.2byte	0x1be
 1809 087b A7080000 		.4byte	0x8a7
 1810 087f 13       		.uleb128 0x13
 1811 0880 76616C00 		.ascii	"val\000"
 1812 0884 06       		.byte	0x6
 1813 0885 C101     		.2byte	0x1c1
 1814 0887 C7040000 		.4byte	0x4c7
 1815 088b 00       		.byte	0
 1816 088c 13       		.uleb128 0x13
 1817 088d 6C656E00 		.ascii	"len\000"
 1818 0891 06       		.byte	0x6
 1819 0892 C401     		.2byte	0x1c4
 1820 0894 77000000 		.4byte	0x77
 1821 0898 04       		.byte	0x4
 1822 0899 0E       		.uleb128 0xe
 1823 089a 4A240000 		.4byte	.LASF269
 1824 089e 06       		.byte	0x6
 1825 089f CB01     		.2byte	0x1cb
 1826 08a1 77000000 		.4byte	0x77
 1827 08a5 06       		.byte	0x6
 1828 08a6 00       		.byte	0
 1829 08a7 04       		.uleb128 0x4
 1830 08a8 17030000 		.4byte	.LASF270
 1831 08ac 06       		.byte	0x6
 1832 08ad CD01     		.2byte	0x1cd
 1833 08af 76080000 		.4byte	0x876
 1834 08b3 0D       		.uleb128 0xd
 1835 08b4 0C       		.byte	0xc
 1836 08b5 06       		.byte	0x6
 1837 08b6 D001     		.2byte	0x1d0
 1838 08b8 D7080000 		.4byte	0x8d7
 1839 08bc 0E       		.uleb128 0xe
 1840 08bd DE1C0000 		.4byte	.LASF271
 1841 08c1 06       		.byte	0x6
 1842 08c2 D301     		.2byte	0x1d3
ARM GAS  C:\Users\Tymek\AppData\Local\Temp\ccJhKwfb.s 			page 72


 1843 08c4 A7080000 		.4byte	0x8a7
 1844 08c8 00       		.byte	0
 1845 08c9 0E       		.uleb128 0xe
 1846 08ca 01170000 		.4byte	.LASF272
 1847 08ce 06       		.byte	0x6
 1848 08cf D601     		.2byte	0x1d6
 1849 08d1 3A080000 		.4byte	0x83a
 1850 08d5 08       		.byte	0x8
 1851 08d6 00       		.byte	0
 1852 08d7 04       		.uleb128 0x4
 1853 08d8 47080000 		.4byte	.LASF273
 1854 08dc 06       		.byte	0x6
 1855 08dd D801     		.2byte	0x1d8
 1856 08df B3080000 		.4byte	0x8b3
 1857 08e3 0D       		.uleb128 0xd
 1858 08e4 04       		.byte	0x4
 1859 08e5 06       		.byte	0x6
 1860 08e6 E601     		.2byte	0x1e6
 1861 08e8 07090000 		.4byte	0x907
 1862 08ec 0E       		.uleb128 0xe
 1863 08ed B41D0000 		.4byte	.LASF274
 1864 08f1 06       		.byte	0x6
 1865 08f2 E901     		.2byte	0x1e9
 1866 08f4 6A080000 		.4byte	0x86a
 1867 08f8 00       		.byte	0
 1868 08f9 13       		.uleb128 0x13
 1869 08fa 6D747500 		.ascii	"mtu\000"
 1870 08fe 06       		.byte	0x6
 1871 08ff EC01     		.2byte	0x1ec
 1872 0901 77000000 		.4byte	0x77
 1873 0905 02       		.byte	0x2
 1874 0906 00       		.byte	0
 1875 0907 04       		.uleb128 0x4
 1876 0908 89170000 		.4byte	.LASF275
 1877 090c 06       		.byte	0x6
 1878 090d EE01     		.2byte	0x1ee
 1879 090f E3080000 		.4byte	0x8e3
 1880 0913 0D       		.uleb128 0xd
 1881 0914 10       		.byte	0x10
 1882 0915 06       		.byte	0x6
 1883 0916 F101     		.2byte	0x1f1
 1884 0918 37090000 		.4byte	0x937
 1885 091c 0E       		.uleb128 0xe
 1886 091d AE1E0000 		.4byte	.LASF276
 1887 0921 06       		.byte	0x6
 1888 0922 F401     		.2byte	0x1f4
 1889 0924 D7080000 		.4byte	0x8d7
 1890 0928 00       		.byte	0
 1891 0929 0E       		.uleb128 0xe
 1892 092a AD180000 		.4byte	.LASF277
 1893 092e 06       		.byte	0x6
 1894 092f F701     		.2byte	0x1f7
 1895 0931 77000000 		.4byte	0x77
 1896 0935 0C       		.byte	0xc
 1897 0936 00       		.byte	0
 1898 0937 04       		.uleb128 0x4
 1899 0938 63180000 		.4byte	.LASF278
ARM GAS  C:\Users\Tymek\AppData\Local\Temp\ccJhKwfb.s 			page 73


 1900 093c 06       		.byte	0x6
 1901 093d F901     		.2byte	0x1f9
 1902 093f 13090000 		.4byte	0x913
 1903 0943 0D       		.uleb128 0xd
 1904 0944 08       		.byte	0x8
 1905 0945 06       		.byte	0x6
 1906 0946 FC01     		.2byte	0x1fc
 1907 0948 74090000 		.4byte	0x974
 1908 094c 0E       		.uleb128 0xe
 1909 094d 151B0000 		.4byte	.LASF279
 1910 0951 06       		.byte	0x6
 1911 0952 0102     		.2byte	0x201
 1912 0954 C7040000 		.4byte	0x4c7
 1913 0958 00       		.byte	0
 1914 0959 0E       		.uleb128 0xe
 1915 095a E41C0000 		.4byte	.LASF280
 1916 095e 06       		.byte	0x6
 1917 095f 0602     		.2byte	0x206
 1918 0961 77000000 		.4byte	0x77
 1919 0965 04       		.byte	0x4
 1920 0966 0E       		.uleb128 0xe
 1921 0967 BA0E0000 		.4byte	.LASF281
 1922 096b 06       		.byte	0x6
 1923 096c 0D02     		.2byte	0x20d
 1924 096e 77000000 		.4byte	0x77
 1925 0972 06       		.byte	0x6
 1926 0973 00       		.byte	0
 1927 0974 04       		.uleb128 0x4
 1928 0975 A1120000 		.4byte	.LASF282
 1929 0979 06       		.byte	0x6
 1930 097a 0F02     		.2byte	0x20f
 1931 097c 43090000 		.4byte	0x943
 1932 0980 14       		.uleb128 0x14
 1933 0981 04       		.byte	0x4
 1934 0982 07       		.byte	0x7
 1935 0983 3A       		.byte	0x3a
 1936 0984 AD090000 		.4byte	0x9ad
 1937 0988 15       		.uleb128 0x15
 1938 0989 01170000 		.4byte	.LASF272
 1939 098d 07       		.byte	0x7
 1940 098e 3D       		.byte	0x3d
 1941 098f 3A080000 		.4byte	0x83a
 1942 0993 00       		.byte	0
 1943 0994 15       		.uleb128 0x15
 1944 0995 D0160000 		.4byte	.LASF283
 1945 0999 07       		.byte	0x7
 1946 099a 43       		.byte	0x43
 1947 099b 6B000000 		.4byte	0x6b
 1948 099f 02       		.byte	0x2
 1949 09a0 15       		.uleb128 0x15
 1950 09a1 FA0A0000 		.4byte	.LASF284
 1951 09a5 07       		.byte	0x7
 1952 09a6 46       		.byte	0x46
 1953 09a7 2E080000 		.4byte	0x82e
 1954 09ab 03       		.byte	0x3
 1955 09ac 00       		.byte	0
 1956 09ad 12       		.uleb128 0x12
ARM GAS  C:\Users\Tymek\AppData\Local\Temp\ccJhKwfb.s 			page 74


 1957 09ae 3E0A0000 		.4byte	.LASF285
 1958 09b2 07       		.byte	0x7
 1959 09b3 48       		.byte	0x48
 1960 09b4 80090000 		.4byte	0x980
 1961 09b8 14       		.uleb128 0x14
 1962 09b9 0C       		.byte	0xc
 1963 09ba 07       		.byte	0x7
 1964 09bb 4E       		.byte	0x4e
 1965 09bc F1090000 		.4byte	0x9f1
 1966 09c0 15       		.uleb128 0x15
 1967 09c1 B41D0000 		.4byte	.LASF274
 1968 09c5 07       		.byte	0x7
 1969 09c6 51       		.byte	0x51
 1970 09c7 6A080000 		.4byte	0x86a
 1971 09cb 00       		.byte	0
 1972 09cc 15       		.uleb128 0x15
 1973 09cd 27140000 		.4byte	.LASF286
 1974 09d1 07       		.byte	0x7
 1975 09d2 5C       		.byte	0x5c
 1976 09d3 F1090000 		.4byte	0x9f1
 1977 09d7 04       		.byte	0x4
 1978 09d8 15       		.uleb128 0x15
 1979 09d9 06220000 		.4byte	.LASF287
 1980 09dd 07       		.byte	0x7
 1981 09de 61       		.byte	0x61
 1982 09df 6B000000 		.4byte	0x6b
 1983 09e3 08       		.byte	0x8
 1984 09e4 15       		.uleb128 0x15
 1985 09e5 AF130000 		.4byte	.LASF288
 1986 09e9 07       		.byte	0x7
 1987 09ea 64       		.byte	0x64
 1988 09eb 6B000000 		.4byte	0x6b
 1989 09ef 09       		.byte	0x9
 1990 09f0 00       		.byte	0
 1991 09f1 07       		.uleb128 0x7
 1992 09f2 04       		.byte	0x4
 1993 09f3 37090000 		.4byte	0x937
 1994 09f7 12       		.uleb128 0x12
 1995 09f8 CF000000 		.4byte	.LASF289
 1996 09fc 07       		.byte	0x7
 1997 09fd 66       		.byte	0x66
 1998 09fe B8090000 		.4byte	0x9b8
 1999 0a02 14       		.uleb128 0x14
 2000 0a03 10       		.byte	0x10
 2001 0a04 07       		.byte	0x7
 2002 0a05 69       		.byte	0x69
 2003 0a06 530A0000 		.4byte	0xa53
 2004 0a0a 15       		.uleb128 0x15
 2005 0a0b B41D0000 		.4byte	.LASF274
 2006 0a0f 07       		.byte	0x7
 2007 0a10 6C       		.byte	0x6c
 2008 0a11 6A080000 		.4byte	0x86a
 2009 0a15 00       		.byte	0
 2010 0a16 15       		.uleb128 0x15
 2011 0a17 27140000 		.4byte	.LASF286
 2012 0a1b 07       		.byte	0x7
 2013 0a1c 77       		.byte	0x77
ARM GAS  C:\Users\Tymek\AppData\Local\Temp\ccJhKwfb.s 			page 75


 2014 0a1d F1090000 		.4byte	0x9f1
 2015 0a21 04       		.byte	0x4
 2016 0a22 15       		.uleb128 0x15
 2017 0a23 530E0000 		.4byte	.LASF290
 2018 0a27 07       		.byte	0x7
 2019 0a28 7C       		.byte	0x7c
 2020 0a29 6B000000 		.4byte	0x6b
 2021 0a2d 08       		.byte	0x8
 2022 0a2e 15       		.uleb128 0x15
 2023 0a2f 03060000 		.4byte	.LASF291
 2024 0a33 07       		.byte	0x7
 2025 0a34 7F       		.byte	0x7f
 2026 0a35 6B000000 		.4byte	0x6b
 2027 0a39 09       		.byte	0x9
 2028 0a3a 15       		.uleb128 0x15
 2029 0a3b 01170000 		.4byte	.LASF272
 2030 0a3f 07       		.byte	0x7
 2031 0a40 82       		.byte	0x82
 2032 0a41 3A080000 		.4byte	0x83a
 2033 0a45 0A       		.byte	0xa
 2034 0a46 15       		.uleb128 0x15
 2035 0a47 AF130000 		.4byte	.LASF288
 2036 0a4b 07       		.byte	0x7
 2037 0a4c 85       		.byte	0x85
 2038 0a4d 6B000000 		.4byte	0x6b
 2039 0a51 0C       		.byte	0xc
 2040 0a52 00       		.byte	0
 2041 0a53 12       		.uleb128 0x12
 2042 0a54 BF1D0000 		.4byte	.LASF292
 2043 0a58 07       		.byte	0x7
 2044 0a59 87       		.byte	0x87
 2045 0a5a 020A0000 		.4byte	0xa02
 2046 0a5e 14       		.uleb128 0x14
 2047 0a5f 10       		.byte	0x10
 2048 0a60 07       		.byte	0x7
 2049 0a61 8A       		.byte	0x8a
 2050 0a62 7F0A0000 		.4byte	0xa7f
 2051 0a66 15       		.uleb128 0x15
 2052 0a67 B41D0000 		.4byte	.LASF274
 2053 0a6b 07       		.byte	0x7
 2054 0a6c 8D       		.byte	0x8d
 2055 0a6d 6A080000 		.4byte	0x86a
 2056 0a71 00       		.byte	0
 2057 0a72 15       		.uleb128 0x15
 2058 0a73 A61D0000 		.4byte	.LASF293
 2059 0a77 07       		.byte	0x7
 2060 0a78 90       		.byte	0x90
 2061 0a79 D7080000 		.4byte	0x8d7
 2062 0a7d 04       		.byte	0x4
 2063 0a7e 00       		.byte	0
 2064 0a7f 12       		.uleb128 0x12
 2065 0a80 14170000 		.4byte	.LASF294
 2066 0a84 07       		.byte	0x7
 2067 0a85 92       		.byte	0x92
 2068 0a86 5E0A0000 		.4byte	0xa5e
 2069 0a8a 04       		.uleb128 0x4
 2070 0a8b 9C040000 		.4byte	.LASF295
ARM GAS  C:\Users\Tymek\AppData\Local\Temp\ccJhKwfb.s 			page 76


 2071 0a8f 08       		.byte	0x8
 2072 0a90 0302     		.2byte	0x203
 2073 0a92 B9000000 		.4byte	0xb9
 2074 0a96 0A       		.uleb128 0xa
 2075 0a97 01       		.byte	0x1
 2076 0a98 2C000000 		.4byte	0x2c
 2077 0a9c 09       		.byte	0x9
 2078 0a9d 5A08     		.2byte	0x85a
 2079 0a9f C20A0000 		.4byte	0xac2
 2080 0aa3 0B       		.uleb128 0xb
 2081 0aa4 2A0A0000 		.4byte	.LASF296
 2082 0aa8 00       		.byte	0
 2083 0aa9 0B       		.uleb128 0xb
 2084 0aaa 1C130000 		.4byte	.LASF297
 2085 0aae 01       		.byte	0x1
 2086 0aaf 0B       		.uleb128 0xb
 2087 0ab0 34240000 		.4byte	.LASF298
 2088 0ab4 02       		.byte	0x2
 2089 0ab5 0B       		.uleb128 0xb
 2090 0ab6 7F050000 		.4byte	.LASF299
 2091 0aba 03       		.byte	0x3
 2092 0abb 0B       		.uleb128 0xb
 2093 0abc EA1E0000 		.4byte	.LASF300
 2094 0ac0 04       		.byte	0x4
 2095 0ac1 00       		.byte	0
 2096 0ac2 04       		.uleb128 0x4
 2097 0ac3 46200000 		.4byte	.LASF301
 2098 0ac7 09       		.byte	0x9
 2099 0ac8 6808     		.2byte	0x868
 2100 0aca 960A0000 		.4byte	0xa96
 2101 0ace 0D       		.uleb128 0xd
 2102 0acf 0C       		.byte	0xc
 2103 0ad0 09       		.byte	0x9
 2104 0ad1 A309     		.2byte	0x9a3
 2105 0ad3 260B0000 		.4byte	0xb26
 2106 0ad7 0E       		.uleb128 0xe
 2107 0ad8 BB010000 		.4byte	.LASF302
 2108 0adc 09       		.byte	0x9
 2109 0add A609     		.2byte	0x9a6
 2110 0adf 3A080000 		.4byte	0x83a
 2111 0ae3 00       		.byte	0
 2112 0ae4 0E       		.uleb128 0xe
 2113 0ae5 D4150000 		.4byte	.LASF303
 2114 0ae9 09       		.byte	0x9
 2115 0aea A809     		.2byte	0x9a8
 2116 0aec 3A080000 		.4byte	0x83a
 2117 0af0 02       		.byte	0x2
 2118 0af1 0E       		.uleb128 0xe
 2119 0af2 C91A0000 		.4byte	.LASF304
 2120 0af6 09       		.byte	0x9
 2121 0af7 AA09     		.2byte	0x9aa
 2122 0af9 3A080000 		.4byte	0x83a
 2123 0afd 04       		.byte	0x4
 2124 0afe 0E       		.uleb128 0xe
 2125 0aff 35190000 		.4byte	.LASF305
 2126 0b03 09       		.byte	0x9
 2127 0b04 AD09     		.2byte	0x9ad
ARM GAS  C:\Users\Tymek\AppData\Local\Temp\ccJhKwfb.s 			page 77


 2128 0b06 3A080000 		.4byte	0x83a
 2129 0b0a 06       		.byte	0x6
 2130 0b0b 0E       		.uleb128 0xe
 2131 0b0c 56210000 		.4byte	.LASF306
 2132 0b10 09       		.byte	0x9
 2133 0b11 AF09     		.2byte	0x9af
 2134 0b13 3A080000 		.4byte	0x83a
 2135 0b17 08       		.byte	0x8
 2136 0b18 0E       		.uleb128 0xe
 2137 0b19 8C080000 		.4byte	.LASF307
 2138 0b1d 09       		.byte	0x9
 2139 0b1e B109     		.2byte	0x9b1
 2140 0b20 3A080000 		.4byte	0x83a
 2141 0b24 0A       		.byte	0xa
 2142 0b25 00       		.byte	0
 2143 0b26 04       		.uleb128 0x4
 2144 0b27 561D0000 		.4byte	.LASF308
 2145 0b2b 09       		.byte	0x9
 2146 0b2c B209     		.2byte	0x9b2
 2147 0b2e CE0A0000 		.4byte	0xace
 2148 0b32 16       		.uleb128 0x16
 2149 0b33 A3140000 		.4byte	.LASF349
 2150 0b37 01       		.byte	0x1
 2151 0b38 4B05     		.2byte	0x54b
 2152 0b3a 00000000 		.4byte	.LFB4
 2153 0b3e 10000000 		.4byte	.LFE4-.LFB4
 2154 0b42 01       		.uleb128 0x1
 2155 0b43 9C       		.byte	0x9c
 2156 0b44 17       		.uleb128 0x17
 2157 0b45 F2000000 		.4byte	.LASF350
 2158 0b49 01       		.byte	0x1
 2159 0b4a F9       		.byte	0xf9
 2160 0b4b 00000000 		.4byte	.LFB2
 2161 0b4f 48000000 		.4byte	.LFE2-.LFB2
 2162 0b53 01       		.uleb128 0x1
 2163 0b54 9C       		.byte	0x9c
 2164 0b55 D60B0000 		.4byte	0xbd6
 2165 0b59 18       		.uleb128 0x18
 2166 0b5a 39010000 		.4byte	.LASF311
 2167 0b5e 01       		.byte	0x1
 2168 0b5f F9       		.byte	0xf9
 2169 0b60 D60B0000 		.4byte	0xbd6
 2170 0b64 00000000 		.4byte	.LLST0
 2171 0b68 19       		.uleb128 0x19
 2172 0b69 C6230000 		.4byte	.LASF309
 2173 0b6d 01       		.byte	0x1
 2174 0b6e FB       		.byte	0xfb
 2175 0b6f 2E080000 		.4byte	0x82e
 2176 0b73 2C000000 		.4byte	.LLST1
 2177 0b77 1A       		.uleb128 0x1a
 2178 0b78 24000000 		.4byte	.LBB2
 2179 0b7c 12000000 		.4byte	.LBE2-.LBB2
 2180 0b80 A40B0000 		.4byte	0xba4
 2181 0b84 1B       		.uleb128 0x1b
 2182 0b85 17180000 		.4byte	.LASF310
 2183 0b89 01       		.byte	0x1
 2184 0b8a B501     		.2byte	0x1b5
ARM GAS  C:\Users\Tymek\AppData\Local\Temp\ccJhKwfb.s 			page 78


 2185 0b8c AD090000 		.4byte	0x9ad
 2186 0b90 02       		.uleb128 0x2
 2187 0b91 91       		.byte	0x91
 2188 0b92 74       		.sleb128 -12
 2189 0b93 1C       		.uleb128 0x1c
 2190 0b94 36000000 		.4byte	.LVL5
 2191 0b98 720F0000 		.4byte	0xf72
 2192 0b9c 1D       		.uleb128 0x1d
 2193 0b9d 01       		.uleb128 0x1
 2194 0b9e 51       		.byte	0x51
 2195 0b9f 02       		.uleb128 0x2
 2196 0ba0 91       		.byte	0x91
 2197 0ba1 74       		.sleb128 -12
 2198 0ba2 00       		.byte	0
 2199 0ba3 00       		.byte	0
 2200 0ba4 1E       		.uleb128 0x1e
 2201 0ba5 0A000000 		.4byte	.LVL1
 2202 0ba9 7E0F0000 		.4byte	0xf7e
 2203 0bad B80B0000 		.4byte	0xbb8
 2204 0bb1 1D       		.uleb128 0x1d
 2205 0bb2 01       		.uleb128 0x1
 2206 0bb3 50       		.byte	0x50
 2207 0bb4 02       		.uleb128 0x2
 2208 0bb5 74       		.byte	0x74
 2209 0bb6 00       		.sleb128 0
 2210 0bb7 00       		.byte	0
 2211 0bb8 1E       		.uleb128 0x1e
 2212 0bb9 18000000 		.4byte	.LVL3
 2213 0bbd 890F0000 		.4byte	0xf89
 2214 0bc1 CC0B0000 		.4byte	0xbcc
 2215 0bc5 1D       		.uleb128 0x1d
 2216 0bc6 01       		.uleb128 0x1
 2217 0bc7 50       		.byte	0x50
 2218 0bc8 02       		.uleb128 0x2
 2219 0bc9 74       		.byte	0x74
 2220 0bca 00       		.sleb128 0
 2221 0bcb 00       		.byte	0
 2222 0bcc 1F       		.uleb128 0x1f
 2223 0bcd 3E000000 		.4byte	.LVL8
 2224 0bd1 940F0000 		.4byte	0xf94
 2225 0bd5 00       		.byte	0
 2226 0bd6 07       		.uleb128 0x7
 2227 0bd7 04       		.byte	0x4
 2228 0bd8 7F0A0000 		.4byte	0xa7f
 2229 0bdc 20       		.uleb128 0x20
 2230 0bdd E1180000 		.4byte	.LASF351
 2231 0be1 01       		.byte	0x1
 2232 0be2 E705     		.2byte	0x5e7
 2233 0be4 6B000000 		.4byte	0x6b
 2234 0be8 00000000 		.4byte	.LFB7
 2235 0bec 24000000 		.4byte	.LFE7-.LFB7
 2236 0bf0 01       		.uleb128 0x1
 2237 0bf1 9C       		.byte	0x9c
 2238 0bf2 250C0000 		.4byte	0xc25
 2239 0bf6 21       		.uleb128 0x21
 2240 0bf7 EF0C0000 		.4byte	.LASF312
 2241 0bfb 01       		.byte	0x1
ARM GAS  C:\Users\Tymek\AppData\Local\Temp\ccJhKwfb.s 			page 79


 2242 0bfc E705     		.2byte	0x5e7
 2243 0bfe 250C0000 		.4byte	0xc25
 2244 0c02 61000000 		.4byte	.LLST2
 2245 0c06 22       		.uleb128 0x22
 2246 0c07 6900     		.ascii	"i\000"
 2247 0c09 01       		.byte	0x1
 2248 0c0a E905     		.2byte	0x5e9
 2249 0c0c 6B000000 		.4byte	0x6b
 2250 0c10 B4000000 		.4byte	.LLST3
 2251 0c14 23       		.uleb128 0x23
 2252 0c15 72050000 		.4byte	.LASF313
 2253 0c19 01       		.byte	0x1
 2254 0c1a EA05     		.2byte	0x5ea
 2255 0c1c 6B000000 		.4byte	0x6b
 2256 0c20 DD000000 		.4byte	.LLST4
 2257 0c24 00       		.byte	0
 2258 0c25 07       		.uleb128 0x7
 2259 0c26 04       		.byte	0x4
 2260 0c27 2B0C0000 		.4byte	0xc2b
 2261 0c2b 24       		.uleb128 0x24
 2262 0c2c BB040000 		.4byte	0x4bb
 2263 0c30 25       		.uleb128 0x25
 2264 0c31 5E090000 		.4byte	.LASF352
 2265 0c35 01       		.byte	0x1
 2266 0c36 3F06     		.2byte	0x63f
 2267 0c38 00000000 		.4byte	.LFB10
 2268 0c3c 30020000 		.4byte	.LFE10-.LFB10
 2269 0c40 01       		.uleb128 0x1
 2270 0c41 9C       		.byte	0x9c
 2271 0c42 AF0E0000 		.4byte	0xeaf
 2272 0c46 21       		.uleb128 0x21
 2273 0c47 87220000 		.4byte	.LASF314
 2274 0c4b 01       		.byte	0x1
 2275 0c4c 3F06     		.2byte	0x63f
 2276 0c4e 6B000000 		.4byte	0x6b
 2277 0c52 FC000000 		.4byte	.LLST5
 2278 0c56 21       		.uleb128 0x21
 2279 0c57 39010000 		.4byte	.LASF311
 2280 0c5b 01       		.byte	0x1
 2281 0c5c 3F06     		.2byte	0x63f
 2282 0c5e B7000000 		.4byte	0xb7
 2283 0c62 E5010000 		.4byte	.LLST6
 2284 0c66 1A       		.uleb128 0x1a
 2285 0c67 22000000 		.4byte	.LBB3
 2286 0c6b 1C000000 		.4byte	.LBE3-.LBB3
 2287 0c6f A70C0000 		.4byte	0xca7
 2288 0c73 1B       		.uleb128 0x1b
 2289 0c74 9B1C0000 		.4byte	.LASF315
 2290 0c78 01       		.byte	0x1
 2291 0c79 4C06     		.2byte	0x64c
 2292 0c7b 18040000 		.4byte	0x418
 2293 0c7f 02       		.uleb128 0x2
 2294 0c80 91       		.byte	0x91
 2295 0c81 64       		.sleb128 -28
 2296 0c82 1E       		.uleb128 0x1e
 2297 0c83 32000000 		.4byte	.LVL23
 2298 0c87 A00F0000 		.4byte	0xfa0
ARM GAS  C:\Users\Tymek\AppData\Local\Temp\ccJhKwfb.s 			page 80


 2299 0c8b 960C0000 		.4byte	0xc96
 2300 0c8f 1D       		.uleb128 0x1d
 2301 0c90 01       		.uleb128 0x1
 2302 0c91 50       		.byte	0x50
 2303 0c92 02       		.uleb128 0x2
 2304 0c93 76       		.byte	0x76
 2305 0c94 00       		.sleb128 0
 2306 0c95 00       		.byte	0
 2307 0c96 1C       		.uleb128 0x1c
 2308 0c97 3E000000 		.4byte	.LVL24
 2309 0c9b A00F0000 		.4byte	0xfa0
 2310 0c9f 1D       		.uleb128 0x1d
 2311 0ca0 01       		.uleb128 0x1
 2312 0ca1 50       		.byte	0x50
 2313 0ca2 02       		.uleb128 0x2
 2314 0ca3 76       		.byte	0x76
 2315 0ca4 00       		.sleb128 0
 2316 0ca5 00       		.byte	0
 2317 0ca6 00       		.byte	0
 2318 0ca7 1A       		.uleb128 0x1a
 2319 0ca8 84000000 		.4byte	.LBB4
 2320 0cac 0E000000 		.4byte	.LBE4-.LBB4
 2321 0cb0 D40C0000 		.4byte	0xcd4
 2322 0cb4 1B       		.uleb128 0x1b
 2323 0cb5 031F0000 		.4byte	.LASF316
 2324 0cb9 01       		.byte	0x1
 2325 0cba 8D06     		.2byte	0x68d
 2326 0cbc AF0E0000 		.4byte	0xeaf
 2327 0cc0 02       		.uleb128 0x2
 2328 0cc1 91       		.byte	0x91
 2329 0cc2 64       		.sleb128 -28
 2330 0cc3 1C       		.uleb128 0x1c
 2331 0cc4 92000000 		.4byte	.LVL33
 2332 0cc8 AC0F0000 		.4byte	0xfac
 2333 0ccc 1D       		.uleb128 0x1d
 2334 0ccd 01       		.uleb128 0x1
 2335 0cce 50       		.byte	0x50
 2336 0ccf 02       		.uleb128 0x2
 2337 0cd0 91       		.byte	0x91
 2338 0cd1 64       		.sleb128 -28
 2339 0cd2 00       		.byte	0
 2340 0cd3 00       		.byte	0
 2341 0cd4 1A       		.uleb128 0x1a
 2342 0cd5 A2000000 		.4byte	.LBB5
 2343 0cd9 34000000 		.4byte	.LBE5-.LBB5
 2344 0cdd 0E0D0000 		.4byte	0xd0e
 2345 0ce1 23       		.uleb128 0x23
 2346 0ce2 B8030000 		.4byte	.LASF317
 2347 0ce6 01       		.byte	0x1
 2348 0ce7 A506     		.2byte	0x6a5
 2349 0ce9 BF0E0000 		.4byte	0xebf
 2350 0ced 11020000 		.4byte	.LLST7
 2351 0cf1 26       		.uleb128 0x26
 2352 0cf2 B0000000 		.4byte	.LBB6
 2353 0cf6 1A000000 		.4byte	.LBE6-.LBB6
 2354 0cfa 1B       		.uleb128 0x1b
 2355 0cfb A5170000 		.4byte	.LASF318
ARM GAS  C:\Users\Tymek\AppData\Local\Temp\ccJhKwfb.s 			page 81


 2356 0cff 01       		.byte	0x1
 2357 0d00 AC06     		.2byte	0x6ac
 2358 0d02 74090000 		.4byte	0x974
 2359 0d06 05       		.uleb128 0x5
 2360 0d07 03       		.byte	0x3
 2361 0d08 00000000 		.4byte	gPrepWriteReqMem.6683
 2362 0d0c 00       		.byte	0
 2363 0d0d 00       		.byte	0
 2364 0d0e 1A       		.uleb128 0x1a
 2365 0d0f EC000000 		.4byte	.LBB7
 2366 0d13 2A000000 		.4byte	.LBE7-.LBB7
 2367 0d17 540D0000 		.4byte	0xd54
 2368 0d1b 1B       		.uleb128 0x1b
 2369 0d1c C5000000 		.4byte	.LASF319
 2370 0d20 01       		.byte	0x1
 2371 0d21 CE06     		.2byte	0x6ce
 2372 0d23 6C030000 		.4byte	0x36c
 2373 0d27 02       		.uleb128 0x2
 2374 0d28 91       		.byte	0x91
 2375 0d29 64       		.sleb128 -28
 2376 0d2a 1E       		.uleb128 0x1e
 2377 0d2b F6000000 		.4byte	.LVL38
 2378 0d2f B80F0000 		.4byte	0xfb8
 2379 0d33 410D0000 		.4byte	0xd41
 2380 0d37 1D       		.uleb128 0x1d
 2381 0d38 01       		.uleb128 0x1
 2382 0d39 51       		.byte	0x51
 2383 0d3a 05       		.uleb128 0x5
 2384 0d3b 03       		.byte	0x3
 2385 0d3c 00000000 		.4byte	.LANCHOR1
 2386 0d40 00       		.byte	0
 2387 0d41 27       		.uleb128 0x27
 2388 0d42 08010000 		.4byte	.LVL39
 2389 0d46 1D       		.uleb128 0x1d
 2390 0d47 01       		.uleb128 0x1
 2391 0d48 50       		.byte	0x50
 2392 0d49 02       		.uleb128 0x2
 2393 0d4a 08       		.byte	0x8
 2394 0d4b 36       		.byte	0x36
 2395 0d4c 1D       		.uleb128 0x1d
 2396 0d4d 01       		.uleb128 0x1
 2397 0d4e 51       		.byte	0x51
 2398 0d4f 02       		.uleb128 0x2
 2399 0d50 91       		.byte	0x91
 2400 0d51 64       		.sleb128 -28
 2401 0d52 00       		.byte	0
 2402 0d53 00       		.byte	0
 2403 0d54 1A       		.uleb128 0x1a
 2404 0d55 A6010000 		.4byte	.LBB8
 2405 0d59 14000000 		.4byte	.LBE8-.LBB8
 2406 0d5d 7B0D0000 		.4byte	0xd7b
 2407 0d61 23       		.uleb128 0x23
 2408 0d62 35130000 		.4byte	.LASF320
 2409 0d66 01       		.byte	0x1
 2410 0d67 8B07     		.2byte	0x78b
 2411 0d69 77000000 		.4byte	0x77
 2412 0d6d 24020000 		.4byte	.LLST8
ARM GAS  C:\Users\Tymek\AppData\Local\Temp\ccJhKwfb.s 			page 82


 2413 0d71 1F       		.uleb128 0x1f
 2414 0d72 BA010000 		.4byte	.LVL51
 2415 0d76 C40F0000 		.4byte	0xfc4
 2416 0d7a 00       		.byte	0
 2417 0d7b 1E       		.uleb128 0x1e
 2418 0d7c 48000000 		.4byte	.LVL25
 2419 0d80 DC0B0000 		.4byte	0xbdc
 2420 0d84 8F0D0000 		.4byte	0xd8f
 2421 0d88 1D       		.uleb128 0x1d
 2422 0d89 01       		.uleb128 0x1
 2423 0d8a 50       		.byte	0x50
 2424 0d8b 02       		.uleb128 0x2
 2425 0d8c 76       		.byte	0x76
 2426 0d8d 00       		.sleb128 0
 2427 0d8e 00       		.byte	0
 2428 0d8f 1E       		.uleb128 0x1e
 2429 0d90 52000000 		.4byte	.LVL26
 2430 0d94 D00F0000 		.4byte	0xfd0
 2431 0d98 A30D0000 		.4byte	0xda3
 2432 0d9c 1D       		.uleb128 0x1d
 2433 0d9d 01       		.uleb128 0x1
 2434 0d9e 50       		.byte	0x50
 2435 0d9f 02       		.uleb128 0x2
 2436 0da0 76       		.byte	0x76
 2437 0da1 00       		.sleb128 0
 2438 0da2 00       		.byte	0
 2439 0da3 1E       		.uleb128 0x1e
 2440 0da4 5C000000 		.4byte	.LVL27
 2441 0da8 DC0F0000 		.4byte	0xfdc
 2442 0dac B60D0000 		.4byte	0xdb6
 2443 0db0 1D       		.uleb128 0x1d
 2444 0db1 01       		.uleb128 0x1
 2445 0db2 51       		.byte	0x51
 2446 0db3 01       		.uleb128 0x1
 2447 0db4 30       		.byte	0x30
 2448 0db5 00       		.byte	0
 2449 0db6 1E       		.uleb128 0x1e
 2450 0db7 64000000 		.4byte	.LVL28
 2451 0dbb DC0F0000 		.4byte	0xfdc
 2452 0dbf C90D0000 		.4byte	0xdc9
 2453 0dc3 1D       		.uleb128 0x1d
 2454 0dc4 01       		.uleb128 0x1
 2455 0dc5 51       		.byte	0x51
 2456 0dc6 01       		.uleb128 0x1
 2457 0dc7 31       		.byte	0x31
 2458 0dc8 00       		.byte	0
 2459 0dc9 1E       		.uleb128 0x1e
 2460 0dca 6E000000 		.4byte	.LVL29
 2461 0dce D00F0000 		.4byte	0xfd0
 2462 0dd2 DD0D0000 		.4byte	0xddd
 2463 0dd6 1D       		.uleb128 0x1d
 2464 0dd7 01       		.uleb128 0x1
 2465 0dd8 50       		.byte	0x50
 2466 0dd9 02       		.uleb128 0x2
 2467 0dda 76       		.byte	0x76
 2468 0ddb 00       		.sleb128 0
 2469 0ddc 00       		.byte	0
ARM GAS  C:\Users\Tymek\AppData\Local\Temp\ccJhKwfb.s 			page 83


 2470 0ddd 1E       		.uleb128 0x1e
 2471 0dde 76000000 		.4byte	.LVL30
 2472 0de2 DC0F0000 		.4byte	0xfdc
 2473 0de6 F60D0000 		.4byte	0xdf6
 2474 0dea 1D       		.uleb128 0x1d
 2475 0deb 01       		.uleb128 0x1
 2476 0dec 50       		.byte	0x50
 2477 0ded 02       		.uleb128 0x2
 2478 0dee 76       		.byte	0x76
 2479 0def 00       		.sleb128 0
 2480 0df0 1D       		.uleb128 0x1d
 2481 0df1 01       		.uleb128 0x1
 2482 0df2 51       		.byte	0x51
 2483 0df3 01       		.uleb128 0x1
 2484 0df4 30       		.byte	0x30
 2485 0df5 00       		.byte	0
 2486 0df6 1E       		.uleb128 0x1e
 2487 0df7 7E000000 		.4byte	.LVL31
 2488 0dfb DC0F0000 		.4byte	0xfdc
 2489 0dff 0F0E0000 		.4byte	0xe0f
 2490 0e03 1D       		.uleb128 0x1d
 2491 0e04 01       		.uleb128 0x1
 2492 0e05 50       		.byte	0x50
 2493 0e06 02       		.uleb128 0x2
 2494 0e07 76       		.byte	0x76
 2495 0e08 00       		.sleb128 0
 2496 0e09 1D       		.uleb128 0x1d
 2497 0e0a 01       		.uleb128 0x1
 2498 0e0b 51       		.byte	0x51
 2499 0e0c 01       		.uleb128 0x1
 2500 0e0d 31       		.byte	0x31
 2501 0e0e 00       		.byte	0
 2502 0e0f 1E       		.uleb128 0x1e
 2503 0e10 84000000 		.4byte	.LVL32
 2504 0e14 E80F0000 		.4byte	0xfe8
 2505 0e18 220E0000 		.4byte	0xe22
 2506 0e1c 1D       		.uleb128 0x1d
 2507 0e1d 01       		.uleb128 0x1
 2508 0e1e 50       		.byte	0x50
 2509 0e1f 01       		.uleb128 0x1
 2510 0e20 33       		.byte	0x33
 2511 0e21 00       		.byte	0
 2512 0e22 1E       		.uleb128 0x1e
 2513 0e23 82010000 		.4byte	.LVL42
 2514 0e27 F40F0000 		.4byte	0xff4
 2515 0e2b 350E0000 		.4byte	0xe35
 2516 0e2f 1D       		.uleb128 0x1d
 2517 0e30 01       		.uleb128 0x1
 2518 0e31 50       		.byte	0x50
 2519 0e32 01       		.uleb128 0x1
 2520 0e33 31       		.byte	0x31
 2521 0e34 00       		.byte	0
 2522 0e35 1E       		.uleb128 0x1e
 2523 0e36 98010000 		.4byte	.LVL45
 2524 0e3a 00100000 		.4byte	0x1000
 2525 0e3e 570E0000 		.4byte	0xe57
 2526 0e42 1D       		.uleb128 0x1d
ARM GAS  C:\Users\Tymek\AppData\Local\Temp\ccJhKwfb.s 			page 84


 2527 0e43 01       		.uleb128 0x1
 2528 0e44 50       		.byte	0x50
 2529 0e45 05       		.uleb128 0x5
 2530 0e46 03       		.byte	0x3
 2531 0e47 00000000 		.4byte	cyBle_connHandle
 2532 0e4b 1D       		.uleb128 0x1d
 2533 0e4c 01       		.uleb128 0x1
 2534 0e4d 51       		.byte	0x51
 2535 0e4e 02       		.uleb128 0x2
 2536 0e4f 74       		.byte	0x74
 2537 0e50 00       		.sleb128 0
 2538 0e51 1D       		.uleb128 0x1d
 2539 0e52 01       		.uleb128 0x1
 2540 0e53 52       		.byte	0x52
 2541 0e54 01       		.uleb128 0x1
 2542 0e55 32       		.byte	0x32
 2543 0e56 00       		.byte	0
 2544 0e57 1F       		.uleb128 0x1f
 2545 0e58 A4010000 		.4byte	.LVL47
 2546 0e5c 320B0000 		.4byte	0xb32
 2547 0e60 1E       		.uleb128 0x1e
 2548 0e61 C2010000 		.4byte	.LVL54
 2549 0e65 440B0000 		.4byte	0xb44
 2550 0e69 740E0000 		.4byte	0xe74
 2551 0e6d 1D       		.uleb128 0x1d
 2552 0e6e 01       		.uleb128 0x1
 2553 0e6f 50       		.byte	0x50
 2554 0e70 02       		.uleb128 0x2
 2555 0e71 74       		.byte	0x74
 2556 0e72 00       		.sleb128 0
 2557 0e73 00       		.byte	0
 2558 0e74 1E       		.uleb128 0x1e
 2559 0e75 D2010000 		.4byte	.LVL57
 2560 0e79 09100000 		.4byte	0x1009
 2561 0e7d 880E0000 		.4byte	0xe88
 2562 0e81 1D       		.uleb128 0x1d
 2563 0e82 01       		.uleb128 0x1
 2564 0e83 50       		.byte	0x50
 2565 0e84 02       		.uleb128 0x2
 2566 0e85 74       		.byte	0x74
 2567 0e86 00       		.sleb128 0
 2568 0e87 00       		.byte	0
 2569 0e88 1E       		.uleb128 0x1e
 2570 0e89 DA010000 		.4byte	.LVL60
 2571 0e8d 14100000 		.4byte	0x1014
 2572 0e91 9C0E0000 		.4byte	0xe9c
 2573 0e95 1D       		.uleb128 0x1d
 2574 0e96 01       		.uleb128 0x1
 2575 0e97 50       		.byte	0x50
 2576 0e98 02       		.uleb128 0x2
 2577 0e99 74       		.byte	0x74
 2578 0e9a 00       		.sleb128 0
 2579 0e9b 00       		.byte	0
 2580 0e9c 27       		.uleb128 0x27
 2581 0e9d F8010000 		.4byte	.LVL61
 2582 0ea1 1D       		.uleb128 0x1d
 2583 0ea2 01       		.uleb128 0x1
ARM GAS  C:\Users\Tymek\AppData\Local\Temp\ccJhKwfb.s 			page 85


 2584 0ea3 50       		.byte	0x50
 2585 0ea4 02       		.uleb128 0x2
 2586 0ea5 75       		.byte	0x75
 2587 0ea6 00       		.sleb128 0
 2588 0ea7 1D       		.uleb128 0x1d
 2589 0ea8 01       		.uleb128 0x1
 2590 0ea9 51       		.byte	0x51
 2591 0eaa 02       		.uleb128 0x2
 2592 0eab 74       		.byte	0x74
 2593 0eac 00       		.sleb128 0
 2594 0ead 00       		.byte	0
 2595 0eae 00       		.byte	0
 2596 0eaf 0F       		.uleb128 0xf
 2597 0eb0 6B000000 		.4byte	0x6b
 2598 0eb4 BF0E0000 		.4byte	0xebf
 2599 0eb8 10       		.uleb128 0x10
 2600 0eb9 B0000000 		.4byte	0xb0
 2601 0ebd 01       		.byte	0x1
 2602 0ebe 00       		.byte	0
 2603 0ebf 07       		.uleb128 0x7
 2604 0ec0 04       		.byte	0x4
 2605 0ec1 7B040000 		.4byte	0x47b
 2606 0ec5 28       		.uleb128 0x28
 2607 0ec6 F91C0000 		.4byte	.LASF321
 2608 0eca 08       		.byte	0x8
 2609 0ecb 9C02     		.2byte	0x29c
 2610 0ecd 8A0A0000 		.4byte	0xa8a
 2611 0ed1 28       		.uleb128 0x28
 2612 0ed2 06210000 		.4byte	.LASF322
 2613 0ed6 08       		.byte	0x8
 2614 0ed7 9F02     		.2byte	0x29f
 2615 0ed9 C7040000 		.4byte	0x4c7
 2616 0edd 29       		.uleb128 0x29
 2617 0ede FD0C0000 		.4byte	.LASF323
 2618 0ee2 01       		.byte	0x1
 2619 0ee3 3D       		.byte	0x3d
 2620 0ee4 A4000000 		.4byte	0xa4
 2621 0ee8 05       		.uleb128 0x5
 2622 0ee9 03       		.byte	0x3
 2623 0eea 00000000 		.4byte	cyBle_eventHandlerFlag
 2624 0eee 28       		.uleb128 0x28
 2625 0eef A4070000 		.4byte	.LASF324
 2626 0ef3 08       		.byte	0x8
 2627 0ef4 A402     		.2byte	0x2a4
 2628 0ef6 BB040000 		.4byte	0x4bb
 2629 0efa 28       		.uleb128 0x28
 2630 0efb D00E0000 		.4byte	.LASF325
 2631 0eff 08       		.byte	0x8
 2632 0f00 A502     		.2byte	0x2a5
 2633 0f02 060F0000 		.4byte	0xf06
 2634 0f06 07       		.uleb128 0x7
 2635 0f07 04       		.byte	0x4
 2636 0f08 BB040000 		.4byte	0x4bb
 2637 0f0c 29       		.uleb128 0x29
 2638 0f0d 381F0000 		.4byte	.LASF326
 2639 0f11 01       		.byte	0x1
 2640 0f12 E1       		.byte	0xe1
ARM GAS  C:\Users\Tymek\AppData\Local\Temp\ccJhKwfb.s 			page 86


 2641 0f13 26060000 		.4byte	0x626
 2642 0f17 05       		.uleb128 0x5
 2643 0f18 03       		.byte	0x3
 2644 0f19 00000000 		.4byte	cyBle_authInfo
 2645 0f1d 28       		.uleb128 0x28
 2646 0f1e 781E0000 		.4byte	.LASF327
 2647 0f22 09       		.byte	0x9
 2648 0f23 B30A     		.2byte	0xab3
 2649 0f25 C20A0000 		.4byte	0xac2
 2650 0f29 29       		.uleb128 0x29
 2651 0f2a F30D0000 		.4byte	.LASF328
 2652 0f2e 01       		.byte	0x1
 2653 0f2f 3B       		.byte	0x3b
 2654 0f30 6A080000 		.4byte	0x86a
 2655 0f34 05       		.uleb128 0x5
 2656 0f35 03       		.byte	0x3
 2657 0f36 00000000 		.4byte	cyBle_connHandle
 2658 0f3a 29       		.uleb128 0x29
 2659 0f3b EF120000 		.4byte	.LASF329
 2660 0f3f 01       		.byte	0x1
 2661 0f40 3E       		.byte	0x3e
 2662 0f41 A4000000 		.4byte	0xa4
 2663 0f45 05       		.uleb128 0x5
 2664 0f46 03       		.byte	0x3
 2665 0f47 00000000 		.4byte	cyBle_busyStatus
 2666 0f4b 29       		.uleb128 0x29
 2667 0f4c E80D0000 		.4byte	.LASF330
 2668 0f50 01       		.byte	0x1
 2669 0f51 40       		.byte	0x40
 2670 0f52 5C0F0000 		.4byte	0xf5c
 2671 0f56 05       		.uleb128 0x5
 2672 0f57 03       		.byte	0x3
 2673 0f58 00000000 		.4byte	cyBle_gaps
 2674 0f5c 24       		.uleb128 0x24
 2675 0f5d 260B0000 		.4byte	0xb26
 2676 0f61 29       		.uleb128 0x29
 2677 0f62 1B210000 		.4byte	.LASF331
 2678 0f66 01       		.byte	0x1
 2679 0f67 4C       		.byte	0x4c
 2680 0f68 6B000000 		.4byte	0x6b
 2681 0f6c 05       		.uleb128 0x5
 2682 0f6d 03       		.byte	0x3
 2683 0f6e 00000000 		.4byte	cyBle_advertisingIntervalType
 2684 0f72 2A       		.uleb128 0x2a
 2685 0f73 A6210000 		.4byte	.LASF332
 2686 0f77 A6210000 		.4byte	.LASF332
 2687 0f7b 07       		.byte	0x7
 2688 0f7c 4001     		.2byte	0x140
 2689 0f7e 2B       		.uleb128 0x2b
 2690 0f7f CC170000 		.4byte	.LASF333
 2691 0f83 CC170000 		.4byte	.LASF333
 2692 0f87 0A       		.byte	0xa
 2693 0f88 D4       		.byte	0xd4
 2694 0f89 2B       		.uleb128 0x2b
 2695 0f8a E1010000 		.4byte	.LASF334
 2696 0f8e E1010000 		.4byte	.LASF334
 2697 0f92 0B       		.byte	0xb
ARM GAS  C:\Users\Tymek\AppData\Local\Temp\ccJhKwfb.s 			page 87


 2698 0f93 55       		.byte	0x55
 2699 0f94 2A       		.uleb128 0x2a
 2700 0f95 C0050000 		.4byte	.LASF335
 2701 0f99 C0050000 		.4byte	.LASF335
 2702 0f9d 07       		.byte	0x7
 2703 0f9e C201     		.2byte	0x1c2
 2704 0fa0 2A       		.uleb128 0x2a
 2705 0fa1 5F060000 		.4byte	.LASF336
 2706 0fa5 5F060000 		.4byte	.LASF336
 2707 0fa9 03       		.byte	0x3
 2708 0faa 7108     		.2byte	0x871
 2709 0fac 2A       		.uleb128 0x2a
 2710 0fad 7D140000 		.4byte	.LASF337
 2711 0fb1 7D140000 		.4byte	.LASF337
 2712 0fb5 05       		.byte	0x5
 2713 0fb6 2B0D     		.2byte	0xd2b
 2714 0fb8 2A       		.uleb128 0x2a
 2715 0fb9 30140000 		.4byte	.LASF338
 2716 0fbd 30140000 		.4byte	.LASF338
 2717 0fc1 05       		.byte	0x5
 2718 0fc2 7808     		.2byte	0x878
 2719 0fc4 2A       		.uleb128 0x2a
 2720 0fc5 310F0000 		.4byte	.LASF339
 2721 0fc9 310F0000 		.4byte	.LASF339
 2722 0fcd 07       		.byte	0x7
 2723 0fce 7C01     		.2byte	0x17c
 2724 0fd0 2A       		.uleb128 0x2a
 2725 0fd1 73000000 		.4byte	.LASF340
 2726 0fd5 73000000 		.4byte	.LASF340
 2727 0fd9 03       		.byte	0x3
 2728 0fda F207     		.2byte	0x7f2
 2729 0fdc 2A       		.uleb128 0x2a
 2730 0fdd 00130000 		.4byte	.LASF341
 2731 0fe1 00130000 		.4byte	.LASF341
 2732 0fe5 08       		.byte	0x8
 2733 0fe6 8202     		.2byte	0x282
 2734 0fe8 2A       		.uleb128 0x2a
 2735 0fe9 B3000000 		.4byte	.LASF342
 2736 0fed B3000000 		.4byte	.LASF342
 2737 0ff1 05       		.byte	0x5
 2738 0ff2 DB04     		.2byte	0x4db
 2739 0ff4 2A       		.uleb128 0x2a
 2740 0ff5 DD0A0000 		.4byte	.LASF343
 2741 0ff9 DD0A0000 		.4byte	.LASF343
 2742 0ffd 08       		.byte	0x8
 2743 0ffe 8002     		.2byte	0x280
 2744 1000 2C       		.uleb128 0x2c
 2745 1001 FF210000 		.4byte	.LASF353
 2746 1005 FF210000 		.4byte	.LASF353
 2747 1009 2B       		.uleb128 0x2b
 2748 100a 1B000000 		.4byte	.LASF344
 2749 100e 1B000000 		.4byte	.LASF344
 2750 1012 0B       		.byte	0xb
 2751 1013 57       		.byte	0x57
 2752 1014 2B       		.uleb128 0x2b
 2753 1015 0C250000 		.4byte	.LASF345
 2754 1019 0C250000 		.4byte	.LASF345
ARM GAS  C:\Users\Tymek\AppData\Local\Temp\ccJhKwfb.s 			page 88


 2755 101d 0B       		.byte	0xb
 2756 101e 56       		.byte	0x56
 2757 101f 00       		.byte	0
 2758              		.section	.debug_abbrev,"",%progbits
 2759              	.Ldebug_abbrev0:
 2760 0000 01       		.uleb128 0x1
 2761 0001 11       		.uleb128 0x11
 2762 0002 01       		.byte	0x1
 2763 0003 25       		.uleb128 0x25
 2764 0004 0E       		.uleb128 0xe
 2765 0005 13       		.uleb128 0x13
 2766 0006 0B       		.uleb128 0xb
 2767 0007 03       		.uleb128 0x3
 2768 0008 0E       		.uleb128 0xe
 2769 0009 1B       		.uleb128 0x1b
 2770 000a 0E       		.uleb128 0xe
 2771 000b 55       		.uleb128 0x55
 2772 000c 17       		.uleb128 0x17
 2773 000d 11       		.uleb128 0x11
 2774 000e 01       		.uleb128 0x1
 2775 000f 10       		.uleb128 0x10
 2776 0010 17       		.uleb128 0x17
 2777 0011 00       		.byte	0
 2778 0012 00       		.byte	0
 2779 0013 02       		.uleb128 0x2
 2780 0014 24       		.uleb128 0x24
 2781 0015 00       		.byte	0
 2782 0016 0B       		.uleb128 0xb
 2783 0017 0B       		.uleb128 0xb
 2784 0018 3E       		.uleb128 0x3e
 2785 0019 0B       		.uleb128 0xb
 2786 001a 03       		.uleb128 0x3
 2787 001b 0E       		.uleb128 0xe
 2788 001c 00       		.byte	0
 2789 001d 00       		.byte	0
 2790 001e 03       		.uleb128 0x3
 2791 001f 24       		.uleb128 0x24
 2792 0020 00       		.byte	0
 2793 0021 0B       		.uleb128 0xb
 2794 0022 0B       		.uleb128 0xb
 2795 0023 3E       		.uleb128 0x3e
 2796 0024 0B       		.uleb128 0xb
 2797 0025 03       		.uleb128 0x3
 2798 0026 08       		.uleb128 0x8
 2799 0027 00       		.byte	0
 2800 0028 00       		.byte	0
 2801 0029 04       		.uleb128 0x4
 2802 002a 16       		.uleb128 0x16
 2803 002b 00       		.byte	0
 2804 002c 03       		.uleb128 0x3
 2805 002d 0E       		.uleb128 0xe
 2806 002e 3A       		.uleb128 0x3a
 2807 002f 0B       		.uleb128 0xb
 2808 0030 3B       		.uleb128 0x3b
 2809 0031 05       		.uleb128 0x5
 2810 0032 49       		.uleb128 0x49
 2811 0033 13       		.uleb128 0x13
ARM GAS  C:\Users\Tymek\AppData\Local\Temp\ccJhKwfb.s 			page 89


 2812 0034 00       		.byte	0
 2813 0035 00       		.byte	0
 2814 0036 05       		.uleb128 0x5
 2815 0037 35       		.uleb128 0x35
 2816 0038 00       		.byte	0
 2817 0039 49       		.uleb128 0x49
 2818 003a 13       		.uleb128 0x13
 2819 003b 00       		.byte	0
 2820 003c 00       		.byte	0
 2821 003d 06       		.uleb128 0x6
 2822 003e 0F       		.uleb128 0xf
 2823 003f 00       		.byte	0
 2824 0040 0B       		.uleb128 0xb
 2825 0041 0B       		.uleb128 0xb
 2826 0042 00       		.byte	0
 2827 0043 00       		.byte	0
 2828 0044 07       		.uleb128 0x7
 2829 0045 0F       		.uleb128 0xf
 2830 0046 00       		.byte	0
 2831 0047 0B       		.uleb128 0xb
 2832 0048 0B       		.uleb128 0xb
 2833 0049 49       		.uleb128 0x49
 2834 004a 13       		.uleb128 0x13
 2835 004b 00       		.byte	0
 2836 004c 00       		.byte	0
 2837 004d 08       		.uleb128 0x8
 2838 004e 15       		.uleb128 0x15
 2839 004f 01       		.byte	0x1
 2840 0050 27       		.uleb128 0x27
 2841 0051 19       		.uleb128 0x19
 2842 0052 01       		.uleb128 0x1
 2843 0053 13       		.uleb128 0x13
 2844 0054 00       		.byte	0
 2845 0055 00       		.byte	0
 2846 0056 09       		.uleb128 0x9
 2847 0057 05       		.uleb128 0x5
 2848 0058 00       		.byte	0
 2849 0059 49       		.uleb128 0x49
 2850 005a 13       		.uleb128 0x13
 2851 005b 00       		.byte	0
 2852 005c 00       		.byte	0
 2853 005d 0A       		.uleb128 0xa
 2854 005e 04       		.uleb128 0x4
 2855 005f 01       		.byte	0x1
 2856 0060 0B       		.uleb128 0xb
 2857 0061 0B       		.uleb128 0xb
 2858 0062 49       		.uleb128 0x49
 2859 0063 13       		.uleb128 0x13
 2860 0064 3A       		.uleb128 0x3a
 2861 0065 0B       		.uleb128 0xb
 2862 0066 3B       		.uleb128 0x3b
 2863 0067 05       		.uleb128 0x5
 2864 0068 01       		.uleb128 0x1
 2865 0069 13       		.uleb128 0x13
 2866 006a 00       		.byte	0
 2867 006b 00       		.byte	0
 2868 006c 0B       		.uleb128 0xb
ARM GAS  C:\Users\Tymek\AppData\Local\Temp\ccJhKwfb.s 			page 90


 2869 006d 28       		.uleb128 0x28
 2870 006e 00       		.byte	0
 2871 006f 03       		.uleb128 0x3
 2872 0070 0E       		.uleb128 0xe
 2873 0071 1C       		.uleb128 0x1c
 2874 0072 0B       		.uleb128 0xb
 2875 0073 00       		.byte	0
 2876 0074 00       		.byte	0
 2877 0075 0C       		.uleb128 0xc
 2878 0076 28       		.uleb128 0x28
 2879 0077 00       		.byte	0
 2880 0078 03       		.uleb128 0x3
 2881 0079 0E       		.uleb128 0xe
 2882 007a 1C       		.uleb128 0x1c
 2883 007b 05       		.uleb128 0x5
 2884 007c 00       		.byte	0
 2885 007d 00       		.byte	0
 2886 007e 0D       		.uleb128 0xd
 2887 007f 13       		.uleb128 0x13
 2888 0080 01       		.byte	0x1
 2889 0081 0B       		.uleb128 0xb
 2890 0082 0B       		.uleb128 0xb
 2891 0083 3A       		.uleb128 0x3a
 2892 0084 0B       		.uleb128 0xb
 2893 0085 3B       		.uleb128 0x3b
 2894 0086 05       		.uleb128 0x5
 2895 0087 01       		.uleb128 0x1
 2896 0088 13       		.uleb128 0x13
 2897 0089 00       		.byte	0
 2898 008a 00       		.byte	0
 2899 008b 0E       		.uleb128 0xe
 2900 008c 0D       		.uleb128 0xd
 2901 008d 00       		.byte	0
 2902 008e 03       		.uleb128 0x3
 2903 008f 0E       		.uleb128 0xe
 2904 0090 3A       		.uleb128 0x3a
 2905 0091 0B       		.uleb128 0xb
 2906 0092 3B       		.uleb128 0x3b
 2907 0093 05       		.uleb128 0x5
 2908 0094 49       		.uleb128 0x49
 2909 0095 13       		.uleb128 0x13
 2910 0096 38       		.uleb128 0x38
 2911 0097 0B       		.uleb128 0xb
 2912 0098 00       		.byte	0
 2913 0099 00       		.byte	0
 2914 009a 0F       		.uleb128 0xf
 2915 009b 01       		.uleb128 0x1
 2916 009c 01       		.byte	0x1
 2917 009d 49       		.uleb128 0x49
 2918 009e 13       		.uleb128 0x13
 2919 009f 01       		.uleb128 0x1
 2920 00a0 13       		.uleb128 0x13
 2921 00a1 00       		.byte	0
 2922 00a2 00       		.byte	0
 2923 00a3 10       		.uleb128 0x10
 2924 00a4 21       		.uleb128 0x21
 2925 00a5 00       		.byte	0
ARM GAS  C:\Users\Tymek\AppData\Local\Temp\ccJhKwfb.s 			page 91


 2926 00a6 49       		.uleb128 0x49
 2927 00a7 13       		.uleb128 0x13
 2928 00a8 2F       		.uleb128 0x2f
 2929 00a9 0B       		.uleb128 0xb
 2930 00aa 00       		.byte	0
 2931 00ab 00       		.byte	0
 2932 00ac 11       		.uleb128 0x11
 2933 00ad 04       		.uleb128 0x4
 2934 00ae 01       		.byte	0x1
 2935 00af 0B       		.uleb128 0xb
 2936 00b0 0B       		.uleb128 0xb
 2937 00b1 49       		.uleb128 0x49
 2938 00b2 13       		.uleb128 0x13
 2939 00b3 3A       		.uleb128 0x3a
 2940 00b4 0B       		.uleb128 0xb
 2941 00b5 3B       		.uleb128 0x3b
 2942 00b6 0B       		.uleb128 0xb
 2943 00b7 01       		.uleb128 0x1
 2944 00b8 13       		.uleb128 0x13
 2945 00b9 00       		.byte	0
 2946 00ba 00       		.byte	0
 2947 00bb 12       		.uleb128 0x12
 2948 00bc 16       		.uleb128 0x16
 2949 00bd 00       		.byte	0
 2950 00be 03       		.uleb128 0x3
 2951 00bf 0E       		.uleb128 0xe
 2952 00c0 3A       		.uleb128 0x3a
 2953 00c1 0B       		.uleb128 0xb
 2954 00c2 3B       		.uleb128 0x3b
 2955 00c3 0B       		.uleb128 0xb
 2956 00c4 49       		.uleb128 0x49
 2957 00c5 13       		.uleb128 0x13
 2958 00c6 00       		.byte	0
 2959 00c7 00       		.byte	0
 2960 00c8 13       		.uleb128 0x13
 2961 00c9 0D       		.uleb128 0xd
 2962 00ca 00       		.byte	0
 2963 00cb 03       		.uleb128 0x3
 2964 00cc 08       		.uleb128 0x8
 2965 00cd 3A       		.uleb128 0x3a
 2966 00ce 0B       		.uleb128 0xb
 2967 00cf 3B       		.uleb128 0x3b
 2968 00d0 05       		.uleb128 0x5
 2969 00d1 49       		.uleb128 0x49
 2970 00d2 13       		.uleb128 0x13
 2971 00d3 38       		.uleb128 0x38
 2972 00d4 0B       		.uleb128 0xb
 2973 00d5 00       		.byte	0
 2974 00d6 00       		.byte	0
 2975 00d7 14       		.uleb128 0x14
 2976 00d8 13       		.uleb128 0x13
 2977 00d9 01       		.byte	0x1
 2978 00da 0B       		.uleb128 0xb
 2979 00db 0B       		.uleb128 0xb
 2980 00dc 3A       		.uleb128 0x3a
 2981 00dd 0B       		.uleb128 0xb
 2982 00de 3B       		.uleb128 0x3b
ARM GAS  C:\Users\Tymek\AppData\Local\Temp\ccJhKwfb.s 			page 92


 2983 00df 0B       		.uleb128 0xb
 2984 00e0 01       		.uleb128 0x1
 2985 00e1 13       		.uleb128 0x13
 2986 00e2 00       		.byte	0
 2987 00e3 00       		.byte	0
 2988 00e4 15       		.uleb128 0x15
 2989 00e5 0D       		.uleb128 0xd
 2990 00e6 00       		.byte	0
 2991 00e7 03       		.uleb128 0x3
 2992 00e8 0E       		.uleb128 0xe
 2993 00e9 3A       		.uleb128 0x3a
 2994 00ea 0B       		.uleb128 0xb
 2995 00eb 3B       		.uleb128 0x3b
 2996 00ec 0B       		.uleb128 0xb
 2997 00ed 49       		.uleb128 0x49
 2998 00ee 13       		.uleb128 0x13
 2999 00ef 38       		.uleb128 0x38
 3000 00f0 0B       		.uleb128 0xb
 3001 00f1 00       		.byte	0
 3002 00f2 00       		.byte	0
 3003 00f3 16       		.uleb128 0x16
 3004 00f4 2E       		.uleb128 0x2e
 3005 00f5 00       		.byte	0
 3006 00f6 03       		.uleb128 0x3
 3007 00f7 0E       		.uleb128 0xe
 3008 00f8 3A       		.uleb128 0x3a
 3009 00f9 0B       		.uleb128 0xb
 3010 00fa 3B       		.uleb128 0x3b
 3011 00fb 05       		.uleb128 0x5
 3012 00fc 27       		.uleb128 0x27
 3013 00fd 19       		.uleb128 0x19
 3014 00fe 11       		.uleb128 0x11
 3015 00ff 01       		.uleb128 0x1
 3016 0100 12       		.uleb128 0x12
 3017 0101 06       		.uleb128 0x6
 3018 0102 40       		.uleb128 0x40
 3019 0103 18       		.uleb128 0x18
 3020 0104 9742     		.uleb128 0x2117
 3021 0106 19       		.uleb128 0x19
 3022 0107 00       		.byte	0
 3023 0108 00       		.byte	0
 3024 0109 17       		.uleb128 0x17
 3025 010a 2E       		.uleb128 0x2e
 3026 010b 01       		.byte	0x1
 3027 010c 03       		.uleb128 0x3
 3028 010d 0E       		.uleb128 0xe
 3029 010e 3A       		.uleb128 0x3a
 3030 010f 0B       		.uleb128 0xb
 3031 0110 3B       		.uleb128 0x3b
 3032 0111 0B       		.uleb128 0xb
 3033 0112 27       		.uleb128 0x27
 3034 0113 19       		.uleb128 0x19
 3035 0114 11       		.uleb128 0x11
 3036 0115 01       		.uleb128 0x1
 3037 0116 12       		.uleb128 0x12
 3038 0117 06       		.uleb128 0x6
 3039 0118 40       		.uleb128 0x40
ARM GAS  C:\Users\Tymek\AppData\Local\Temp\ccJhKwfb.s 			page 93


 3040 0119 18       		.uleb128 0x18
 3041 011a 9742     		.uleb128 0x2117
 3042 011c 19       		.uleb128 0x19
 3043 011d 01       		.uleb128 0x1
 3044 011e 13       		.uleb128 0x13
 3045 011f 00       		.byte	0
 3046 0120 00       		.byte	0
 3047 0121 18       		.uleb128 0x18
 3048 0122 05       		.uleb128 0x5
 3049 0123 00       		.byte	0
 3050 0124 03       		.uleb128 0x3
 3051 0125 0E       		.uleb128 0xe
 3052 0126 3A       		.uleb128 0x3a
 3053 0127 0B       		.uleb128 0xb
 3054 0128 3B       		.uleb128 0x3b
 3055 0129 0B       		.uleb128 0xb
 3056 012a 49       		.uleb128 0x49
 3057 012b 13       		.uleb128 0x13
 3058 012c 02       		.uleb128 0x2
 3059 012d 17       		.uleb128 0x17
 3060 012e 00       		.byte	0
 3061 012f 00       		.byte	0
 3062 0130 19       		.uleb128 0x19
 3063 0131 34       		.uleb128 0x34
 3064 0132 00       		.byte	0
 3065 0133 03       		.uleb128 0x3
 3066 0134 0E       		.uleb128 0xe
 3067 0135 3A       		.uleb128 0x3a
 3068 0136 0B       		.uleb128 0xb
 3069 0137 3B       		.uleb128 0x3b
 3070 0138 0B       		.uleb128 0xb
 3071 0139 49       		.uleb128 0x49
 3072 013a 13       		.uleb128 0x13
 3073 013b 02       		.uleb128 0x2
 3074 013c 17       		.uleb128 0x17
 3075 013d 00       		.byte	0
 3076 013e 00       		.byte	0
 3077 013f 1A       		.uleb128 0x1a
 3078 0140 0B       		.uleb128 0xb
 3079 0141 01       		.byte	0x1
 3080 0142 11       		.uleb128 0x11
 3081 0143 01       		.uleb128 0x1
 3082 0144 12       		.uleb128 0x12
 3083 0145 06       		.uleb128 0x6
 3084 0146 01       		.uleb128 0x1
 3085 0147 13       		.uleb128 0x13
 3086 0148 00       		.byte	0
 3087 0149 00       		.byte	0
 3088 014a 1B       		.uleb128 0x1b
 3089 014b 34       		.uleb128 0x34
 3090 014c 00       		.byte	0
 3091 014d 03       		.uleb128 0x3
 3092 014e 0E       		.uleb128 0xe
 3093 014f 3A       		.uleb128 0x3a
 3094 0150 0B       		.uleb128 0xb
 3095 0151 3B       		.uleb128 0x3b
 3096 0152 05       		.uleb128 0x5
ARM GAS  C:\Users\Tymek\AppData\Local\Temp\ccJhKwfb.s 			page 94


 3097 0153 49       		.uleb128 0x49
 3098 0154 13       		.uleb128 0x13
 3099 0155 02       		.uleb128 0x2
 3100 0156 18       		.uleb128 0x18
 3101 0157 00       		.byte	0
 3102 0158 00       		.byte	0
 3103 0159 1C       		.uleb128 0x1c
 3104 015a 898201   		.uleb128 0x4109
 3105 015d 01       		.byte	0x1
 3106 015e 11       		.uleb128 0x11
 3107 015f 01       		.uleb128 0x1
 3108 0160 31       		.uleb128 0x31
 3109 0161 13       		.uleb128 0x13
 3110 0162 00       		.byte	0
 3111 0163 00       		.byte	0
 3112 0164 1D       		.uleb128 0x1d
 3113 0165 8A8201   		.uleb128 0x410a
 3114 0168 00       		.byte	0
 3115 0169 02       		.uleb128 0x2
 3116 016a 18       		.uleb128 0x18
 3117 016b 9142     		.uleb128 0x2111
 3118 016d 18       		.uleb128 0x18
 3119 016e 00       		.byte	0
 3120 016f 00       		.byte	0
 3121 0170 1E       		.uleb128 0x1e
 3122 0171 898201   		.uleb128 0x4109
 3123 0174 01       		.byte	0x1
 3124 0175 11       		.uleb128 0x11
 3125 0176 01       		.uleb128 0x1
 3126 0177 31       		.uleb128 0x31
 3127 0178 13       		.uleb128 0x13
 3128 0179 01       		.uleb128 0x1
 3129 017a 13       		.uleb128 0x13
 3130 017b 00       		.byte	0
 3131 017c 00       		.byte	0
 3132 017d 1F       		.uleb128 0x1f
 3133 017e 898201   		.uleb128 0x4109
 3134 0181 00       		.byte	0
 3135 0182 11       		.uleb128 0x11
 3136 0183 01       		.uleb128 0x1
 3137 0184 31       		.uleb128 0x31
 3138 0185 13       		.uleb128 0x13
 3139 0186 00       		.byte	0
 3140 0187 00       		.byte	0
 3141 0188 20       		.uleb128 0x20
 3142 0189 2E       		.uleb128 0x2e
 3143 018a 01       		.byte	0x1
 3144 018b 3F       		.uleb128 0x3f
 3145 018c 19       		.uleb128 0x19
 3146 018d 03       		.uleb128 0x3
 3147 018e 0E       		.uleb128 0xe
 3148 018f 3A       		.uleb128 0x3a
 3149 0190 0B       		.uleb128 0xb
 3150 0191 3B       		.uleb128 0x3b
 3151 0192 05       		.uleb128 0x5
 3152 0193 27       		.uleb128 0x27
 3153 0194 19       		.uleb128 0x19
ARM GAS  C:\Users\Tymek\AppData\Local\Temp\ccJhKwfb.s 			page 95


 3154 0195 49       		.uleb128 0x49
 3155 0196 13       		.uleb128 0x13
 3156 0197 11       		.uleb128 0x11
 3157 0198 01       		.uleb128 0x1
 3158 0199 12       		.uleb128 0x12
 3159 019a 06       		.uleb128 0x6
 3160 019b 40       		.uleb128 0x40
 3161 019c 18       		.uleb128 0x18
 3162 019d 9742     		.uleb128 0x2117
 3163 019f 19       		.uleb128 0x19
 3164 01a0 01       		.uleb128 0x1
 3165 01a1 13       		.uleb128 0x13
 3166 01a2 00       		.byte	0
 3167 01a3 00       		.byte	0
 3168 01a4 21       		.uleb128 0x21
 3169 01a5 05       		.uleb128 0x5
 3170 01a6 00       		.byte	0
 3171 01a7 03       		.uleb128 0x3
 3172 01a8 0E       		.uleb128 0xe
 3173 01a9 3A       		.uleb128 0x3a
 3174 01aa 0B       		.uleb128 0xb
 3175 01ab 3B       		.uleb128 0x3b
 3176 01ac 05       		.uleb128 0x5
 3177 01ad 49       		.uleb128 0x49
 3178 01ae 13       		.uleb128 0x13
 3179 01af 02       		.uleb128 0x2
 3180 01b0 17       		.uleb128 0x17
 3181 01b1 00       		.byte	0
 3182 01b2 00       		.byte	0
 3183 01b3 22       		.uleb128 0x22
 3184 01b4 34       		.uleb128 0x34
 3185 01b5 00       		.byte	0
 3186 01b6 03       		.uleb128 0x3
 3187 01b7 08       		.uleb128 0x8
 3188 01b8 3A       		.uleb128 0x3a
 3189 01b9 0B       		.uleb128 0xb
 3190 01ba 3B       		.uleb128 0x3b
 3191 01bb 05       		.uleb128 0x5
 3192 01bc 49       		.uleb128 0x49
 3193 01bd 13       		.uleb128 0x13
 3194 01be 02       		.uleb128 0x2
 3195 01bf 17       		.uleb128 0x17
 3196 01c0 00       		.byte	0
 3197 01c1 00       		.byte	0
 3198 01c2 23       		.uleb128 0x23
 3199 01c3 34       		.uleb128 0x34
 3200 01c4 00       		.byte	0
 3201 01c5 03       		.uleb128 0x3
 3202 01c6 0E       		.uleb128 0xe
 3203 01c7 3A       		.uleb128 0x3a
 3204 01c8 0B       		.uleb128 0xb
 3205 01c9 3B       		.uleb128 0x3b
 3206 01ca 05       		.uleb128 0x5
 3207 01cb 49       		.uleb128 0x49
 3208 01cc 13       		.uleb128 0x13
 3209 01cd 02       		.uleb128 0x2
 3210 01ce 17       		.uleb128 0x17
ARM GAS  C:\Users\Tymek\AppData\Local\Temp\ccJhKwfb.s 			page 96


 3211 01cf 00       		.byte	0
 3212 01d0 00       		.byte	0
 3213 01d1 24       		.uleb128 0x24
 3214 01d2 26       		.uleb128 0x26
 3215 01d3 00       		.byte	0
 3216 01d4 49       		.uleb128 0x49
 3217 01d5 13       		.uleb128 0x13
 3218 01d6 00       		.byte	0
 3219 01d7 00       		.byte	0
 3220 01d8 25       		.uleb128 0x25
 3221 01d9 2E       		.uleb128 0x2e
 3222 01da 01       		.byte	0x1
 3223 01db 3F       		.uleb128 0x3f
 3224 01dc 19       		.uleb128 0x19
 3225 01dd 03       		.uleb128 0x3
 3226 01de 0E       		.uleb128 0xe
 3227 01df 3A       		.uleb128 0x3a
 3228 01e0 0B       		.uleb128 0xb
 3229 01e1 3B       		.uleb128 0x3b
 3230 01e2 05       		.uleb128 0x5
 3231 01e3 27       		.uleb128 0x27
 3232 01e4 19       		.uleb128 0x19
 3233 01e5 11       		.uleb128 0x11
 3234 01e6 01       		.uleb128 0x1
 3235 01e7 12       		.uleb128 0x12
 3236 01e8 06       		.uleb128 0x6
 3237 01e9 40       		.uleb128 0x40
 3238 01ea 18       		.uleb128 0x18
 3239 01eb 9742     		.uleb128 0x2117
 3240 01ed 19       		.uleb128 0x19
 3241 01ee 01       		.uleb128 0x1
 3242 01ef 13       		.uleb128 0x13
 3243 01f0 00       		.byte	0
 3244 01f1 00       		.byte	0
 3245 01f2 26       		.uleb128 0x26
 3246 01f3 0B       		.uleb128 0xb
 3247 01f4 01       		.byte	0x1
 3248 01f5 11       		.uleb128 0x11
 3249 01f6 01       		.uleb128 0x1
 3250 01f7 12       		.uleb128 0x12
 3251 01f8 06       		.uleb128 0x6
 3252 01f9 00       		.byte	0
 3253 01fa 00       		.byte	0
 3254 01fb 27       		.uleb128 0x27
 3255 01fc 898201   		.uleb128 0x4109
 3256 01ff 01       		.byte	0x1
 3257 0200 11       		.uleb128 0x11
 3258 0201 01       		.uleb128 0x1
 3259 0202 00       		.byte	0
 3260 0203 00       		.byte	0
 3261 0204 28       		.uleb128 0x28
 3262 0205 34       		.uleb128 0x34
 3263 0206 00       		.byte	0
 3264 0207 03       		.uleb128 0x3
 3265 0208 0E       		.uleb128 0xe
 3266 0209 3A       		.uleb128 0x3a
 3267 020a 0B       		.uleb128 0xb
ARM GAS  C:\Users\Tymek\AppData\Local\Temp\ccJhKwfb.s 			page 97


 3268 020b 3B       		.uleb128 0x3b
 3269 020c 05       		.uleb128 0x5
 3270 020d 49       		.uleb128 0x49
 3271 020e 13       		.uleb128 0x13
 3272 020f 3F       		.uleb128 0x3f
 3273 0210 19       		.uleb128 0x19
 3274 0211 3C       		.uleb128 0x3c
 3275 0212 19       		.uleb128 0x19
 3276 0213 00       		.byte	0
 3277 0214 00       		.byte	0
 3278 0215 29       		.uleb128 0x29
 3279 0216 34       		.uleb128 0x34
 3280 0217 00       		.byte	0
 3281 0218 03       		.uleb128 0x3
 3282 0219 0E       		.uleb128 0xe
 3283 021a 3A       		.uleb128 0x3a
 3284 021b 0B       		.uleb128 0xb
 3285 021c 3B       		.uleb128 0x3b
 3286 021d 0B       		.uleb128 0xb
 3287 021e 49       		.uleb128 0x49
 3288 021f 13       		.uleb128 0x13
 3289 0220 3F       		.uleb128 0x3f
 3290 0221 19       		.uleb128 0x19
 3291 0222 02       		.uleb128 0x2
 3292 0223 18       		.uleb128 0x18
 3293 0224 00       		.byte	0
 3294 0225 00       		.byte	0
 3295 0226 2A       		.uleb128 0x2a
 3296 0227 2E       		.uleb128 0x2e
 3297 0228 00       		.byte	0
 3298 0229 3F       		.uleb128 0x3f
 3299 022a 19       		.uleb128 0x19
 3300 022b 3C       		.uleb128 0x3c
 3301 022c 19       		.uleb128 0x19
 3302 022d 6E       		.uleb128 0x6e
 3303 022e 0E       		.uleb128 0xe
 3304 022f 03       		.uleb128 0x3
 3305 0230 0E       		.uleb128 0xe
 3306 0231 3A       		.uleb128 0x3a
 3307 0232 0B       		.uleb128 0xb
 3308 0233 3B       		.uleb128 0x3b
 3309 0234 05       		.uleb128 0x5
 3310 0235 00       		.byte	0
 3311 0236 00       		.byte	0
 3312 0237 2B       		.uleb128 0x2b
 3313 0238 2E       		.uleb128 0x2e
 3314 0239 00       		.byte	0
 3315 023a 3F       		.uleb128 0x3f
 3316 023b 19       		.uleb128 0x19
 3317 023c 3C       		.uleb128 0x3c
 3318 023d 19       		.uleb128 0x19
 3319 023e 6E       		.uleb128 0x6e
 3320 023f 0E       		.uleb128 0xe
 3321 0240 03       		.uleb128 0x3
 3322 0241 0E       		.uleb128 0xe
 3323 0242 3A       		.uleb128 0x3a
 3324 0243 0B       		.uleb128 0xb
ARM GAS  C:\Users\Tymek\AppData\Local\Temp\ccJhKwfb.s 			page 98


 3325 0244 3B       		.uleb128 0x3b
 3326 0245 0B       		.uleb128 0xb
 3327 0246 00       		.byte	0
 3328 0247 00       		.byte	0
 3329 0248 2C       		.uleb128 0x2c
 3330 0249 2E       		.uleb128 0x2e
 3331 024a 00       		.byte	0
 3332 024b 3F       		.uleb128 0x3f
 3333 024c 19       		.uleb128 0x19
 3334 024d 3C       		.uleb128 0x3c
 3335 024e 19       		.uleb128 0x19
 3336 024f 6E       		.uleb128 0x6e
 3337 0250 0E       		.uleb128 0xe
 3338 0251 03       		.uleb128 0x3
 3339 0252 0E       		.uleb128 0xe
 3340 0253 00       		.byte	0
 3341 0254 00       		.byte	0
 3342 0255 00       		.byte	0
 3343              		.section	.debug_loc,"",%progbits
 3344              	.Ldebug_loc0:
 3345              	.LLST0:
 3346 0000 00000000 		.4byte	.LVL0
 3347 0004 09000000 		.4byte	.LVL1-1
 3348 0008 0100     		.2byte	0x1
 3349 000a 50       		.byte	0x50
 3350 000b 09000000 		.4byte	.LVL1-1
 3351 000f 40000000 		.4byte	.LVL9
 3352 0013 0100     		.2byte	0x1
 3353 0015 54       		.byte	0x54
 3354 0016 40000000 		.4byte	.LVL9
 3355 001a 48000000 		.4byte	.LFE2
 3356 001e 0400     		.2byte	0x4
 3357 0020 F3       		.byte	0xf3
 3358 0021 01       		.uleb128 0x1
 3359 0022 50       		.byte	0x50
 3360 0023 9F       		.byte	0x9f
 3361 0024 00000000 		.4byte	0
 3362 0028 00000000 		.4byte	0
 3363              	.LLST1:
 3364 002c 0A000000 		.4byte	.LVL1
 3365 0030 14000000 		.4byte	.LVL2
 3366 0034 0100     		.2byte	0x1
 3367 0036 50       		.byte	0x50
 3368 0037 18000000 		.4byte	.LVL3
 3369 003b 32000000 		.4byte	.LVL4
 3370 003f 0100     		.2byte	0x1
 3371 0041 50       		.byte	0x50
 3372 0042 32000000 		.4byte	.LVL4
 3373 0046 35000000 		.4byte	.LVL5-1
 3374 004a 0200     		.2byte	0x2
 3375 004c 71       		.byte	0x71
 3376 004d 03       		.sleb128 3
 3377 004e 38000000 		.4byte	.LVL6
 3378 0052 3A000000 		.4byte	.LVL7
 3379 0056 0100     		.2byte	0x1
 3380 0058 50       		.byte	0x50
 3381 0059 00000000 		.4byte	0
ARM GAS  C:\Users\Tymek\AppData\Local\Temp\ccJhKwfb.s 			page 99


 3382 005d 00000000 		.4byte	0
 3383              	.LLST2:
 3384 0061 00000000 		.4byte	.LVL10
 3385 0065 08000000 		.4byte	.LVL11
 3386 0069 0100     		.2byte	0x1
 3387 006b 50       		.byte	0x50
 3388 006c 08000000 		.4byte	.LVL11
 3389 0070 0A000000 		.4byte	.LVL12
 3390 0074 0400     		.2byte	0x4
 3391 0076 F3       		.byte	0xf3
 3392 0077 01       		.uleb128 0x1
 3393 0078 50       		.byte	0x50
 3394 0079 9F       		.byte	0x9f
 3395 007a 0A000000 		.4byte	.LVL12
 3396 007e 1E000000 		.4byte	.LVL17
 3397 0082 0100     		.2byte	0x1
 3398 0084 50       		.byte	0x50
 3399 0085 1E000000 		.4byte	.LVL17
 3400 0089 20000000 		.4byte	.LVL18
 3401 008d 0400     		.2byte	0x4
 3402 008f F3       		.byte	0xf3
 3403 0090 01       		.uleb128 0x1
 3404 0091 50       		.byte	0x50
 3405 0092 9F       		.byte	0x9f
 3406 0093 20000000 		.4byte	.LVL18
 3407 0097 22000000 		.4byte	.LVL19
 3408 009b 0100     		.2byte	0x1
 3409 009d 50       		.byte	0x50
 3410 009e 22000000 		.4byte	.LVL19
 3411 00a2 24000000 		.4byte	.LFE7
 3412 00a6 0400     		.2byte	0x4
 3413 00a8 F3       		.byte	0xf3
 3414 00a9 01       		.uleb128 0x1
 3415 00aa 50       		.byte	0x50
 3416 00ab 9F       		.byte	0x9f
 3417 00ac 00000000 		.4byte	0
 3418 00b0 00000000 		.4byte	0
 3419              	.LLST3:
 3420 00b4 0A000000 		.4byte	.LVL12
 3421 00b8 12000000 		.4byte	.LVL13
 3422 00bc 0100     		.2byte	0x1
 3423 00be 53       		.byte	0x53
 3424 00bf 14000000 		.4byte	.LVL14
 3425 00c3 16000000 		.4byte	.LVL15
 3426 00c7 0100     		.2byte	0x1
 3427 00c9 53       		.byte	0x53
 3428 00ca 18000000 		.4byte	.LVL16
 3429 00ce 22000000 		.4byte	.LVL19
 3430 00d2 0100     		.2byte	0x1
 3431 00d4 53       		.byte	0x53
 3432 00d5 00000000 		.4byte	0
 3433 00d9 00000000 		.4byte	0
 3434              	.LLST4:
 3435 00dd 00000000 		.4byte	.LVL10
 3436 00e1 22000000 		.4byte	.LVL19
 3437 00e5 0200     		.2byte	0x2
 3438 00e7 30       		.byte	0x30
ARM GAS  C:\Users\Tymek\AppData\Local\Temp\ccJhKwfb.s 			page 100


 3439 00e8 9F       		.byte	0x9f
 3440 00e9 22000000 		.4byte	.LVL19
 3441 00ed 24000000 		.4byte	.LFE7
 3442 00f1 0100     		.2byte	0x1
 3443 00f3 50       		.byte	0x50
 3444 00f4 00000000 		.4byte	0
 3445 00f8 00000000 		.4byte	0
 3446              	.LLST5:
 3447 00fc 00000000 		.4byte	.LVL20
 3448 0100 2E000000 		.4byte	.LVL22
 3449 0104 0100     		.2byte	0x1
 3450 0106 50       		.byte	0x50
 3451 0107 2E000000 		.4byte	.LVL22
 3452 010b 9A000000 		.4byte	.LVL34
 3453 010f 0400     		.2byte	0x4
 3454 0111 F3       		.byte	0xf3
 3455 0112 01       		.uleb128 0x1
 3456 0113 50       		.byte	0x50
 3457 0114 9F       		.byte	0x9f
 3458 0115 9A000000 		.4byte	.LVL34
 3459 0119 F0000000 		.4byte	.LVL37
 3460 011d 0100     		.2byte	0x1
 3461 011f 50       		.byte	0x50
 3462 0120 F0000000 		.4byte	.LVL37
 3463 0124 16010000 		.4byte	.LVL40
 3464 0128 0400     		.2byte	0x4
 3465 012a F3       		.byte	0xf3
 3466 012b 01       		.uleb128 0x1
 3467 012c 50       		.byte	0x50
 3468 012d 9F       		.byte	0x9f
 3469 012e 16010000 		.4byte	.LVL40
 3470 0132 7E010000 		.4byte	.LVL41
 3471 0136 0100     		.2byte	0x1
 3472 0138 50       		.byte	0x50
 3473 0139 7E010000 		.4byte	.LVL41
 3474 013d 8E010000 		.4byte	.LVL43
 3475 0141 0400     		.2byte	0x4
 3476 0143 F3       		.byte	0xf3
 3477 0144 01       		.uleb128 0x1
 3478 0145 50       		.byte	0x50
 3479 0146 9F       		.byte	0x9f
 3480 0147 8E010000 		.4byte	.LVL43
 3481 014b 94010000 		.4byte	.LVL44
 3482 014f 0100     		.2byte	0x1
 3483 0151 50       		.byte	0x50
 3484 0152 94010000 		.4byte	.LVL44
 3485 0156 A0010000 		.4byte	.LVL46
 3486 015a 0400     		.2byte	0x4
 3487 015c F3       		.byte	0xf3
 3488 015d 01       		.uleb128 0x1
 3489 015e 50       		.byte	0x50
 3490 015f 9F       		.byte	0x9f
 3491 0160 A0010000 		.4byte	.LVL46
 3492 0164 A3010000 		.4byte	.LVL47-1
 3493 0168 0100     		.2byte	0x1
 3494 016a 50       		.byte	0x50
 3495 016b A3010000 		.4byte	.LVL47-1
ARM GAS  C:\Users\Tymek\AppData\Local\Temp\ccJhKwfb.s 			page 101


 3496 016f A6010000 		.4byte	.LVL48
 3497 0173 0400     		.2byte	0x4
 3498 0175 F3       		.byte	0xf3
 3499 0176 01       		.uleb128 0x1
 3500 0177 50       		.byte	0x50
 3501 0178 9F       		.byte	0x9f
 3502 0179 A6010000 		.4byte	.LVL48
 3503 017d B6010000 		.4byte	.LVL50
 3504 0181 0100     		.2byte	0x1
 3505 0183 50       		.byte	0x50
 3506 0184 B6010000 		.4byte	.LVL50
 3507 0188 BC010000 		.4byte	.LVL52
 3508 018c 0400     		.2byte	0x4
 3509 018e F3       		.byte	0xf3
 3510 018f 01       		.uleb128 0x1
 3511 0190 50       		.byte	0x50
 3512 0191 9F       		.byte	0x9f
 3513 0192 BC010000 		.4byte	.LVL52
 3514 0196 BE010000 		.4byte	.LVL53
 3515 019a 0100     		.2byte	0x1
 3516 019c 50       		.byte	0x50
 3517 019d BE010000 		.4byte	.LVL53
 3518 01a1 C4010000 		.4byte	.LVL55
 3519 01a5 0400     		.2byte	0x4
 3520 01a7 F3       		.byte	0xf3
 3521 01a8 01       		.uleb128 0x1
 3522 01a9 50       		.byte	0x50
 3523 01aa 9F       		.byte	0x9f
 3524 01ab C4010000 		.4byte	.LVL55
 3525 01af CE010000 		.4byte	.LVL56
 3526 01b3 0100     		.2byte	0x1
 3527 01b5 50       		.byte	0x50
 3528 01b6 CE010000 		.4byte	.LVL56
 3529 01ba D4010000 		.4byte	.LVL58
 3530 01be 0400     		.2byte	0x4
 3531 01c0 F3       		.byte	0xf3
 3532 01c1 01       		.uleb128 0x1
 3533 01c2 50       		.byte	0x50
 3534 01c3 9F       		.byte	0x9f
 3535 01c4 D4010000 		.4byte	.LVL58
 3536 01c8 D6010000 		.4byte	.LVL59
 3537 01cc 0100     		.2byte	0x1
 3538 01ce 50       		.byte	0x50
 3539 01cf D6010000 		.4byte	.LVL59
 3540 01d3 30020000 		.4byte	.LFE10
 3541 01d7 0400     		.2byte	0x4
 3542 01d9 F3       		.byte	0xf3
 3543 01da 01       		.uleb128 0x1
 3544 01db 50       		.byte	0x50
 3545 01dc 9F       		.byte	0x9f
 3546 01dd 00000000 		.4byte	0
 3547 01e1 00000000 		.4byte	0
 3548              	.LLST6:
 3549 01e5 00000000 		.4byte	.LVL20
 3550 01e9 0C000000 		.4byte	.LVL21
 3551 01ed 0100     		.2byte	0x1
 3552 01ef 51       		.byte	0x51
ARM GAS  C:\Users\Tymek\AppData\Local\Temp\ccJhKwfb.s 			page 102


 3553 01f0 0C000000 		.4byte	.LVL21
 3554 01f4 FA010000 		.4byte	.LVL62
 3555 01f8 0100     		.2byte	0x1
 3556 01fa 54       		.byte	0x54
 3557 01fb FA010000 		.4byte	.LVL62
 3558 01ff 30020000 		.4byte	.LFE10
 3559 0203 0400     		.2byte	0x4
 3560 0205 F3       		.byte	0xf3
 3561 0206 01       		.uleb128 0x1
 3562 0207 51       		.byte	0x51
 3563 0208 9F       		.byte	0x9f
 3564 0209 00000000 		.4byte	0
 3565 020d 00000000 		.4byte	0
 3566              	.LLST7:
 3567 0211 A2000000 		.4byte	.LVL35
 3568 0215 D6000000 		.4byte	.LVL36
 3569 0219 0100     		.2byte	0x1
 3570 021b 54       		.byte	0x54
 3571 021c 00000000 		.4byte	0
 3572 0220 00000000 		.4byte	0
 3573              	.LLST8:
 3574 0224 B4010000 		.4byte	.LVL49
 3575 0228 B9010000 		.4byte	.LVL51-1
 3576 022c 0100     		.2byte	0x1
 3577 022e 51       		.byte	0x51
 3578 022f 00000000 		.4byte	0
 3579 0233 00000000 		.4byte	0
 3580              		.section	.debug_aranges,"",%progbits
 3581 0000 34000000 		.4byte	0x34
 3582 0004 0200     		.2byte	0x2
 3583 0006 00000000 		.4byte	.Ldebug_info0
 3584 000a 04       		.byte	0x4
 3585 000b 00       		.byte	0
 3586 000c 0000     		.2byte	0
 3587 000e 0000     		.2byte	0
 3588 0010 00000000 		.4byte	.LFB4
 3589 0014 10000000 		.4byte	.LFE4-.LFB4
 3590 0018 00000000 		.4byte	.LFB2
 3591 001c 48000000 		.4byte	.LFE2-.LFB2
 3592 0020 00000000 		.4byte	.LFB7
 3593 0024 24000000 		.4byte	.LFE7-.LFB7
 3594 0028 00000000 		.4byte	.LFB10
 3595 002c 30020000 		.4byte	.LFE10-.LFB10
 3596 0030 00000000 		.4byte	0
 3597 0034 00000000 		.4byte	0
 3598              		.section	.debug_ranges,"",%progbits
 3599              	.Ldebug_ranges0:
 3600 0000 00000000 		.4byte	.LFB4
 3601 0004 10000000 		.4byte	.LFE4
 3602 0008 00000000 		.4byte	.LFB2
 3603 000c 48000000 		.4byte	.LFE2
 3604 0010 00000000 		.4byte	.LFB7
 3605 0014 24000000 		.4byte	.LFE7
 3606 0018 00000000 		.4byte	.LFB10
 3607 001c 30020000 		.4byte	.LFE10
 3608 0020 00000000 		.4byte	0
 3609 0024 00000000 		.4byte	0
ARM GAS  C:\Users\Tymek\AppData\Local\Temp\ccJhKwfb.s 			page 103


 3610              		.section	.debug_line,"",%progbits
 3611              	.Ldebug_line0:
 3612 0000 D4010000 		.section	.debug_str,"MS",%progbits,1
 3612      0200FF00 
 3612      00000201 
 3612      FB0E0D00 
 3612      01010101 
 3613              	.LASF253:
 3614 0000 4359424C 		.ascii	"CYBLE_GATT_ERR_INVALID_CRC\000"
 3614      455F4741 
 3614      54545F45 
 3614      52525F49 
 3614      4E56414C 
 3615              	.LASF344:
 3616 001b 4379426C 		.ascii	"CyBle_BtssPrepareWriteRequestEventHandler\000"
 3616      655F4274 
 3616      73735072 
 3616      65706172 
 3616      65577269 
 3617              	.LASF16:
 3618 0045 73697A65 		.ascii	"sizetype\000"
 3618      74797065 
 3618      00
 3619              	.LASF187:
 3620 004e 656B6579 		.ascii	"ekeySize\000"
 3620      53697A65 
 3620      00
 3621              	.LASF222:
 3622 0057 4359424C 		.ascii	"CYBLE_GATT_HANDLE_VALUE_CNF\000"
 3622      455F4741 
 3622      54545F48 
 3622      414E444C 
 3622      455F5641 
 3623              	.LASF340:
 3624 0073 4379426C 		.ascii	"CyBle_SetDeviceAddress\000"
 3624      655F5365 
 3624      74446576 
 3624      69636541 
 3624      64647265 
 3625              	.LASF37:
 3626 008a 4359424C 		.ascii	"CYBLE_EVT_GAP_NUMERIC_COMPARISON_REQUEST\000"
 3626      455F4556 
 3626      545F4741 
 3626      505F4E55 
 3626      4D455249 
 3627              	.LASF342:
 3628 00b3 4379426C 		.ascii	"CyBle_GapSetIoCap\000"
 3628      655F4761 
 3628      70536574 
 3628      496F4361 
 3628      7000
 3629              	.LASF319:
 3630 00c5 61706952 		.ascii	"apiResult\000"
 3630      6573756C 
 3630      7400
 3631              	.LASF289:
 3632 00cf 4359424C 		.ascii	"CYBLE_GATTS_PREP_WRITE_REQ_PARAM_T\000"
ARM GAS  C:\Users\Tymek\AppData\Local\Temp\ccJhKwfb.s 			page 104


 3632      455F4741 
 3632      5454535F 
 3632      50524550 
 3632      5F575249 
 3633              	.LASF350:
 3634 00f2 4379426C 		.ascii	"CyBle_WriteReqHandler\000"
 3634      655F5772 
 3634      69746552 
 3634      65714861 
 3634      6E646C65 
 3635              	.LASF144:
 3636 0108 72657175 		.ascii	"request\000"
 3636      65737400 
 3637              	.LASF181:
 3638 0110 4359424C 		.ascii	"CYBLE_GAP_AUTH_ERROR_CODE_SPEC_MAX_VALUE\000"
 3638      455F4741 
 3638      505F4155 
 3638      54485F45 
 3638      52524F52 
 3639              	.LASF311:
 3640 0139 6576656E 		.ascii	"eventParam\000"
 3640      74506172 
 3640      616D00
 3641              	.LASF31:
 3642 0144 4359424C 		.ascii	"CYBLE_EVT_GAP_DEVICE_CONNECTED\000"
 3642      455F4556 
 3642      545F4741 
 3642      505F4445 
 3642      56494345 
 3643              	.LASF164:
 3644 0163 4359424C 		.ascii	"CYBLE_GAP_IOCAP_NOINPUT_NOOUTPUT\000"
 3644      455F4741 
 3644      505F494F 
 3644      4341505F 
 3644      4E4F494E 
 3645              	.LASF49:
 3646 0184 4359424C 		.ascii	"CYBLE_EVT_GATT_CONNECT_IND\000"
 3646      455F4556 
 3646      545F4741 
 3646      54545F43 
 3646      4F4E4E45 
 3647              	.LASF215:
 3648 019f 4359424C 		.ascii	"CYBLE_GATT_WRITE_CMD\000"
 3648      455F4741 
 3648      54545F57 
 3648      52495445 
 3648      5F434D44 
 3649              	.LASF11:
 3650 01b4 75696E74 		.ascii	"uint32\000"
 3650      333200
 3651              	.LASF302:
 3652 01bb 67617053 		.ascii	"gapServiceCharHandle\000"
 3652      65727669 
 3652      63654368 
 3652      61724861 
 3652      6E646C65 
 3653              	.LASF138:
ARM GAS  C:\Users\Tymek\AppData\Local\Temp\ccJhKwfb.s 			page 105


 3654 01d0 626C6550 		.ascii	"blePwrLevelInDbm\000"
 3654      77724C65 
 3654      76656C49 
 3654      6E44626D 
 3654      00
 3655              	.LASF334:
 3656 01e1 4379426C 		.ascii	"CyBle_BtsWriteEventHandler\000"
 3656      655F4274 
 3656      73577269 
 3656      74654576 
 3656      656E7448 
 3657              	.LASF227:
 3658 01fc 4359424C 		.ascii	"CYBLE_GATT_ERR_READ_NOT_PERMITTED\000"
 3658      455F4741 
 3658      54545F45 
 3658      52525F52 
 3658      4541445F 
 3659              	.LASF242:
 3660 021e 4359424C 		.ascii	"CYBLE_GATT_ERR_INSUFFICIENT_RESOURCE\000"
 3660      455F4741 
 3660      54545F45 
 3660      52525F49 
 3660      4E535546 
 3661              	.LASF216:
 3662 0243 4359424C 		.ascii	"CYBLE_GATT_PREPARE_WRITE_REQ\000"
 3662      455F4741 
 3662      54545F50 
 3662      52455041 
 3662      52455F57 
 3663              	.LASF241:
 3664 0260 4359424C 		.ascii	"CYBLE_GATT_ERR_UNSUPPORTED_GROUP_TYPE\000"
 3664      455F4741 
 3664      54545F45 
 3664      52525F55 
 3664      4E535550 
 3665              	.LASF105:
 3666 0286 4359424C 		.ascii	"CYBLE_ERROR_L2CAP_CONNECTION_ENTITY_NOT_FOUND\000"
 3666      455F4552 
 3666      524F525F 
 3666      4C324341 
 3666      505F434F 
 3667              	.LASF111:
 3668 02b4 4359424C 		.ascii	"CYBLE_ERROR_MIC_AUTH_FAILED\000"
 3668      455F4552 
 3668      524F525F 
 3668      4D49435F 
 3668      41555448 
 3669              	.LASF69:
 3670 02d0 4359424C 		.ascii	"CYBLE_EVT_GATTS_DATA_SIGNED_CMD_REQ\000"
 3670      455F4556 
 3670      545F4741 
 3670      5454535F 
 3670      44415441 
 3671              	.LASF81:
 3672 02f4 4359424C 		.ascii	"CYBLE_EVT_L2CAP_CBFC_RX_CREDIT_IND\000"
 3672      455F4556 
 3672      545F4C32 
ARM GAS  C:\Users\Tymek\AppData\Local\Temp\ccJhKwfb.s 			page 106


 3672      4341505F 
 3672      43424643 
 3673              	.LASF270:
 3674 0317 4359424C 		.ascii	"CYBLE_GATT_VALUE_T\000"
 3674      455F4741 
 3674      54545F56 
 3674      414C5545 
 3674      5F5400
 3675              	.LASF346:
 3676 032a 474E5520 		.ascii	"GNU C11 5.4.1 20160609 (release) [ARM/embedded-5-br"
 3676      43313120 
 3676      352E342E 
 3676      31203230 
 3676      31363036 
 3677 035d 616E6368 		.ascii	"anch revision 237715] -mcpu=cortex-m0 -mthumb -g -O"
 3677      20726576 
 3677      6973696F 
 3677      6E203233 
 3677      37373135 
 3678 0390 67202D66 		.ascii	"g -ffunction-sections -ffat-lto-objects\000"
 3678      66756E63 
 3678      74696F6E 
 3678      2D736563 
 3678      74696F6E 
 3679              	.LASF317:
 3680 03b8 6D656D52 		.ascii	"memReq\000"
 3680      657100
 3681              	.LASF210:
 3682 03bf 4359424C 		.ascii	"CYBLE_GATT_READ_MULTIPLE_RSP\000"
 3682      455F4741 
 3682      54545F52 
 3682      4541445F 
 3682      4D554C54 
 3683              	.LASF149:
 3684 03dc 74797065 		.ascii	"type\000"
 3684      00
 3685              	.LASF155:
 3686 03e1 4359424C 		.ascii	"CYBLE_TO_REASON_CODE_T\000"
 3686      455F544F 
 3686      5F524541 
 3686      534F4E5F 
 3686      434F4445 
 3687              	.LASF243:
 3688 03f8 4359424C 		.ascii	"CYBLE_GATT_ERR_TRIGGER_CODITION_VALUE_NOT_SUPPORTED"
 3688      455F4741 
 3688      54545F45 
 3688      52525F54 
 3688      52494747 
 3689 042b 00       		.ascii	"\000"
 3690              	.LASF182:
 3691 042c 4359424C 		.ascii	"CYBLE_GAP_AUTH_ERROR_AUTHENTICATION_TIMEOUT\000"
 3691      455F4741 
 3691      505F4155 
 3691      54485F45 
 3691      52524F52 
 3692              	.LASF174:
 3693 0458 4359424C 		.ascii	"CYBLE_GAP_AUTH_ERROR_UNSPECIFIED_REASON\000"
ARM GAS  C:\Users\Tymek\AppData\Local\Temp\ccJhKwfb.s 			page 107


 3693      455F4741 
 3693      505F4155 
 3693      54485F45 
 3693      52524F52 
 3694              	.LASF204:
 3695 0480 4359424C 		.ascii	"CYBLE_GATT_READ_BY_TYPE_RSP\000"
 3695      455F4741 
 3695      54545F52 
 3695      4541445F 
 3695      42595F54 
 3696              	.LASF295:
 3697 049c 4359424C 		.ascii	"CYBLE_CALLBACK_T\000"
 3697      455F4341 
 3697      4C4C4241 
 3697      434B5F54 
 3697      00
 3698              	.LASF66:
 3699 04ad 4359424C 		.ascii	"CYBLE_EVT_GATTC_HANDLE_VALUE_NTF\000"
 3699      455F4556 
 3699      545F4741 
 3699      5454435F 
 3699      48414E44 
 3700              	.LASF25:
 3701 04ce 4359424C 		.ascii	"CYBLE_EVT_GAP_AUTH_REQ\000"
 3701      455F4556 
 3701      545F4741 
 3701      505F4155 
 3701      54485F52 
 3702              	.LASF268:
 3703 04e5 4359424C 		.ascii	"CYBLE_CONN_HANDLE_T\000"
 3703      455F434F 
 3703      4E4E5F48 
 3703      414E444C 
 3703      455F5400 
 3704              	.LASF100:
 3705 04f9 4359424C 		.ascii	"CYBLE_ERROR_BT_ON_NOT_COMPLETED\000"
 3705      455F4552 
 3705      524F525F 
 3705      42545F4F 
 3705      4E5F4E4F 
 3706              	.LASF161:
 3707 0519 4359424C 		.ascii	"CYBLE_GAP_IOCAP_DISPLAY_ONLY\000"
 3707      455F4741 
 3707      505F494F 
 3707      4341505F 
 3707      44495350 
 3708              	.LASF46:
 3709 0536 4359424C 		.ascii	"CYBLE_EVT_GAP_AUTH_REQ_REPLY_ERR\000"
 3709      455F4556 
 3709      545F4741 
 3709      505F4155 
 3709      54485F52 
 3710              	.LASF127:
 3711 0557 4359424C 		.ascii	"CYBLE_LL_PWR_LVL_NEG_3_DBM\000"
 3711      455F4C4C 
 3711      5F505752 
 3711      5F4C564C 
ARM GAS  C:\Users\Tymek\AppData\Local\Temp\ccJhKwfb.s 			page 108


 3711      5F4E4547 
 3712              	.LASF313:
 3713 0572 61646472 		.ascii	"addressValid\000"
 3713      65737356 
 3713      616C6964 
 3713      00
 3714              	.LASF299:
 3715 057f 4359424C 		.ascii	"CYBLE_STATE_ADVERTISING\000"
 3715      455F5354 
 3715      4154455F 
 3715      41445645 
 3715      52544953 
 3716              	.LASF39:
 3717 0597 4359424C 		.ascii	"CYBLE_EVT_GAP_OOB_GENERATED_NOTIFICATION\000"
 3717      455F4556 
 3717      545F4741 
 3717      505F4F4F 
 3717      425F4745 
 3718              	.LASF335:
 3719 05c0 4379426C 		.ascii	"CyBle_GattsWriteRsp\000"
 3719      655F4761 
 3719      74747357 
 3719      72697465 
 3719      52737000 
 3720              	.LASF266:
 3721 05d4 62644861 		.ascii	"bdHandle\000"
 3721      6E646C65 
 3721      00
 3722              	.LASF255:
 3723 05dd 4359424C 		.ascii	"CYBLE_GATTS_ERR_NETWORK_NOT_AVAILABLE\000"
 3723      455F4741 
 3723      5454535F 
 3723      4552525F 
 3723      4E455457 
 3724              	.LASF291:
 3725 0603 65786563 		.ascii	"execWriteFlag\000"
 3725      57726974 
 3725      65466C61 
 3725      6700
 3726              	.LASF167:
 3727 0611 4359424C 		.ascii	"CYBLE_GAP_AUTH_ERROR_PASSKEY_ENTRY_FAILED\000"
 3727      455F4741 
 3727      505F4155 
 3727      54485F45 
 3727      52524F52 
 3728              	.LASF258:
 3729 063b 4359424C 		.ascii	"CYBLE_GATT_ERR_ANCS_INVALID_COMMAND\000"
 3729      455F4741 
 3729      54545F45 
 3729      52525F41 
 3729      4E43535F 
 3730              	.LASF336:
 3731 065f 4379426C 		.ascii	"CyBle_SetTxPowerLevel\000"
 3731      655F5365 
 3731      74547850 
 3731      6F776572 
 3731      4C657665 
ARM GAS  C:\Users\Tymek\AppData\Local\Temp\ccJhKwfb.s 			page 109


 3732              	.LASF125:
 3733 0675 4359424C 		.ascii	"CYBLE_LL_PWR_LVL_NEG_12_DBM\000"
 3733      455F4C4C 
 3733      5F505752 
 3733      5F4C564C 
 3733      5F4E4547 
 3734              	.LASF198:
 3735 0691 4359424C 		.ascii	"CYBLE_GATT_XCHNG_MTU_RSP\000"
 3735      455F4741 
 3735      54545F58 
 3735      43484E47 
 3735      5F4D5455 
 3736              	.LASF62:
 3737 06aa 4359424C 		.ascii	"CYBLE_EVT_GATTS_WRITE_CMD_REQ\000"
 3737      455F4556 
 3737      545F4741 
 3737      5454535F 
 3737      57524954 
 3738              	.LASF82:
 3739 06c8 4359424C 		.ascii	"CYBLE_EVT_L2CAP_CBFC_TX_CREDIT_IND\000"
 3739      455F4556 
 3739      545F4C32 
 3739      4341505F 
 3739      43424643 
 3740              	.LASF4:
 3741 06eb 6C6F6E67 		.ascii	"long int\000"
 3741      20696E74 
 3741      00
 3742              	.LASF156:
 3743 06f4 4359424C 		.ascii	"CYBLE_GAP_SEC_LEVEL_1\000"
 3743      455F4741 
 3743      505F5345 
 3743      435F4C45 
 3743      56454C5F 
 3744              	.LASF157:
 3745 070a 4359424C 		.ascii	"CYBLE_GAP_SEC_LEVEL_2\000"
 3745      455F4741 
 3745      505F5345 
 3745      435F4C45 
 3745      56454C5F 
 3746              	.LASF158:
 3747 0720 4359424C 		.ascii	"CYBLE_GAP_SEC_LEVEL_3\000"
 3747      455F4741 
 3747      505F5345 
 3747      435F4C45 
 3747      56454C5F 
 3748              	.LASF159:
 3749 0736 4359424C 		.ascii	"CYBLE_GAP_SEC_LEVEL_4\000"
 3749      455F4741 
 3749      505F5345 
 3749      435F4C45 
 3749      56454C5F 
 3750              	.LASF202:
 3751 074c 4359424C 		.ascii	"CYBLE_GATT_FIND_BY_TYPE_VALUE_RSP\000"
 3751      455F4741 
 3751      54545F46 
 3751      494E445F 
ARM GAS  C:\Users\Tymek\AppData\Local\Temp\ccJhKwfb.s 			page 110


 3751      42595F54 
 3752              	.LASF18:
 3753 076e 4359424C 		.ascii	"CYBLE_EVT_STACK_ON\000"
 3753      455F4556 
 3753      545F5354 
 3753      41434B5F 
 3753      4F4E00
 3754              	.LASF107:
 3755 0781 4359424C 		.ascii	"CYBLE_ERROR_L2CAP_PSM_NOT_IN_RANGE\000"
 3755      455F4552 
 3755      524F525F 
 3755      4C324341 
 3755      505F5053 
 3756              	.LASF324:
 3757 07a4 6379426C 		.ascii	"cyBle_deviceAddress\000"
 3757      655F6465 
 3757      76696365 
 3757      41646472 
 3757      65737300 
 3758              	.LASF254:
 3759 07b8 4359424C 		.ascii	"CYBLE_GATTS_ERR_HPS_INVALID_REQUEST\000"
 3759      455F4741 
 3759      5454535F 
 3759      4552525F 
 3759      4850535F 
 3760              	.LASF229:
 3761 07dc 4359424C 		.ascii	"CYBLE_GATT_ERR_INVALID_PDU\000"
 3761      455F4741 
 3761      54545F45 
 3761      52525F49 
 3761      4E56414C 
 3762              	.LASF170:
 3763 07f7 4359424C 		.ascii	"CYBLE_GAP_AUTH_ERROR_CONFIRM_VALUE_NOT_MATCH\000"
 3763      455F4741 
 3763      505F4155 
 3763      54485F45 
 3763      52524F52 
 3764              	.LASF120:
 3765 0824 4359424C 		.ascii	"CYBLE_ERROR_CHAR_IS_NOT_DISCOVERED\000"
 3765      455F4552 
 3765      524F525F 
 3765      43484152 
 3765      5F49535F 
 3766              	.LASF273:
 3767 0847 4359424C 		.ascii	"CYBLE_GATT_HANDLE_VALUE_PAIR_T\000"
 3767      455F4741 
 3767      54545F48 
 3767      414E444C 
 3767      455F5641 
 3768              	.LASF139:
 3769 0866 626C6553 		.ascii	"bleSsChId\000"
 3769      73436849 
 3769      6400
 3770              	.LASF75:
 3771 0870 4359424C 		.ascii	"CYBLE_EVT_L2CAP_COMMAND_REJ\000"
 3771      455F4556 
 3771      545F4C32 
ARM GAS  C:\Users\Tymek\AppData\Local\Temp\ccJhKwfb.s 			page 111


 3771      4341505F 
 3771      434F4D4D 
 3772              	.LASF307:
 3773 088c 7270614F 		.ascii	"rpaOnlyCharHandle\000"
 3773      6E6C7943 
 3773      68617248 
 3773      616E646C 
 3773      6500
 3774              	.LASF208:
 3775 089e 4359424C 		.ascii	"CYBLE_GATT_READ_BLOB_RSP\000"
 3775      455F4741 
 3775      54545F52 
 3775      4541445F 
 3775      424C4F42 
 3776              	.LASF238:
 3777 08b7 4359424C 		.ascii	"CYBLE_GATT_ERR_INVALID_ATTRIBUTE_LEN\000"
 3777      455F4741 
 3777      54545F45 
 3777      52525F49 
 3777      4E56414C 
 3778              	.LASF108:
 3779 08dc 4359424C 		.ascii	"CYBLE_ERROR_GATT_DB_INVALID_ATTR_HANDLE\000"
 3779      455F4552 
 3779      524F525F 
 3779      47415454 
 3779      5F44425F 
 3780              	.LASF0:
 3781 0904 7369676E 		.ascii	"signed char\000"
 3781      65642063 
 3781      68617200 
 3782              	.LASF124:
 3783 0910 4359424C 		.ascii	"CYBLE_LL_PWR_LVL_NEG_18_DBM\000"
 3783      455F4C4C 
 3783      5F505752 
 3783      5F4C564C 
 3783      5F4E4547 
 3784              	.LASF199:
 3785 092c 4359424C 		.ascii	"CYBLE_GATT_FIND_INFO_REQ\000"
 3785      455F4741 
 3785      54545F46 
 3785      494E445F 
 3785      494E464F 
 3786              	.LASF20:
 3787 0945 4359424C 		.ascii	"CYBLE_EVT_HARDWARE_ERROR\000"
 3787      455F4556 
 3787      545F4841 
 3787      52445741 
 3787      52455F45 
 3788              	.LASF352:
 3789 095e 4379426C 		.ascii	"CyBle_EventHandler\000"
 3789      655F4576 
 3789      656E7448 
 3789      616E646C 
 3789      657200
 3790              	.LASF89:
 3791 0971 4359424C 		.ascii	"CYBLE_ERROR_OK\000"
 3791      455F4552 
ARM GAS  C:\Users\Tymek\AppData\Local\Temp\ccJhKwfb.s 			page 112


 3791      524F525F 
 3791      4F4B00
 3792              	.LASF137:
 3793 0980 4359424C 		.ascii	"CYBLE_BLESS_PHY_CH_GRP_ID_T\000"
 3793      455F424C 
 3793      4553535F 
 3793      5048595F 
 3793      43485F47 
 3794              	.LASF261:
 3795 099c 4359424C 		.ascii	"CYBLE_GATT_ERR_CCCD_IMPROPERLY_CONFIGURED\000"
 3795      455F4741 
 3795      54545F45 
 3795      52525F43 
 3795      4343445F 
 3796              	.LASF53:
 3797 09c6 4359424C 		.ascii	"CYBLE_EVT_GATTC_READ_BY_GROUP_TYPE_RSP\000"
 3797      455F4556 
 3797      545F4741 
 3797      5454435F 
 3797      52454144 
 3798              	.LASF180:
 3799 09ed 4359424C 		.ascii	"CYBLE_GAP_AUTH_ERROR_CROSS_TRANSPORT_KEY_GEN_DER_NO"
 3799      455F4741 
 3799      505F4155 
 3799      54485F45 
 3799      52524F52 
 3800 0a20 545F414C 		.ascii	"T_ALLOWED\000"
 3800      4C4F5745 
 3800      4400
 3801              	.LASF296:
 3802 0a2a 4359424C 		.ascii	"CYBLE_STATE_STOPPED\000"
 3802      455F5354 
 3802      4154455F 
 3802      53544F50 
 3802      50454400 
 3803              	.LASF285:
 3804 0a3e 4359424C 		.ascii	"CYBLE_GATTS_ERR_PARAM_T\000"
 3804      455F4741 
 3804      5454535F 
 3804      4552525F 
 3804      50415241 
 3805              	.LASF1:
 3806 0a56 756E7369 		.ascii	"unsigned char\000"
 3806      676E6564 
 3806      20636861 
 3806      7200
 3807              	.LASF52:
 3808 0a64 4359424C 		.ascii	"CYBLE_EVT_GATTC_XCHNG_MTU_RSP\000"
 3808      455F4556 
 3808      545F4741 
 3808      5454435F 
 3808      5843484E 
 3809              	.LASF221:
 3810 0a82 4359424C 		.ascii	"CYBLE_GATT_HANDLE_VALUE_IND\000"
 3810      455F4741 
 3810      54545F48 
 3810      414E444C 
ARM GAS  C:\Users\Tymek\AppData\Local\Temp\ccJhKwfb.s 			page 113


 3810      455F5641 
 3811              	.LASF43:
 3812 0a9e 4359424C 		.ascii	"CYBLE_EVT_GAP_SMP_NEGOTIATED_AUTH_INFO\000"
 3812      455F4556 
 3812      545F4741 
 3812      505F534D 
 3812      505F4E45 
 3813              	.LASF44:
 3814 0ac5 4359424C 		.ascii	"CYBLE_EVT_GAP_CONN_ESTB\000"
 3814      455F4556 
 3814      545F4741 
 3814      505F434F 
 3814      4E4E5F45 
 3815              	.LASF343:
 3816 0add 4379426C 		.ascii	"CyBle_GappStartAdvertisement\000"
 3816      655F4761 
 3816      70705374 
 3816      61727441 
 3816      64766572 
 3817              	.LASF284:
 3818 0afa 6572726F 		.ascii	"errorCode\000"
 3818      72436F64 
 3818      6500
 3819              	.LASF176:
 3820 0b04 4359424C 		.ascii	"CYBLE_GAP_AUTH_ERROR_INVALID_PARAMETERS\000"
 3820      455F4741 
 3820      505F4155 
 3820      54485F45 
 3820      52524F52 
 3821              	.LASF146:
 3822 0b2c 636F6E66 		.ascii	"configMemory\000"
 3822      69674D65 
 3822      6D6F7279 
 3822      00
 3823              	.LASF79:
 3824 0b39 4359424C 		.ascii	"CYBLE_EVT_L2CAP_CBFC_DISCONN_CNF\000"
 3824      455F4556 
 3824      545F4C32 
 3824      4341505F 
 3824      43424643 
 3825              	.LASF56:
 3826 0b5a 4359424C 		.ascii	"CYBLE_EVT_GATTC_FIND_BY_TYPE_VALUE_RSP\000"
 3826      455F4556 
 3826      545F4741 
 3826      5454435F 
 3826      46494E44 
 3827              	.LASF40:
 3828 0b81 4359424C 		.ascii	"CYBLE_EVT_GAP_DATA_LENGTH_CHANGE\000"
 3828      455F4556 
 3828      545F4741 
 3828      505F4441 
 3828      54415F4C 
 3829              	.LASF14:
 3830 0ba2 63686172 		.ascii	"char\000"
 3830      00
 3831              	.LASF128:
 3832 0ba7 4359424C 		.ascii	"CYBLE_LL_PWR_LVL_NEG_2_DBM\000"
ARM GAS  C:\Users\Tymek\AppData\Local\Temp\ccJhKwfb.s 			page 114


 3832      455F4C4C 
 3832      5F505752 
 3832      5F4C564C 
 3832      5F4E4547 
 3833              	.LASF214:
 3834 0bc2 4359424C 		.ascii	"CYBLE_GATT_WRITE_RSP\000"
 3834      455F4741 
 3834      54545F57 
 3834      52495445 
 3834      5F525350 
 3835              	.LASF59:
 3836 0bd7 4359424C 		.ascii	"CYBLE_EVT_GATTC_READ_MULTI_RSP\000"
 3836      455F4556 
 3836      545F4741 
 3836      5454435F 
 3836      52454144 
 3837              	.LASF190:
 3838 0bf6 4359424C 		.ascii	"CYBLE_GAP_AUTH_INFO_T\000"
 3838      455F4741 
 3838      505F4155 
 3838      54485F49 
 3838      4E464F5F 
 3839              	.LASF163:
 3840 0c0c 4359424C 		.ascii	"CYBLE_GAP_IOCAP_KEYBOARD_ONLY\000"
 3840      455F4741 
 3840      505F494F 
 3840      4341505F 
 3840      4B455942 
 3841              	.LASF17:
 3842 0c2a 4359424C 		.ascii	"CYBLE_EVT_HOST_INVALID\000"
 3842      455F4556 
 3842      545F484F 
 3842      53545F49 
 3842      4E56414C 
 3843              	.LASF250:
 3844 0c41 4359424C 		.ascii	"CYBLE_GATT_ERR_MISSING_CRC\000"
 3844      455F4741 
 3844      54545F45 
 3844      52525F4D 
 3844      49535349 
 3845              	.LASF239:
 3846 0c5c 4359424C 		.ascii	"CYBLE_GATT_ERR_UNLIKELY_ERROR\000"
 3846      455F4741 
 3846      54545F45 
 3846      52525F55 
 3846      4E4C494B 
 3847              	.LASF42:
 3848 0c7a 4359424C 		.ascii	"CYBLE_EVT_GAPC_DIRECT_ADV_REPORT\000"
 3848      455F4556 
 3848      545F4741 
 3848      50435F44 
 3848      49524543 
 3849              	.LASF197:
 3850 0c9b 4359424C 		.ascii	"CYBLE_GATT_XCNHG_MTU_REQ\000"
 3850      455F4741 
 3850      54545F58 
 3850      434E4847 
ARM GAS  C:\Users\Tymek\AppData\Local\Temp\ccJhKwfb.s 			page 115


 3850      5F4D5455 
 3851              	.LASF96:
 3852 0cb4 4359424C 		.ascii	"CYBLE_ERROR_NO_DEVICE_ENTITY\000"
 3852      455F4552 
 3852      524F525F 
 3852      4E4F5F44 
 3852      45564943 
 3853              	.LASF58:
 3854 0cd1 4359424C 		.ascii	"CYBLE_EVT_GATTC_READ_BLOB_RSP\000"
 3854      455F4556 
 3854      545F4741 
 3854      5454435F 
 3854      52454144 
 3855              	.LASF312:
 3856 0cef 64657669 		.ascii	"deviceAddress\000"
 3856      63654164 
 3856      64726573 
 3856      7300
 3857              	.LASF323:
 3858 0cfd 6379426C 		.ascii	"cyBle_eventHandlerFlag\000"
 3858      655F6576 
 3858      656E7448 
 3858      616E646C 
 3858      6572466C 
 3859              	.LASF65:
 3860 0d14 4359424C 		.ascii	"CYBLE_EVT_GATTC_EXEC_WRITE_RSP\000"
 3860      455F4556 
 3860      545F4741 
 3860      5454435F 
 3860      45584543 
 3861              	.LASF244:
 3862 0d33 4359424C 		.ascii	"CYBLE_GATT_ERR_HEART_RATE_CONTROL_POINT_NOT_SUPPORT"
 3862      455F4741 
 3862      54545F45 
 3862      52525F48 
 3862      45415254 
 3863 0d66 454400   		.ascii	"ED\000"
 3864              	.LASF236:
 3865 0d69 4359424C 		.ascii	"CYBLE_GATT_ERR_ATTRIBUTE_NOT_LONG\000"
 3865      455F4741 
 3865      54545F45 
 3865      52525F41 
 3865      54545249 
 3866              	.LASF160:
 3867 0d8b 4359424C 		.ascii	"CYBLE_GAP_SEC_LEVEL_MASK\000"
 3867      455F4741 
 3867      505F5345 
 3867      435F4C45 
 3867      56454C5F 
 3868              	.LASF70:
 3869 0da4 4359424C 		.ascii	"CYBLE_EVT_GATTC_STOP_CMD_COMPLETE\000"
 3869      455F4556 
 3869      545F4741 
 3869      5454435F 
 3869      53544F50 
 3870              	.LASF260:
 3871 0dc6 4359424C 		.ascii	"CYBLE_GATT_ERR_ANCS_ACTION_FAILED\000"
ARM GAS  C:\Users\Tymek\AppData\Local\Temp\ccJhKwfb.s 			page 116


 3871      455F4741 
 3871      54545F45 
 3871      52525F41 
 3871      4E43535F 
 3872              	.LASF330:
 3873 0de8 6379426C 		.ascii	"cyBle_gaps\000"
 3873      655F6761 
 3873      707300
 3874              	.LASF328:
 3875 0df3 6379426C 		.ascii	"cyBle_connHandle\000"
 3875      655F636F 
 3875      6E6E4861 
 3875      6E646C65 
 3875      00
 3876              	.LASF196:
 3877 0e04 4359424C 		.ascii	"CYBLE_GATT_ERROR_RSP\000"
 3877      455F4741 
 3877      54545F45 
 3877      52524F52 
 3877      5F525350 
 3878              	.LASF116:
 3879 0e19 4359424C 		.ascii	"CYBLE_ERROR_CONTROLLER_BUSY\000"
 3879      455F4552 
 3879      524F525F 
 3879      434F4E54 
 3879      524F4C4C 
 3880              	.LASF90:
 3881 0e35 4359424C 		.ascii	"CYBLE_ERROR_INVALID_PARAMETER\000"
 3881      455F4552 
 3881      524F525F 
 3881      494E5641 
 3881      4C49445F 
 3882              	.LASF290:
 3883 0e53 70726570 		.ascii	"prepWriteReqCount\000"
 3883      57726974 
 3883      65526571 
 3883      436F756E 
 3883      7400
 3884              	.LASF179:
 3885 0e65 4359424C 		.ascii	"CYBLE_GAP_AUTH_ERROR_BR_EDR_PAIRING_IN_PROGRESS\000"
 3885      455F4741 
 3885      505F4155 
 3885      54485F45 
 3885      52524F52 
 3886              	.LASF92:
 3887 0e95 4359424C 		.ascii	"CYBLE_ERROR_MEMORY_ALLOCATION_FAILED\000"
 3887      455F4552 
 3887      524F525F 
 3887      4D454D4F 
 3887      52595F41 
 3888              	.LASF281:
 3889 0eba 70726570 		.ascii	"prepareWriteQueueSize\000"
 3889      61726557 
 3889      72697465 
 3889      51756575 
 3889      6553697A 
 3890              	.LASF325:
ARM GAS  C:\Users\Tymek\AppData\Local\Temp\ccJhKwfb.s 			page 117


 3891 0ed0 6379426C 		.ascii	"cyBle_sflashDeviceAddress\000"
 3891      655F7366 
 3891      6C617368 
 3891      44657669 
 3891      63654164 
 3892              	.LASF223:
 3893 0eea 4359424C 		.ascii	"CYBLE_GATT_SIGNED_WRITE_CMD\000"
 3893      455F4741 
 3893      54545F53 
 3893      49474E45 
 3893      445F5752 
 3894              	.LASF251:
 3895 0f06 4359424C 		.ascii	"CYBLE_GATTS_ERR_CCCD_IMPROPERLY_CONFIGURED\000"
 3895      455F4741 
 3895      5454535F 
 3895      4552525F 
 3895      43434344 
 3896              	.LASF339:
 3897 0f31 4379426C 		.ascii	"CyBle_GattsExchangeMtuRsp\000"
 3897      655F4761 
 3897      74747345 
 3897      78636861 
 3897      6E67654D 
 3898              	.LASF219:
 3899 0f4b 4359424C 		.ascii	"CYBLE_GATT_EXECUTE_WRITE_RSP\000"
 3899      455F4741 
 3899      54545F45 
 3899      58454355 
 3899      54455F57 
 3900              	.LASF117:
 3901 0f68 4359424C 		.ascii	"CYBLE_ERROR_MAX\000"
 3901      455F4552 
 3901      524F525F 
 3901      4D415800 
 3902              	.LASF74:
 3903 0f78 4359424C 		.ascii	"CYBLE_EVT_L2CAP_CONN_PARAM_UPDATE_RSP\000"
 3903      455F4556 
 3903      545F4C32 
 3903      4341505F 
 3903      434F4E4E 
 3904              	.LASF183:
 3905 0f9e 4359424C 		.ascii	"CYBLE_GAP_AUTH_ERROR_LINK_DISCONNECTED\000"
 3905      455F4741 
 3905      505F4155 
 3905      54485F45 
 3905      52524F52 
 3906              	.LASF86:
 3907 0fc5 4359424C 		.ascii	"CYBLE_EVT_HCI_PKT\000"
 3907      455F4556 
 3907      545F4843 
 3907      495F504B 
 3907      5400
 3908              	.LASF245:
 3909 0fd7 4359424C 		.ascii	"CYBLE_GATT_ERR_USER_DATA_ACCESS_NOT_PERMITTED\000"
 3909      455F4741 
 3909      54545F45 
 3909      52525F55 
ARM GAS  C:\Users\Tymek\AppData\Local\Temp\ccJhKwfb.s 			page 118


 3909      5345525F 
 3910              	.LASF28:
 3911 1005 4359424C 		.ascii	"CYBLE_EVT_GAP_AUTH_COMPLETE\000"
 3911      455F4556 
 3911      545F4741 
 3911      505F4155 
 3911      54485F43 
 3912              	.LASF29:
 3913 1021 4359424C 		.ascii	"CYBLE_EVT_GAP_AUTH_FAILED\000"
 3913      455F4556 
 3913      545F4741 
 3913      505F4155 
 3913      54485F46 
 3914              	.LASF145:
 3915 103b 616C6C6F 		.ascii	"allocFree\000"
 3915      63467265 
 3915      6500
 3916              	.LASF122:
 3917 1045 4359424C 		.ascii	"CYBLE_ERROR_STACK_BUSY\000"
 3917      455F4552 
 3917      524F525F 
 3917      53544143 
 3917      4B5F4255 
 3918              	.LASF212:
 3919 105c 4359424C 		.ascii	"CYBLE_GATT_READ_BY_GROUP_RSP\000"
 3919      455F4741 
 3919      54545F52 
 3919      4541445F 
 3919      42595F47 
 3920              	.LASF93:
 3921 1079 4359424C 		.ascii	"CYBLE_ERROR_INSUFFICIENT_RESOURCES\000"
 3921      455F4552 
 3921      524F525F 
 3921      494E5355 
 3921      46464943 
 3922              	.LASF249:
 3923 109c 4359424C 		.ascii	"CYBLE_GATT_ERR_OP_CODE_NOT_SUPPORTED\000"
 3923      455F4741 
 3923      54545F45 
 3923      52525F4F 
 3923      505F434F 
 3924              	.LASF131:
 3925 10c1 4359424C 		.ascii	"CYBLE_LL_PWR_LVL_3_DBM\000"
 3925      455F4C4C 
 3925      5F505752 
 3925      5F4C564C 
 3925      5F335F44 
 3926              	.LASF5:
 3927 10d8 6C6F6E67 		.ascii	"long unsigned int\000"
 3927      20756E73 
 3927      69676E65 
 3927      6420696E 
 3927      7400
 3928              	.LASF205:
 3929 10ea 4359424C 		.ascii	"CYBLE_GATT_READ_REQ\000"
 3929      455F4741 
 3929      54545F52 
ARM GAS  C:\Users\Tymek\AppData\Local\Temp\ccJhKwfb.s 			page 119


 3929      4541445F 
 3929      52455100 
 3930              	.LASF191:
 3931 10fe 73746174 		.ascii	"status\000"
 3931      757300
 3932              	.LASF129:
 3933 1105 4359424C 		.ascii	"CYBLE_LL_PWR_LVL_NEG_1_DBM\000"
 3933      455F4C4C 
 3933      5F505752 
 3933      5F4C564C 
 3933      5F4E4547 
 3934              	.LASF113:
 3935 1120 4359424C 		.ascii	"CYBLE_ERROR_UNSUPPORTED_FEATURE_OR_PARAMETER_VALUE\000"
 3935      455F4552 
 3935      524F525F 
 3935      554E5355 
 3935      50504F52 
 3936              	.LASF142:
 3937 1153 4359424C 		.ascii	"CYBLE_INVALID_REQUEST\000"
 3937      455F494E 
 3937      56414C49 
 3937      445F5245 
 3937      51554553 
 3938              	.LASF173:
 3939 1169 4359424C 		.ascii	"CYBLE_GAP_AUTH_ERROR_COMMAND_NOT_SUPPORTED\000"
 3939      455F4741 
 3939      505F4155 
 3939      54485F45 
 3939      52524F52 
 3940              	.LASF169:
 3941 1194 4359424C 		.ascii	"CYBLE_GAP_AUTH_ERROR_AUTHENTICATION_REQ_NOT_MET\000"
 3941      455F4741 
 3941      505F4155 
 3941      54485F45 
 3941      52524F52 
 3942              	.LASF220:
 3943 11c4 4359424C 		.ascii	"CYBLE_GATT_HANDLE_VALUE_NTF\000"
 3943      455F4741 
 3943      54545F48 
 3943      414E444C 
 3943      455F5641 
 3944              	.LASF103:
 3945 11e0 4359424C 		.ascii	"CYBLE_ERROR_L2CAP_PSM_ALREADY_REGISTERED\000"
 3945      455F4552 
 3945      524F525F 
 3945      4C324341 
 3945      505F5053 
 3946              	.LASF348:
 3947 1209 433A5C55 		.ascii	"C:\\Users\\Tymek\\Documents\\EE\\Programming\\PSoC\\"
 3947      73657273 
 3947      5C54796D 
 3947      656B5C44 
 3947      6F63756D 
 3948 1236 4359424C 		.ascii	"CYBLE-224110-00_Clock_OTA\\BLE_OTA_UpgradableStackE"
 3948      452D3232 
 3948      34313130 
 3948      2D30305F 
ARM GAS  C:\Users\Tymek\AppData\Local\Temp\ccJhKwfb.s 			page 120


 3948      436C6F63 
 3949 1268 78616D70 		.ascii	"xample_Stack01.cydsn\000"
 3949      6C655F53 
 3949      7461636B 
 3949      30312E63 
 3949      7964736E 
 3950              	.LASF257:
 3951 127d 4359424C 		.ascii	"CYBLE_GATT_ERR_ANCS_UNKNOWN_COMMAND\000"
 3951      455F4741 
 3951      54545F45 
 3951      52525F41 
 3951      4E43535F 
 3952              	.LASF282:
 3953 12a1 4359424C 		.ascii	"CYBLE_PREPARE_WRITE_REQUEST_MEMORY_T\000"
 3953      455F5052 
 3953      45504152 
 3953      455F5752 
 3953      4954455F 
 3954              	.LASF34:
 3955 12c6 4359424C 		.ascii	"CYBLE_EVT_GAP_CONNECTION_UPDATE_COMPLETE\000"
 3955      455F4556 
 3955      545F4741 
 3955      505F434F 
 3955      4E4E4543 
 3956              	.LASF329:
 3957 12ef 6379426C 		.ascii	"cyBle_busyStatus\000"
 3957      655F6275 
 3957      73795374 
 3957      61747573 
 3957      00
 3958              	.LASF341:
 3959 1300 4379426C 		.ascii	"CyBle_ChangeAdDeviceAddress\000"
 3959      655F4368 
 3959      616E6765 
 3959      41644465 
 3959      76696365 
 3960              	.LASF297:
 3961 131c 4359424C 		.ascii	"CYBLE_STATE_INITIALIZING\000"
 3961      455F5354 
 3961      4154455F 
 3961      494E4954 
 3961      49414C49 
 3962              	.LASF320:
 3963 1335 6379426C 		.ascii	"cyBle_mtuSize\000"
 3963      655F6D74 
 3963      7553697A 
 3963      6500
 3964              	.LASF175:
 3965 1343 4359424C 		.ascii	"CYBLE_GAP_AUTH_ERROR_REPEATED_ATTEMPTS\000"
 3965      455F4741 
 3965      505F4155 
 3965      54485F45 
 3965      52524F52 
 3966              	.LASF78:
 3967 136a 4359424C 		.ascii	"CYBLE_EVT_L2CAP_CBFC_DISCONN_IND\000"
 3967      455F4556 
 3967      545F4C32 
ARM GAS  C:\Users\Tymek\AppData\Local\Temp\ccJhKwfb.s 			page 121


 3967      4341505F 
 3967      43424643 
 3968              	.LASF26:
 3969 138b 4359424C 		.ascii	"CYBLE_EVT_GAP_PASSKEY_ENTRY_REQUEST\000"
 3969      455F4556 
 3969      545F4741 
 3969      505F5041 
 3969      53534B45 
 3970              	.LASF288:
 3971 13af 67617474 		.ascii	"gattErrorCode\000"
 3971      4572726F 
 3971      72436F64 
 3971      6500
 3972              	.LASF347:
 3973 13bd 47656E65 		.ascii	"Generated_Source\\PSoC4\\CyBle_eventHandler.c\000"
 3973      72617465 
 3973      645F536F 
 3973      75726365 
 3973      5C50536F 
 3974              	.LASF177:
 3975 13e9 4359424C 		.ascii	"CYBLE_GAP_AUTH_ERROR_DHKEY_CHECK_FAILED\000"
 3975      455F4741 
 3975      505F4155 
 3975      54485F45 
 3975      52524F52 
 3976              	.LASF133:
 3977 1411 4359424C 		.ascii	"CYBLE_BLESS_PWR_LVL_T\000"
 3977      455F424C 
 3977      4553535F 
 3977      5057525F 
 3977      4C564C5F 
 3978              	.LASF286:
 3979 1427 62617365 		.ascii	"baseAddr\000"
 3979      41646472 
 3979      00
 3980              	.LASF338:
 3981 1430 4379426C 		.ascii	"CyBle_GappAuthReqReply\000"
 3981      655F4761 
 3981      70704175 
 3981      74685265 
 3981      71526570 
 3982              	.LASF172:
 3983 1447 4359424C 		.ascii	"CYBLE_GAP_AUTH_ERROR_INSUFFICIENT_ENCRYPTION_KEY_SI"
 3983      455F4741 
 3983      505F4155 
 3983      54485F45 
 3983      52524F52 
 3984 147a 5A4500   		.ascii	"ZE\000"
 3985              	.LASF337:
 3986 147d 4379426C 		.ascii	"CyBle_GapSetLeEventMask\000"
 3986      655F4761 
 3986      70536574 
 3986      4C654576 
 3986      656E744D 
 3987              	.LASF6:
 3988 1495 6C6F6E67 		.ascii	"long long int\000"
 3988      206C6F6E 
ARM GAS  C:\Users\Tymek\AppData\Local\Temp\ccJhKwfb.s 			page 122


 3988      6720696E 
 3988      7400
 3989              	.LASF349:
 3990 14a3 4379426C 		.ascii	"CyBle_GattDisconnectEventHandler\000"
 3990      655F4761 
 3990      74744469 
 3990      73636F6E 
 3990      6E656374 
 3991              	.LASF147:
 3992 14c4 4359424C 		.ascii	"CYBLE_MEMORY_REQUEST_T\000"
 3992      455F4D45 
 3992      4D4F5259 
 3992      5F524551 
 3992      55455354 
 3993              	.LASF185:
 3994 14db 73656375 		.ascii	"security\000"
 3994      72697479 
 3994      00
 3995              	.LASF234:
 3996 14e4 4359424C 		.ascii	"CYBLE_GATT_ERR_PREPARE_WRITE_QUEUE_FULL\000"
 3996      455F4741 
 3996      54545F45 
 3996      52525F50 
 3996      52455041 
 3997              	.LASF104:
 3998 150c 4359424C 		.ascii	"CYBLE_ERROR_L2CAP_PSM_NOT_REGISTERED\000"
 3998      455F4552 
 3998      524F525F 
 3998      4C324341 
 3998      505F5053 
 3999              	.LASF94:
 4000 1531 4359424C 		.ascii	"CYBLE_ERROR_OOB_NOT_AVAILABLE\000"
 4000      455F4552 
 4000      524F525F 
 4000      4F4F425F 
 4000      4E4F545F 
 4001              	.LASF13:
 4002 154f 646F7562 		.ascii	"double\000"
 4002      6C6500
 4003              	.LASF109:
 4004 1556 4359424C 		.ascii	"CYBLE_ERROR_DEVICE_ALREADY_EXISTS\000"
 4004      455F4552 
 4004      524F525F 
 4004      44455649 
 4004      43455F41 
 4005              	.LASF84:
 4006 1578 4359424C 		.ascii	"CYBLE_EVT_PENDING_FLASH_WRITE\000"
 4006      455F4556 
 4006      545F5045 
 4006      4E44494E 
 4006      475F464C 
 4007              	.LASF237:
 4008 1596 4359424C 		.ascii	"CYBLE_GATT_ERR_INSUFFICIENT_ENC_KEY_SIZE\000"
 4008      455F4741 
 4008      54545F45 
 4008      52525F49 
 4008      4E535546 
ARM GAS  C:\Users\Tymek\AppData\Local\Temp\ccJhKwfb.s 			page 123


 4009              	.LASF132:
 4010 15bf 4359424C 		.ascii	"CYBLE_LL_PWR_LVL_MAX\000"
 4010      455F4C4C 
 4010      5F505752 
 4010      5F4C564C 
 4010      5F4D4158 
 4011              	.LASF303:
 4012 15d4 64657669 		.ascii	"deviceNameCharHandle\000"
 4012      63654E61 
 4012      6D654368 
 4012      61724861 
 4012      6E646C65 
 4013              	.LASF262:
 4014 15e9 4359424C 		.ascii	"CYBLE_GATT_ERR_PROCEDURE_ALREADY_IN_PROGRESS\000"
 4014      455F4741 
 4014      54545F45 
 4014      52525F50 
 4014      524F4345 
 4015              	.LASF41:
 4016 1616 4359424C 		.ascii	"CYBLE_EVT_GAP_ENHANCE_CONN_COMPLETE\000"
 4016      455F4556 
 4016      545F4741 
 4016      505F454E 
 4016      48414E43 
 4017              	.LASF106:
 4018 163a 4359424C 		.ascii	"CYBLE_ERROR_L2CAP_CHANNEL_NOT_FOUND\000"
 4018      455F4552 
 4018      524F525F 
 4018      4C324341 
 4018      505F4348 
 4019              	.LASF97:
 4020 165e 4359424C 		.ascii	"CYBLE_ERROR_REPEATED_ATTEMPTS\000"
 4020      455F4552 
 4020      524F525F 
 4020      52455045 
 4020      41544544 
 4021              	.LASF12:
 4022 167c 666C6F61 		.ascii	"float\000"
 4022      7400
 4023              	.LASF110:
 4024 1682 4359424C 		.ascii	"CYBLE_ERROR_FLASH_WRITE_NOT_PERMITED\000"
 4024      455F4552 
 4024      524F525F 
 4024      464C4153 
 4024      485F5752 
 4025              	.LASF71:
 4026 16a7 4359424C 		.ascii	"CYBLE_EVT_GATTS_READ_CHAR_VAL_ACCESS_REQ\000"
 4026      455F4556 
 4026      545F4741 
 4026      5454535F 
 4026      52454144 
 4027              	.LASF283:
 4028 16d0 6F70636F 		.ascii	"opcode\000"
 4028      646500
 4029              	.LASF233:
 4030 16d7 4359424C 		.ascii	"CYBLE_GATT_ERR_INSUFFICIENT_AUTHORIZATION\000"
 4030      455F4741 
ARM GAS  C:\Users\Tymek\AppData\Local\Temp\ccJhKwfb.s 			page 124


 4030      54545F45 
 4030      52525F49 
 4030      4E535546 
 4031              	.LASF272:
 4032 1701 61747472 		.ascii	"attrHandle\000"
 4032      48616E64 
 4032      6C6500
 4033              	.LASF186:
 4034 170c 626F6E64 		.ascii	"bonding\000"
 4034      696E6700 
 4035              	.LASF294:
 4036 1714 4359424C 		.ascii	"CYBLE_GATTS_WRITE_REQ_PARAM_T\000"
 4036      455F4741 
 4036      5454535F 
 4036      57524954 
 4036      455F5245 
 4037              	.LASF8:
 4038 1732 756E7369 		.ascii	"unsigned int\000"
 4038      676E6564 
 4038      20696E74 
 4038      00
 4039              	.LASF63:
 4040 173f 4359424C 		.ascii	"CYBLE_EVT_GATTS_PREP_WRITE_REQ\000"
 4040      455F4556 
 4040      545F4741 
 4040      5454535F 
 4040      50524550 
 4041              	.LASF230:
 4042 175e 4359424C 		.ascii	"CYBLE_GATT_ERR_INSUFFICIENT_AUTHENTICATION\000"
 4042      455F4741 
 4042      54545F45 
 4042      52525F49 
 4042      4E535546 
 4043              	.LASF275:
 4044 1789 4359424C 		.ascii	"CYBLE_GATT_XCHG_MTU_PARAM_T\000"
 4044      455F4741 
 4044      54545F58 
 4044      4348475F 
 4044      4D54555F 
 4045              	.LASF318:
 4046 17a5 67507265 		.ascii	"gPrepWriteReqMem\000"
 4046      70577269 
 4046      74655265 
 4046      714D656D 
 4046      00
 4047              	.LASF135:
 4048 17b6 4359424C 		.ascii	"CYBLE_LL_CONN_CH_TYPE\000"
 4048      455F4C4C 
 4048      5F434F4E 
 4048      4E5F4348 
 4048      5F545950 
 4049              	.LASF333:
 4050 17cc 4379426C 		.ascii	"CyBle_GattsWriteEventHandler\000"
 4050      655F4761 
 4050      74747357 
 4050      72697465 
 4050      4576656E 
ARM GAS  C:\Users\Tymek\AppData\Local\Temp\ccJhKwfb.s 			page 125


 4051              	.LASF248:
 4052 17e9 4359424C 		.ascii	"CYBLE_GATTS_ERR_PROCEDURE_ALREADY_IN_PROGRESS\000"
 4052      455F4741 
 4052      5454535F 
 4052      4552525F 
 4052      50524F43 
 4053              	.LASF310:
 4054 1817 6572725F 		.ascii	"err_param\000"
 4054      70617261 
 4054      6D00
 4055              	.LASF102:
 4056 1821 4359424C 		.ascii	"CYBLE_ERROR_L2CAP_PSM_WRONG_ENCODING\000"
 4056      455F4552 
 4056      524F525F 
 4056      4C324341 
 4056      505F5053 
 4057              	.LASF217:
 4058 1846 4359424C 		.ascii	"CYBLE_GATT_PREPARE_WRITE_RSP\000"
 4058      455F4741 
 4058      54545F50 
 4058      52455041 
 4058      52455F57 
 4059              	.LASF278:
 4060 1863 4359424C 		.ascii	"CYBLE_GATT_HANDLE_VALUE_OFFSET_PARAM_T\000"
 4060      455F4741 
 4060      54545F48 
 4060      414E444C 
 4060      455F5641 
 4061              	.LASF235:
 4062 188a 4359424C 		.ascii	"CYBLE_GATT_ERR_ATTRIBUTE_NOT_FOUND\000"
 4062      455F4741 
 4062      54545F45 
 4062      52525F41 
 4062      54545249 
 4063              	.LASF277:
 4064 18ad 6F666673 		.ascii	"offset\000"
 4064      657400
 4065              	.LASF88:
 4066 18b4 4359424C 		.ascii	"CYBLE_EVT_MAX\000"
 4066      455F4556 
 4066      545F4D41 
 4066      5800
 4067              	.LASF35:
 4068 18c2 4359424C 		.ascii	"CYBLE_EVT_GAPC_SCAN_START_STOP\000"
 4068      455F4556 
 4068      545F4741 
 4068      50435F53 
 4068      43414E5F 
 4069              	.LASF351:
 4070 18e1 4379426C 		.ascii	"CyBle_IsDeviceAddressValid\000"
 4070      655F4973 
 4070      44657669 
 4070      63654164 
 4070      64726573 
 4071              	.LASF184:
 4072 18fc 4359424C 		.ascii	"CYBLE_GAP_AUTH_FAILED_REASON_T\000"
 4072      455F4741 
ARM GAS  C:\Users\Tymek\AppData\Local\Temp\ccJhKwfb.s 			page 126


 4072      505F4155 
 4072      54485F46 
 4072      41494C45 
 4073              	.LASF60:
 4074 191b 4359424C 		.ascii	"CYBLE_EVT_GATTS_WRITE_REQ\000"
 4074      455F4556 
 4074      545F4741 
 4074      5454535F 
 4074      57524954 
 4075              	.LASF305:
 4076 1935 70726566 		.ascii	"prefConnParamCharHandle\000"
 4076      436F6E6E 
 4076      50617261 
 4076      6D436861 
 4076      7248616E 
 4077              	.LASF27:
 4078 194d 4359424C 		.ascii	"CYBLE_EVT_GAP_PASSKEY_DISPLAY_REQUEST\000"
 4078      455F4556 
 4078      545F4741 
 4078      505F5041 
 4078      53534B45 
 4079              	.LASF119:
 4080 1973 4359424C 		.ascii	"CYBLE_ERROR_IND_DISABLED\000"
 4080      455F4552 
 4080      524F525F 
 4080      494E445F 
 4080      44495341 
 4081              	.LASF118:
 4082 198c 4359424C 		.ascii	"CYBLE_ERROR_NTF_DISABLED\000"
 4082      455F4552 
 4082      524F525F 
 4082      4E54465F 
 4082      44495341 
 4083              	.LASF209:
 4084 19a5 4359424C 		.ascii	"CYBLE_GATT_READ_MULTIPLE_REQ\000"
 4084      455F4741 
 4084      54545F52 
 4084      4541445F 
 4084      4D554C54 
 4085              	.LASF57:
 4086 19c2 4359424C 		.ascii	"CYBLE_EVT_GATTC_READ_RSP\000"
 4086      455F4556 
 4086      545F4741 
 4086      5454435F 
 4086      52454144 
 4087              	.LASF232:
 4088 19db 4359424C 		.ascii	"CYBLE_GATT_ERR_INVALID_OFFSET\000"
 4088      455F4741 
 4088      54545F45 
 4088      52525F49 
 4088      4E56414C 
 4089              	.LASF203:
 4090 19f9 4359424C 		.ascii	"CYBLE_GATT_READ_BY_TYPE_REQ\000"
 4090      455F4741 
 4090      54545F52 
 4090      4541445F 
 4090      42595F54 
ARM GAS  C:\Users\Tymek\AppData\Local\Temp\ccJhKwfb.s 			page 127


 4091              	.LASF77:
 4092 1a15 4359424C 		.ascii	"CYBLE_EVT_L2CAP_CBFC_CONN_CNF\000"
 4092      455F4556 
 4092      545F4C32 
 4092      4341505F 
 4092      43424643 
 4093              	.LASF263:
 4094 1a33 4359424C 		.ascii	"CYBLE_GATT_ERR_OUT_OF_RANGE\000"
 4094      455F4741 
 4094      54545F45 
 4094      52525F4F 
 4094      55545F4F 
 4095              	.LASF87:
 4096 1a4f 4359424C 		.ascii	"CYBLE_EVT_FLASH_CORRUPT\000"
 4096      455F4556 
 4096      545F464C 
 4096      4153485F 
 4096      434F5252 
 4097              	.LASF15:
 4098 1a67 6C6F6E67 		.ascii	"long double\000"
 4098      20646F75 
 4098      626C6500 
 4099              	.LASF201:
 4100 1a73 4359424C 		.ascii	"CYBLE_GATT_FIND_BY_TYPE_VALUE_REQ\000"
 4100      455F4741 
 4100      54545F46 
 4100      494E445F 
 4100      42595F54 
 4101              	.LASF126:
 4102 1a95 4359424C 		.ascii	"CYBLE_LL_PWR_LVL_NEG_6_DBM\000"
 4102      455F4C4C 
 4102      5F505752 
 4102      5F4C564C 
 4102      5F4E4547 
 4103              	.LASF23:
 4104 1ab0 4359424C 		.ascii	"CYBLE_EVT_MEMORY_REQUEST\000"
 4104      455F4556 
 4104      545F4D45 
 4104      4D4F5259 
 4104      5F524551 
 4105              	.LASF304:
 4106 1ac9 61707065 		.ascii	"appearanceCharHandle\000"
 4106      6172616E 
 4106      63654368 
 4106      61724861 
 4106      6E646C65 
 4107              	.LASF166:
 4108 1ade 4359424C 		.ascii	"CYBLE_GAP_AUTH_ERROR_NONE\000"
 4108      455F4741 
 4108      505F4155 
 4108      54485F45 
 4108      52524F52 
 4109              	.LASF33:
 4110 1af8 4359424C 		.ascii	"CYBLE_EVT_GAP_ENCRYPT_CHANGE\000"
 4110      455F4556 
 4110      545F4741 
 4110      505F454E 
ARM GAS  C:\Users\Tymek\AppData\Local\Temp\ccJhKwfb.s 			page 128


 4110      43525950 
 4111              	.LASF279:
 4112 1b15 71756575 		.ascii	"queueBuffer\000"
 4112      65427566 
 4112      66657200 
 4113              	.LASF51:
 4114 1b21 4359424C 		.ascii	"CYBLE_EVT_GATTS_XCNHG_MTU_REQ\000"
 4114      455F4556 
 4114      545F4741 
 4114      5454535F 
 4114      58434E48 
 4115              	.LASF200:
 4116 1b3f 4359424C 		.ascii	"CYBLE_GATT_FIND_INFO_RSP\000"
 4116      455F4741 
 4116      54545F46 
 4116      494E445F 
 4116      494E464F 
 4117              	.LASF168:
 4118 1b58 4359424C 		.ascii	"CYBLE_GAP_AUTH_ERROR_OOB_DATA_NOT_AVAILABLE\000"
 4118      455F4741 
 4118      505F4155 
 4118      54485F45 
 4118      52524F52 
 4119              	.LASF47:
 4120 1b84 4359424C 		.ascii	"CYBLE_EVT_GAP_SMP_LOC_P256_KEYS_GEN_AND_SET_COMPLET"
 4120      455F4556 
 4120      545F4741 
 4120      505F534D 
 4120      505F4C4F 
 4121 1bb7 4500     		.ascii	"E\000"
 4122              	.LASF141:
 4123 1bb9 4359424C 		.ascii	"CYBLE_PREPARED_WRITE_REQUEST\000"
 4123      455F5052 
 4123      45504152 
 4123      45445F57 
 4123      52495445 
 4124              	.LASF195:
 4125 1bd6 4359424C 		.ascii	"CYBLE_GAP_CONN_PARAM_UPDATED_IN_CONTROLLER_T\000"
 4125      455F4741 
 4125      505F434F 
 4125      4E4E5F50 
 4125      4152414D 
 4126              	.LASF7:
 4127 1c03 6C6F6E67 		.ascii	"long long unsigned int\000"
 4127      206C6F6E 
 4127      6720756E 
 4127      7369676E 
 4127      65642069 
 4128              	.LASF226:
 4129 1c1a 4359424C 		.ascii	"CYBLE_GATT_ERR_INVALID_HANDLE\000"
 4129      455F4741 
 4129      54545F45 
 4129      52525F49 
 4129      4E56414C 
 4130              	.LASF19:
 4131 1c38 4359424C 		.ascii	"CYBLE_EVT_TIMEOUT\000"
 4131      455F4556 
ARM GAS  C:\Users\Tymek\AppData\Local\Temp\ccJhKwfb.s 			page 129


 4131      545F5449 
 4131      4D454F55 
 4131      5400
 4132              	.LASF224:
 4133 1c4a 4359424C 		.ascii	"CYBLE_GATT_UNKNOWN_PDU_IND\000"
 4133      455F4741 
 4133      54545F55 
 4133      4E4B4E4F 
 4133      574E5F50 
 4134              	.LASF121:
 4135 1c65 4359424C 		.ascii	"CYBLE_ERROR_INVALID_STATE\000"
 4135      455F4552 
 4135      524F525F 
 4135      494E5641 
 4135      4C49445F 
 4136              	.LASF265:
 4137 1c7f 4359424C 		.ascii	"CYBLE_GATT_DB_ATTR_HANDLE_T\000"
 4137      455F4741 
 4137      54545F44 
 4137      425F4154 
 4137      54525F48 
 4138              	.LASF315:
 4139 1c9b 626C6553 		.ascii	"bleSsPowerLevel\000"
 4139      73506F77 
 4139      65724C65 
 4139      76656C00 
 4140              	.LASF80:
 4141 1cab 4359424C 		.ascii	"CYBLE_EVT_L2CAP_CBFC_DATA_READ\000"
 4141      455F4556 
 4141      545F4C32 
 4141      4341505F 
 4141      43424643 
 4142              	.LASF225:
 4143 1cca 4359424C 		.ascii	"CYBLE_GATT_ERR_NONE\000"
 4143      455F4741 
 4143      54545F45 
 4143      52525F4E 
 4143      4F4E4500 
 4144              	.LASF271:
 4145 1cde 76616C75 		.ascii	"value\000"
 4145      6500
 4146              	.LASF280:
 4147 1ce4 746F7461 		.ascii	"totalAttrValueLength\000"
 4147      6C417474 
 4147      7256616C 
 4147      75654C65 
 4147      6E677468 
 4148              	.LASF321:
 4149 1cf9 4379426C 		.ascii	"CyBle_ApplCallback\000"
 4149      655F4170 
 4149      706C4361 
 4149      6C6C6261 
 4149      636B00
 4150              	.LASF114:
 4151 1d0c 4359424C 		.ascii	"CYBLE_ERROR_FLASH_WRITE\000"
 4151      455F4552 
 4151      524F525F 
ARM GAS  C:\Users\Tymek\AppData\Local\Temp\ccJhKwfb.s 			page 130


 4151      464C4153 
 4151      485F5752 
 4152              	.LASF152:
 4153 1d24 4359424C 		.ascii	"CYBLE_GAP_SCAN_TO\000"
 4153      455F4741 
 4153      505F5343 
 4153      414E5F54 
 4153      4F00
 4154              	.LASF247:
 4155 1d36 4359424C 		.ascii	"CYBLE_GATT_ERR_HTS_OUT_OF_RANGE\000"
 4155      455F4741 
 4155      54545F45 
 4155      52525F48 
 4155      54535F4F 
 4156              	.LASF308:
 4157 1d56 4359424C 		.ascii	"CYBLE_GAPS_T\000"
 4157      455F4741 
 4157      50535F54 
 4157      00
 4158              	.LASF150:
 4159 1d63 4359424C 		.ascii	"CYBLE_GAP_BD_ADDR_T\000"
 4159      455F4741 
 4159      505F4244 
 4159      5F414444 
 4159      525F5400 
 4160              	.LASF207:
 4161 1d77 4359424C 		.ascii	"CYBLE_GATT_READ_BLOB_REQ\000"
 4161      455F4741 
 4161      54545F52 
 4161      4541445F 
 4161      424C4F42 
 4162              	.LASF151:
 4163 1d90 4359424C 		.ascii	"CYBLE_GAP_ADV_MODE_TO\000"
 4163      455F4741 
 4163      505F4144 
 4163      565F4D4F 
 4163      44455F54 
 4164              	.LASF293:
 4165 1da6 68616E64 		.ascii	"handleValPair\000"
 4165      6C655661 
 4165      6C506169 
 4165      7200
 4166              	.LASF274:
 4167 1db4 636F6E6E 		.ascii	"connHandle\000"
 4167      48616E64 
 4167      6C6500
 4168              	.LASF292:
 4169 1dbf 4359424C 		.ascii	"CYBLE_GATTS_EXEC_WRITE_REQ_T\000"
 4169      455F4741 
 4169      5454535F 
 4169      45584543 
 4169      5F575249 
 4170              	.LASF171:
 4171 1ddc 4359424C 		.ascii	"CYBLE_GAP_AUTH_ERROR_PAIRING_NOT_SUPPORTED\000"
 4171      455F4741 
 4171      505F4155 
 4171      54485F45 
ARM GAS  C:\Users\Tymek\AppData\Local\Temp\ccJhKwfb.s 			page 131


 4171      52524F52 
 4172              	.LASF154:
 4173 1e07 4359424C 		.ascii	"CYBLE_GENERIC_TO\000"
 4173      455F4745 
 4173      4E455249 
 4173      435F544F 
 4173      00
 4174              	.LASF55:
 4175 1e18 4359424C 		.ascii	"CYBLE_EVT_GATTC_FIND_INFO_RSP\000"
 4175      455F4556 
 4175      545F4741 
 4175      5454435F 
 4175      46494E44 
 4176              	.LASF54:
 4177 1e36 4359424C 		.ascii	"CYBLE_EVT_GATTC_READ_BY_TYPE_RSP\000"
 4177      455F4556 
 4177      545F4741 
 4177      5454435F 
 4177      52454144 
 4178              	.LASF252:
 4179 1e57 4359424C 		.ascii	"CYBLE_GATTS_ERR_OPERATION_FAILED\000"
 4179      455F4741 
 4179      5454535F 
 4179      4552525F 
 4179      4F504552 
 4180              	.LASF327:
 4181 1e78 6379426C 		.ascii	"cyBle_state\000"
 4181      655F7374 
 4181      61746500 
 4182              	.LASF115:
 4183 1e84 4359424C 		.ascii	"CYBLE_ERROR_LL_SAME_TRANSACTION_COLLISION\000"
 4183      455F4552 
 4183      524F525F 
 4183      4C4C5F53 
 4183      414D455F 
 4184              	.LASF276:
 4185 1eae 68616E64 		.ascii	"handleValuePair\000"
 4185      6C655661 
 4185      6C756550 
 4185      61697200 
 4186              	.LASF189:
 4187 1ebe 70616972 		.ascii	"pairingProperties\000"
 4187      696E6750 
 4187      726F7065 
 4187      72746965 
 4187      7300
 4188              	.LASF61:
 4189 1ed0 4359424C 		.ascii	"CYBLE_EVT_GATTC_WRITE_RSP\000"
 4189      455F4556 
 4189      545F4741 
 4189      5454435F 
 4189      57524954 
 4190              	.LASF300:
 4191 1eea 4359424C 		.ascii	"CYBLE_STATE_DISCONNECTED\000"
 4191      455F5354 
 4191      4154455F 
 4191      44495343 
ARM GAS  C:\Users\Tymek\AppData\Local\Temp\ccJhKwfb.s 			page 132


 4191      4F4E4E45 
 4192              	.LASF316:
 4193 1f03 6C654D61 		.ascii	"leMask\000"
 4193      736B00
 4194              	.LASF30:
 4195 1f0a 4359424C 		.ascii	"CYBLE_EVT_GAPP_ADVERTISEMENT_START_STOP\000"
 4195      455F4556 
 4195      545F4741 
 4195      50505F41 
 4195      44564552 
 4196              	.LASF9:
 4197 1f32 75696E74 		.ascii	"uint8\000"
 4197      3800
 4198              	.LASF326:
 4199 1f38 6379426C 		.ascii	"cyBle_authInfo\000"
 4199      655F6175 
 4199      7468496E 
 4199      666F00
 4200              	.LASF38:
 4201 1f47 4359424C 		.ascii	"CYBLE_EVT_GAP_KEYPRESS_NOTIFICATION\000"
 4201      455F4556 
 4201      545F4741 
 4201      505F4B45 
 4201      59505245 
 4202              	.LASF213:
 4203 1f6b 4359424C 		.ascii	"CYBLE_GATT_WRITE_REQ\000"
 4203      455F4741 
 4203      54545F57 
 4203      52495445 
 4203      5F524551 
 4204              	.LASF2:
 4205 1f80 73686F72 		.ascii	"short int\000"
 4205      7420696E 
 4205      7400
 4206              	.LASF188:
 4207 1f8a 61757468 		.ascii	"authErr\000"
 4207      45727200 
 4208              	.LASF112:
 4209 1f92 4359424C 		.ascii	"CYBLE_ERROR_HARDWARE_FAILURE\000"
 4209      455F4552 
 4209      524F525F 
 4209      48415244 
 4209      57415245 
 4210              	.LASF246:
 4211 1faf 4359424C 		.ascii	"CYBLE_GATT_ERR_CPS_INAPPROPRIATE_CONNECTION_PARAMET"
 4211      455F4741 
 4211      54545F45 
 4211      52525F43 
 4211      50535F49 
 4212 1fe2 45525300 		.ascii	"ERS\000"
 4213              	.LASF231:
 4214 1fe6 4359424C 		.ascii	"CYBLE_GATT_ERR_REQUEST_NOT_SUPPORTED\000"
 4214      455F4741 
 4214      54545F45 
 4214      52525F52 
 4214      45515545 
 4215              	.LASF48:
ARM GAS  C:\Users\Tymek\AppData\Local\Temp\ccJhKwfb.s 			page 133


 4216 200b 4359424C 		.ascii	"CYBLE_EVT_GATTC_ERROR_RSP\000"
 4216      455F4556 
 4216      545F4741 
 4216      5454435F 
 4216      4552524F 
 4217              	.LASF165:
 4218 2025 4359424C 		.ascii	"CYBLE_GAP_IOCAP_KEYBOARD_DISPLAY\000"
 4218      455F4741 
 4218      505F494F 
 4218      4341505F 
 4218      4B455942 
 4219              	.LASF301:
 4220 2046 4359424C 		.ascii	"CYBLE_STATE_T\000"
 4220      455F5354 
 4220      4154455F 
 4220      5400
 4221              	.LASF76:
 4222 2054 4359424C 		.ascii	"CYBLE_EVT_L2CAP_CBFC_CONN_IND\000"
 4222      455F4556 
 4222      545F4C32 
 4222      4341505F 
 4222      43424643 
 4223              	.LASF64:
 4224 2072 4359424C 		.ascii	"CYBLE_EVT_GATTS_EXEC_WRITE_REQ\000"
 4224      455F4556 
 4224      545F4741 
 4224      5454535F 
 4224      45584543 
 4225              	.LASF24:
 4226 2091 4359424C 		.ascii	"CYBLE_EVT_GAPC_SCAN_PROGRESS_RESULT\000"
 4226      455F4556 
 4226      545F4741 
 4226      50435F53 
 4226      43414E5F 
 4227              	.LASF264:
 4228 20b5 4359424C 		.ascii	"CYBLE_GATT_ERR_CODE_T\000"
 4228      455F4741 
 4228      54545F45 
 4228      52525F43 
 4228      4F44455F 
 4229              	.LASF259:
 4230 20cb 4359424C 		.ascii	"CYBLE_GATT_ERR_ANCS_INVALID_PARAMETER\000"
 4230      455F4741 
 4230      54545F45 
 4230      52525F41 
 4230      4E43535F 
 4231              	.LASF98:
 4232 20f1 4359424C 		.ascii	"CYBLE_ERROR_GAP_ROLE\000"
 4232      455F4552 
 4232      524F525F 
 4232      4741505F 
 4232      524F4C45 
 4233              	.LASF322:
 4234 2106 6379426C 		.ascii	"cyBle_stackMemoryRam\000"
 4234      655F7374 
 4234      61636B4D 
 4234      656D6F72 
ARM GAS  C:\Users\Tymek\AppData\Local\Temp\ccJhKwfb.s 			page 134


 4234      7952616D 
 4235              	.LASF331:
 4236 211b 6379426C 		.ascii	"cyBle_advertisingIntervalType\000"
 4236      655F6164 
 4236      76657274 
 4236      6973696E 
 4236      67496E74 
 4237              	.LASF45:
 4238 2139 4359424C 		.ascii	"CYBLE_EVT_GAP_SCAN_REQ_RECVD\000"
 4238      455F4556 
 4238      545F4741 
 4238      505F5343 
 4238      414E5F52 
 4239              	.LASF306:
 4240 2156 63656E74 		.ascii	"centralAddrResolutionCharHandle\000"
 4240      72616C41 
 4240      64647252 
 4240      65736F6C 
 4240      7574696F 
 4241              	.LASF148:
 4242 2176 62644164 		.ascii	"bdAddr\000"
 4242      647200
 4243              	.LASF256:
 4244 217d 4359424C 		.ascii	"CYBLE_GATT_ERR_ANS_COMMAND_NOT_SUPPORTED\000"
 4244      455F4741 
 4244      54545F45 
 4244      52525F41 
 4244      4E535F43 
 4245              	.LASF332:
 4246 21a6 4379426C 		.ascii	"CyBle_GattsErrorRsp\000"
 4246      655F4761 
 4246      74747345 
 4246      72726F72 
 4246      52737000 
 4247              	.LASF206:
 4248 21ba 4359424C 		.ascii	"CYBLE_GATT_READ_RSP\000"
 4248      455F4741 
 4248      54545F52 
 4248      4541445F 
 4248      52535000 
 4249              	.LASF95:
 4250 21ce 4359424C 		.ascii	"CYBLE_ERROR_NO_CONNECTION\000"
 4250      455F4552 
 4250      524F525F 
 4250      4E4F5F43 
 4250      4F4E4E45 
 4251              	.LASF130:
 4252 21e8 4359424C 		.ascii	"CYBLE_LL_PWR_LVL_0_DBM\000"
 4252      455F4C4C 
 4252      5F505752 
 4252      5F4C564C 
 4252      5F305F44 
 4253              	.LASF353:
 4254 21ff 6D656D63 		.ascii	"memcpy\000"
 4254      707900
 4255              	.LASF287:
 4256 2206 63757272 		.ascii	"currentPrepWriteReqCount\000"
ARM GAS  C:\Users\Tymek\AppData\Local\Temp\ccJhKwfb.s 			page 135


 4256      656E7450 
 4256      72657057 
 4256      72697465 
 4256      52657143 
 4257              	.LASF134:
 4258 221f 4359424C 		.ascii	"CYBLE_LL_ADV_CH_TYPE\000"
 4258      455F4C4C 
 4258      5F414456 
 4258      5F43485F 
 4258      54595045 
 4259              	.LASF85:
 4260 2234 4359424C 		.ascii	"CYBLE_EVT_LE_PING_AUTH_TIMEOUT\000"
 4260      455F4556 
 4260      545F4C45 
 4260      5F50494E 
 4260      475F4155 
 4261              	.LASF123:
 4262 2253 4359424C 		.ascii	"CYBLE_API_RESULT_T\000"
 4262      455F4150 
 4262      495F5245 
 4262      53554C54 
 4262      5F5400
 4263              	.LASF67:
 4264 2266 4359424C 		.ascii	"CYBLE_EVT_GATTC_HANDLE_VALUE_IND\000"
 4264      455F4556 
 4264      545F4741 
 4264      5454435F 
 4264      48414E44 
 4265              	.LASF314:
 4266 2287 6576656E 		.ascii	"eventCode\000"
 4266      74436F64 
 4266      6500
 4267              	.LASF101:
 4268 2291 4359424C 		.ascii	"CYBLE_ERROR_SEC_FAILED\000"
 4268      455F4552 
 4268      524F525F 
 4268      5345435F 
 4268      4641494C 
 4269              	.LASF22:
 4270 22a8 4359424C 		.ascii	"CYBLE_EVT_STACK_BUSY_STATUS\000"
 4270      455F4556 
 4270      545F5354 
 4270      41434B5F 
 4270      42555359 
 4271              	.LASF193:
 4272 22c4 636F6E6E 		.ascii	"connLatency\000"
 4272      4C617465 
 4272      6E637900 
 4273              	.LASF178:
 4274 22d0 4359424C 		.ascii	"CYBLE_GAP_AUTH_ERROR_NUMERIC_COMPARISON_FAILED\000"
 4274      455F4741 
 4274      505F4155 
 4274      54485F45 
 4274      52524F52 
 4275              	.LASF162:
 4276 22ff 4359424C 		.ascii	"CYBLE_GAP_IOCAP_DISPLAY_YESNO\000"
 4276      455F4741 
ARM GAS  C:\Users\Tymek\AppData\Local\Temp\ccJhKwfb.s 			page 136


 4276      505F494F 
 4276      4341505F 
 4276      44495350 
 4277              	.LASF36:
 4278 231d 4359424C 		.ascii	"CYBLE_EVT_GAP_KEYINFO_EXCHNGE_CMPLT\000"
 4278      455F4556 
 4278      545F4741 
 4278      505F4B45 
 4278      59494E46 
 4279              	.LASF218:
 4280 2341 4359424C 		.ascii	"CYBLE_GATT_EXECUTE_WRITE_REQ\000"
 4280      455F4741 
 4280      54545F45 
 4280      58454355 
 4280      54455F57 
 4281              	.LASF140:
 4282 235e 4359424C 		.ascii	"CYBLE_BLESS_PWR_IN_DB_T\000"
 4282      455F424C 
 4282      4553535F 
 4282      5057525F 
 4282      494E5F44 
 4283              	.LASF136:
 4284 2376 4359424C 		.ascii	"CYBLE_LL_MAX_CH_TYPE\000"
 4284      455F4C4C 
 4284      5F4D4158 
 4284      5F43485F 
 4284      54595045 
 4285              	.LASF73:
 4286 238b 4359424C 		.ascii	"CYBLE_EVT_L2CAP_CONN_PARAM_UPDATE_REQ\000"
 4286      455F4556 
 4286      545F4C32 
 4286      4341505F 
 4286      434F4E4E 
 4287              	.LASF143:
 4288 23b1 4359424C 		.ascii	"CYBLE_PROTOCOL_REQ_T\000"
 4288      455F5052 
 4288      4F544F43 
 4288      4F4C5F52 
 4288      45515F54 
 4289              	.LASF309:
 4290 23c6 67617474 		.ascii	"gattErr\000"
 4290      45727200 
 4291              	.LASF228:
 4292 23ce 4359424C 		.ascii	"CYBLE_GATT_ERR_WRITE_NOT_PERMITTED\000"
 4292      455F4741 
 4292      54545F45 
 4292      52525F57 
 4292      52495445 
 4293              	.LASF192:
 4294 23f1 636F6E6E 		.ascii	"connIntv\000"
 4294      496E7476 
 4294      00
 4295              	.LASF3:
 4296 23fa 73686F72 		.ascii	"short unsigned int\000"
 4296      7420756E 
 4296      7369676E 
 4296      65642069 
ARM GAS  C:\Users\Tymek\AppData\Local\Temp\ccJhKwfb.s 			page 137


 4296      6E7400
 4297              	.LASF240:
 4298 240d 4359424C 		.ascii	"CYBLE_GATT_ERR_INSUFFICIENT_ENCRYPTION\000"
 4298      455F4741 
 4298      54545F45 
 4298      52525F49 
 4298      4E535546 
 4299              	.LASF298:
 4300 2434 4359424C 		.ascii	"CYBLE_STATE_CONNECTED\000"
 4300      455F5354 
 4300      4154455F 
 4300      434F4E4E 
 4300      45435445 
 4301              	.LASF269:
 4302 244a 61637475 		.ascii	"actualLen\000"
 4302      616C4C65 
 4302      6E00
 4303              	.LASF211:
 4304 2454 4359424C 		.ascii	"CYBLE_GATT_READ_BY_GROUP_REQ\000"
 4304      455F4741 
 4304      54545F52 
 4304      4541445F 
 4304      42595F47 
 4305              	.LASF267:
 4306 2471 61747449 		.ascii	"attId\000"
 4306      6400
 4307              	.LASF91:
 4308 2477 4359424C 		.ascii	"CYBLE_ERROR_INVALID_OPERATION\000"
 4308      455F4552 
 4308      524F525F 
 4308      494E5641 
 4308      4C49445F 
 4309              	.LASF21:
 4310 2495 4359424C 		.ascii	"CYBLE_EVT_HCI_STATUS\000"
 4310      455F4556 
 4310      545F4843 
 4310      495F5354 
 4310      41545553 
 4311              	.LASF50:
 4312 24aa 4359424C 		.ascii	"CYBLE_EVT_GATT_DISCONNECT_IND\000"
 4312      455F4556 
 4312      545F4741 
 4312      54545F44 
 4312      4953434F 
 4313              	.LASF194:
 4314 24c8 73757065 		.ascii	"supervisionTO\000"
 4314      72766973 
 4314      696F6E54 
 4314      4F00
 4315              	.LASF153:
 4316 24d6 4359424C 		.ascii	"CYBLE_GATT_RSP_TO\000"
 4316      455F4741 
 4316      54545F52 
 4316      53505F54 
 4316      4F00
 4317              	.LASF83:
 4318 24e8 4359424C 		.ascii	"CYBLE_EVT_L2CAP_CBFC_DATA_WRITE_IND\000"
ARM GAS  C:\Users\Tymek\AppData\Local\Temp\ccJhKwfb.s 			page 138


 4318      455F4556 
 4318      545F4C32 
 4318      4341505F 
 4318      43424643 
 4319              	.LASF345:
 4320 250c 4379426C 		.ascii	"CyBle_BtssExecuteWriteRequestEventHandler\000"
 4320      655F4274 
 4320      73734578 
 4320      65637574 
 4320      65577269 
 4321              	.LASF72:
 4322 2536 4359424C 		.ascii	"CYBLE_EVT_GATTC_LONG_PROCEDURE_END\000"
 4322      455F4556 
 4322      545F4741 
 4322      5454435F 
 4322      4C4F4E47 
 4323              	.LASF32:
 4324 2559 4359424C 		.ascii	"CYBLE_EVT_GAP_DEVICE_DISCONNECTED\000"
 4324      455F4556 
 4324      545F4741 
 4324      505F4445 
 4324      56494345 
 4325              	.LASF68:
 4326 257b 4359424C 		.ascii	"CYBLE_EVT_GATTS_HANDLE_VALUE_CNF\000"
 4326      455F4556 
 4326      545F4741 
 4326      5454535F 
 4326      48414E44 
 4327              	.LASF10:
 4328 259c 75696E74 		.ascii	"uint16\000"
 4328      313600
 4329              	.LASF99:
 4330 25a3 4359424C 		.ascii	"CYBLE_ERROR_TX_POWER_READ\000"
 4330      455F4552 
 4330      524F525F 
 4330      54585F50 
 4330      4F574552 
 4331              		.ident	"GCC: (GNU Tools for ARM Embedded Processors) 5.4.1 20160609 (release) [ARM/embedded-5-bran
