ARM GAS  C:\Users\Tymek\AppData\Local\Temp\ccyPI6X6.s 			page 1


   1              		.syntax unified
   2              		.cpu cortex-m0
   3              		.fpu softvfp
   4              		.eabi_attribute 20, 1
   5              		.eabi_attribute 21, 1
   6              		.eabi_attribute 23, 3
   7              		.eabi_attribute 24, 1
   8              		.eabi_attribute 25, 1
   9              		.eabi_attribute 26, 1
  10              		.eabi_attribute 30, 1
  11              		.eabi_attribute 34, 0
  12              		.eabi_attribute 18, 4
  13              		.thumb
  14              		.syntax unified
  15              		.file	"main.c"
  16              		.text
  17              	.Ltext0:
  18              		.cfi_sections	.debug_frame
  19              		.section	.text.PrintProjectHeader,"ax",%progbits
  20              		.align	2
  21              		.code	16
  22              		.thumb_func
  23              		.type	PrintProjectHeader, %function
  24              	PrintProjectHeader:
  25              	.LFB38:
  26              		.file 1 "main.c"
   1:main.c        **** /*******************************************************************************
   2:main.c        **** * File Name: main.c
   3:main.c        **** *
   4:main.c        **** * Version: 1.20
   5:main.c        **** *
   6:main.c        **** * Description:
   7:main.c        **** *  This example shows how to build a Stack only project for a BLE design.
   8:main.c        **** *  This project is required for designs that need Over the Air upgrade
   9:main.c        **** *  capability for both Application and the BLE stack. The Design has a BLE
  10:main.c        **** *  component configured as a "Stack Only". The BLE component initialized with
  11:main.c        **** *  a Bootloader service is used as the transport for the bootloader packets
  12:main.c        **** *  from the host. The project also has a bootloader component that uses the
  13:main.c        **** *  packets received from the host to conduct the bootload process.
  14:main.c        **** *
  15:main.c        **** * References:
  16:main.c        **** *  BLUETOOTH SPECIFICATION Version 4.1
  17:main.c        **** *
  18:main.c        **** * Hardware Dependency:
  19:main.c        **** *  CY8CKIT-042 BLE
  20:main.c        **** *
  21:main.c        **** ********************************************************************************
  22:main.c        **** * Copyright 2014-2016, Cypress Semiconductor Corporation. All rights reserved.
  23:main.c        **** * This software is owned by Cypress Semiconductor Corporation and is protected
  24:main.c        **** * by and subject to worldwide patent and copyright laws and treaties.
  25:main.c        **** * Therefore, you may use this software only as provided in the license agreement
  26:main.c        **** * accompanying the software package from which you obtained this software.
  27:main.c        **** * CYPRESS AND ITS SUPPLIERS MAKE NO WARRANTY OF ANY KIND, EXPRESS OR IMPLIED,
  28:main.c        **** * WITH REGARD TO THIS SOFTWARE, INCLUDING, BUT NOT LIMITED TO, NONINFRINGEMENT,
  29:main.c        **** * IMPLIED WARRANTIES OF MERCHANTABILITY AND FITNESS FOR A PARTICULAR PURPOSE.
  30:main.c        **** *******************************************************************************/
  31:main.c        **** 
ARM GAS  C:\Users\Tymek\AppData\Local\Temp\ccyPI6X6.s 			page 2


  32:main.c        **** #include "project.h"
  33:main.c        **** #include "main.h"
  34:main.c        **** 
  35:main.c        **** #define CYREG_SRSS_TST_DDFT_CTRL 0x40030008
  36:main.c        **** 
  37:main.c        **** CYBLE_CONN_HANDLE_T connHandle;
  38:main.c        **** 
  39:main.c        **** #if defined(__ARMCC_VERSION)
  40:main.c        ****     static unsigned long keepMe __attribute__((used));
  41:main.c        ****     __attribute__ ((section(".bootloaderruntype"), zero_init))
  42:main.c        ****     extern volatile uint32 CyReturnToBootloaddableAddress;
  43:main.c        **** #endif /*__ARMCC_VERSION*/
  44:main.c        **** 
  45:main.c        **** static void PrintProjectHeader(void);
  46:main.c        **** 
  47:main.c        **** /*******************************************************************************
  48:main.c        **** * Function Name: main
  49:main.c        **** ********************************************************************************
  50:main.c        **** *
  51:main.c        **** * Summary:
  52:main.c        **** *  Starts BLE component and performs all configuration changes required for
  53:main.c        **** *  BLE and Bootloader components operation.
  54:main.c        **** *
  55:main.c        **** * Parameters:
  56:main.c        **** *  None
  57:main.c        **** *
  58:main.c        **** * Return:
  59:main.c        **** *  None
  60:main.c        **** *
  61:main.c        **** *******************************************************************************/
  62:main.c        **** int main()
  63:main.c        **** {
  64:main.c        ****     CYBLE_API_RESULT_T apiResult;
  65:main.c        ****     CYBLE_STACK_LIB_VERSION_T stackVersion;
  66:main.c        ****     
  67:main.c        ****     #if defined(__ARMCC_VERSION)    
  68:main.c        ****         keepMe = Image$$DATA$$ZI$$Limit;
  69:main.c        ****         CyReturnToBootloaddableAddress = 0u;
  70:main.c        ****     #endif /*__ARMCC_VERSION*/  
  71:main.c        ****     
  72:main.c        ****     PrintProjectHeader();
  73:main.c        ****     
  74:main.c        ****     CyGlobalIntEnable;
  75:main.c        ****     
  76:main.c        ****     S_LED_Write(LED_ON);
  77:main.c        ****     
  78:main.c        ****     /* Checks if Self Project Image is updated and Runs for the First time */
  79:main.c        ****     AfterImageUpdate();
  80:main.c        ****     
  81:main.c        ****     /* If application image is present and valid but no metadata flag is set.
  82:main.c        ****      * Assuming it is first launch.
  83:main.c        ****      */
  84:main.c        ****     if ((CYRET_SUCCESS == Loader_ValidateApp(1u)) && \
  85:main.c        ****                                 (0u == (uint32) CY_GET_XTND_REG8((volatile uint8 *)APP_UPDATE_FLAG_
  86:main.c        ****     {
  87:main.c        ****         DBG_PRINT_TEXT("Application is ready to be launched. Doing so.\r\n");
  88:main.c        ****         Bootloadable_SetActiveApplication(1u);
ARM GAS  C:\Users\Tymek\AppData\Local\Temp\ccyPI6X6.s 			page 3


  89:main.c        ****         CySoftwareReset();
  90:main.c        ****     }
  91:main.c        ****     
  92:main.c        ****     apiResult = CyBle_Start(AppCallBack);
  93:main.c        ****     
  94:main.c        ****     if(apiResult != CYBLE_ERROR_OK)
  95:main.c        ****     {
  96:main.c        ****         DBG_PRINT_TEXT("CyBle_Start API Error: ");
  97:main.c        ****         DBG_PRINT_DEC_TEXT(apiResult, "\r\n");
  98:main.c        ****         if(apiResult == CYBLE_ERROR_MEMORY_ALLOCATION_FAILED)
  99:main.c        ****         {
 100:main.c        ****             /* Receiving this error is expected if system heap size is too small for BLE component 
 101:main.c        ****              * Please read BLE component datasheet for more details on BLE component stack export m
 102:main.c        ****              */
 103:main.c        ****             DBG_PRINT_TEXT("MEMORY_ALLOCATION_FAILED need additional Heap size: 0x");
 104:main.c        ****             DBG_PRINT_HEX_TEXT(CYBLE_STACK_RAM_SIZE, "\r\n");
 105:main.c        ****             DBG_PRINT_TEXT("Execution halted.\r\n");
 106:main.c        ****             while (1u == 1u)
 107:main.c        ****             {
 108:main.c        ****                 /* Will stay here */
 109:main.c        ****             }
 110:main.c        ****         }
 111:main.c        ****     }
 112:main.c        ****     else
 113:main.c        ****     {
 114:main.c        ****         apiResult = CyBle_GetStackLibraryVersion(&stackVersion);
 115:main.c        ****         if(apiResult != CYBLE_ERROR_OK)
 116:main.c        ****         {
 117:main.c        ****             DBG_PRINT_TEXT("CyBle_GetStackLibraryVersion API Error: 0x");
 118:main.c        ****             DBG_PRINT_HEX8_TEXT(apiResult, "\r\n");
 119:main.c        ****         }
 120:main.c        ****         else
 121:main.c        ****         {
 122:main.c        ****             DBG_PRINT_TEXT("Stack Version: ");
 123:main.c        ****             DBG_PRINT_DEC_TEXT(stackVersion.majorVersion, ".");
 124:main.c        ****             DBG_PRINT_DEC_TEXT(stackVersion.minorVersion, ".");
 125:main.c        ****             DBG_PRINT_DEC_TEXT(stackVersion.patch,        ".");
 126:main.c        ****             DBG_PRINT_DEC_TEXT(stackVersion.buildNumber,  ", used Heap: ");
 127:main.c        ****             DBG_PRINT_DEC_TEXT(CYBLE_STACK_RAM_SIZE, "\r\n");
 128:main.c        ****         }
 129:main.c        ****     }
 130:main.c        ****     
 131:main.c        ****     /* Start Bootloader component in non-blocking mode. */
 132:main.c        ****     Loader_Initialize();
 133:main.c        ****     
 134:main.c        ****     for(;;)
 135:main.c        ****     {
 136:main.c        ****         CyBle_ProcessEvents();
 137:main.c        ****         Loader_HostLink(5u);
 138:main.c        ****         
 139:main.c        ****         /* To have predictable timeout */
 140:main.c        ****         CyDelay(5u);
 141:main.c        ****         
 142:main.c        ****         TimeoutImplementation();
 143:main.c        ****     }
 144:main.c        **** }
 145:main.c        **** 
ARM GAS  C:\Users\Tymek\AppData\Local\Temp\ccyPI6X6.s 			page 4


 146:main.c        **** 
 147:main.c        **** /*******************************************************************************
 148:main.c        **** * Function Name: AppCallBack()
 149:main.c        **** ********************************************************************************
 150:main.c        **** *
 151:main.c        **** * Summary:
 152:main.c        **** *   This function handles events that are generated by BLE stack.
 153:main.c        **** *
 154:main.c        **** * Parameters:
 155:main.c        **** *   None
 156:main.c        **** *
 157:main.c        **** * Return:
 158:main.c        **** *   None
 159:main.c        **** *
 160:main.c        **** *******************************************************************************/
 161:main.c        **** void AppCallBack(uint32 event, void* eventParam)
 162:main.c        **** {
 163:main.c        ****     CYBLE_API_RESULT_T apiResult;
 164:main.c        ****     CYBLE_GAP_BD_ADDR_T localAddr;
 165:main.c        ****     CYBLE_GAP_CONN_UPDATE_PARAM_T connUpdateParam;
 166:main.c        ****     uint32  i = 0u;
 167:main.c        **** 
 168:main.c        ****     
 169:main.c        ****     switch (event)
 170:main.c        ****     {
 171:main.c        ****         /**********************************************************
 172:main.c        ****         *                       General Events
 173:main.c        ****         ***********************************************************/
 174:main.c        ****         case CYBLE_EVT_STACK_ON: /* This event received when component is Started */
 175:main.c        ****         
 176:main.c        ****             // From page 16 of the CYBLE-224110-00 datasheet:
 177:main.c        ****             /* Enable the Skyworks SE2438T PA/LNA */
 178:main.c        ****             CSD_Write(1); // PA/LNA Mode 3, both CSD and CPS have to be 1 for BLE to work correctly
 179:main.c        ****             CPS_Write(1); // ^
 180:main.c        ****             /* Configure the Link Layer to automatically switch PA control pin P3[2] and LNA contro
 181:main.c        ****             CY_SET_XTND_REG32((void CYFAR *)(CYREG_BLE_BLESS_RF_CONFIG), 0x0331);
 182:main.c        ****             CY_SET_XTND_REG32((void CYFAR *)(CYREG_SRSS_TST_DDFT_CTRL), 0x80000302);
 183:main.c        ****         
 184:main.c        ****         
 185:main.c        ****             /* Enter into discoverable mode so that remote can search it. */
 186:main.c        ****             apiResult = CyBle_GappStartAdvertisement(CYBLE_ADVERTISING_FAST);
 187:main.c        ****             if(apiResult != CYBLE_ERROR_OK)
 188:main.c        ****             {
 189:main.c        ****                 DBG_PRINT_TEXT("StartAdvertisement API Error: ");
 190:main.c        ****                 DBG_PRINT_DEC_TEXT(apiResult, "\r\n");
 191:main.c        ****             }
 192:main.c        ****             DBG_PRINT_TEXT("Bluetooth On, StartAdvertisement with addr: ");
 193:main.c        ****             localAddr.type = 0u;
 194:main.c        ****             CyBle_GetDeviceAddress(&localAddr);
 195:main.c        ****             for(i = CYBLE_GAP_BD_ADDR_SIZE; i > 0u; i--)
 196:main.c        ****             {
 197:main.c        ****                 DBG_PRINT_HEX_BYTE(localAddr.bdAddr[i-1]);
 198:main.c        ****             }
 199:main.c        ****             DBG_PRINT_TEXT("\r\n");
 200:main.c        ****             break;
 201:main.c        ****         case CYBLE_EVT_HARDWARE_ERROR:    /* This event indicates that some internal HW error has o
 202:main.c        ****             DBG_PRINT_TEXT("CYBLE_EVT_HARDWARE_ERROR\r\n");
ARM GAS  C:\Users\Tymek\AppData\Local\Temp\ccyPI6X6.s 			page 5


 203:main.c        ****             break;
 204:main.c        ****             
 205:main.c        **** 
 206:main.c        ****         /**********************************************************
 207:main.c        ****         *                       GAP Events
 208:main.c        ****         ***********************************************************/
 209:main.c        ****         case CYBLE_EVT_GAP_AUTH_REQ:
 210:main.c        ****             DBG_PRINT_TEXT("CYBLE_EVT_AUTH_REQ: security=0x");
 211:main.c        ****                 DBG_PRINT_HEX_TEXT((*(CYBLE_GAP_AUTH_INFO_T *)eventParam).security, ", bonding=0x" 
 212:main.c        ****                 DBG_PRINT_HEX_TEXT((*(CYBLE_GAP_AUTH_INFO_T *)eventParam).bonding , ", ekeySize=0x"
 213:main.c        ****                 DBG_PRINT_HEX_TEXT((*(CYBLE_GAP_AUTH_INFO_T *)eventParam).ekeySize, ", err=0x"     
 214:main.c        ****                 DBG_PRINT_HEX_TEXT((*(CYBLE_GAP_AUTH_INFO_T *)eventParam).authErr , "\r\n"       );
 215:main.c        ****             break;
 216:main.c        ****         case CYBLE_EVT_GAP_PASSKEY_ENTRY_REQUEST:
 217:main.c        ****             DBG_PRINT_TEXT("CYBLE_EVT_PASSKEY_ENTRY_REQUEST press 'p' to enter passkey \r\n");
 218:main.c        ****             break;
 219:main.c        ****         case CYBLE_EVT_GAP_PASSKEY_DISPLAY_REQUEST:
 220:main.c        ****             DBG_PRINT_TEXT("CYBLE_EVT_PASSKEY_DISPLAY_REQUEST: ");
 221:main.c        ****             DBG_PRINT_DEC2(*(uint32 *)eventParam, 6);
 222:main.c        ****             DBG_PRINT_TEXT("\r\n");
 223:main.c        ****             break;
 224:main.c        ****         case CYBLE_EVT_GAP_NUMERIC_COMPARISON_REQUEST:
 225:main.c        ****             DBG_PRINT_TEXT("CYBLE_EVT_GAP_NUMERIC_COMPARISON_REQUEST\r\n");
 226:main.c        ****             CyBle_GapAuthPassKeyReply(cyBle_connHandle.bdHandle, 0u, CYBLE_GAP_ACCEPT_PASSKEY_REQ);
 227:main.c        ****             break;
 228:main.c        ****         case CYBLE_EVT_GAP_KEYINFO_EXCHNGE_CMPLT:
 229:main.c        ****             DBG_PRINT_TEXT("CYBLE_EVT_GAP_KEYINFO_EXCHNGE_CMPLT \r\n");
 230:main.c        ****             break;
 231:main.c        ****         case CYBLE_EVT_GAP_AUTH_COMPLETE:
 232:main.c        ****             DBG_PRINT_TEXT("AUTH_COMPLETE \r\n");
 233:main.c        ****             break;
 234:main.c        ****         case CYBLE_EVT_GAP_AUTH_FAILED:
 235:main.c        ****             DBG_PRINT_TEXT("CYBLE_EVT_AUTH_FAILED: 0x");
 236:main.c        ****             DBG_PRINT_HEX8_TEXT( *(uint8 *)eventParam, "\r\n");
 237:main.c        ****             break;
 238:main.c        ****         case CYBLE_EVT_GAP_DEVICE_CONNECTED:
 239:main.c        ****             DBG_PRINT_TEXT("CYBLE_EVT_GAP_DEVICE_CONNECTED: ");
 240:main.c        ****             DBG_PRINT_DEC_TEXT(connHandle.bdHandle, "\r\n");
 241:main.c        ****             if ((*(CYBLE_GAP_CONN_PARAM_UPDATED_IN_CONTROLLER_T *)eventParam).connIntv > CYBLE_GAPP
 242:main.c        ****             {
 243:main.c        ****                 /* If connection settings do not match expected ones - request parameter update */
 244:main.c        ****                 connUpdateParam.connIntvMin = CYBLE_GAPP_CONNECTION_INTERVAL_MIN;
 245:main.c        ****                 connUpdateParam.connIntvMax = CYBLE_GAPP_CONNECTION_INTERVAL_MAX;
 246:main.c        ****                 connUpdateParam.connLatency = CYBLE_GAPP_CONNECTION_SLAVE_LATENCY;
 247:main.c        ****                 connUpdateParam.supervisionTO = CYBLE_GAPP_CONNECTION_TIME_OUT;
 248:main.c        ****                 apiResult = CyBle_L2capLeConnectionParamUpdateRequest(cyBle_connHandle.bdHandle, &c
 249:main.c        ****                 DBG_PRINT_TEXT("CyBle_L2capLeConnectionParamUpdateRequest API: 0x");
 250:main.c        ****                 DBG_PRINT_HEX8_TEXT(apiResult, "\r\n");
 251:main.c        ****             }
 252:main.c        ****             break;
 253:main.c        ****         case CYBLE_EVT_GAP_DEVICE_DISCONNECTED:
 254:main.c        ****             DBG_PRINT_TEXT("CYBLE_EVT_GAP_DEVICE_DISCONNECTED\r\n");
 255:main.c        ****             apiResult = CyBle_GappStartAdvertisement(CYBLE_ADVERTISING_FAST);
 256:main.c        ****             if(apiResult != CYBLE_ERROR_OK)
 257:main.c        ****             {
 258:main.c        ****                 DBG_PRINT_TEXT("StartAdvertisement API Error: ");
 259:main.c        ****                 DBG_PRINT_DEC_TEXT(apiResult, "\r\n");
ARM GAS  C:\Users\Tymek\AppData\Local\Temp\ccyPI6X6.s 			page 6


 260:main.c        ****             }
 261:main.c        ****             break;
 262:main.c        ****         case CYBLE_EVT_GAP_ENCRYPT_CHANGE:
 263:main.c        ****             DBG_PRINT_TEXT("CYBLE_EVT_GAP_ENCRYPT_CHANGE: 0x");
 264:main.c        ****             DBG_PRINT_HEX8_TEXT( *(uint8 *)eventParam, "\r\n");
 265:main.c        ****             break;
 266:main.c        ****         case CYBLE_EVT_GAPC_CONNECTION_UPDATE_COMPLETE:
 267:main.c        ****             DBG_PRINT_TEXT("CYBLE_EVT_CONNECTION_UPDATE_COMPLETE: 0x");
 268:main.c        ****             DBG_PRINT_HEX8_TEXT( *(uint8 *)eventParam, "\r\n");
 269:main.c        ****             break;
 270:main.c        ****         case CYBLE_EVT_GAPP_ADVERTISEMENT_START_STOP:
 271:main.c        ****             if(CYBLE_STATE_DISCONNECTED == CyBle_GetState())
 272:main.c        ****             {   
 273:main.c        ****                 /* Fast and slow advertising period complete, go to low power  
 274:main.c        ****                  * mode (Hibernate mode) and wait for an external
 275:main.c        ****                  * user event to wake up the device again */
 276:main.c        ****                 DBG_PRINT_TEXT("Entering low power mode...\r\n");
 277:main.c        ****                 S_LED_Write(1u);
 278:main.c        ****                 SW2_S_ClearInterrupt();
 279:main.c        ****                 Wakeup_Interrupt_ClearPending();
 280:main.c        ****                 Wakeup_Interrupt_Start();
 281:main.c        ****                 CySysPmHibernate();
 282:main.c        ****             }
 283:main.c        ****             break;
 284:main.c        ****         /**********************************************************
 285:main.c        ****         *                       GATT Events
 286:main.c        ****         ***********************************************************/
 287:main.c        ****         case CYBLE_EVT_GATT_CONNECT_IND:
 288:main.c        ****             connHandle = *(CYBLE_CONN_HANDLE_T *)eventParam;
 289:main.c        ****             break;
 290:main.c        ****         case CYBLE_EVT_GATT_DISCONNECT_IND:
 291:main.c        ****             connHandle.bdHandle = 0;
 292:main.c        ****             break;
 293:main.c        ****         case CYBLE_EVT_GATTS_PREP_WRITE_REQ:
 294:main.c        ****             (void)CyBle_GattsPrepWriteReqSupport(CYBLE_GATTS_PREP_WRITE_NOT_SUPPORT);
 295:main.c        ****             break;
 296:main.c        ****         case CYBLE_EVT_HCI_STATUS:
 297:main.c        ****             DBG_PRINT_TEXT("CYBLE_EVT_HCI_STATUS\r\n");
 298:main.c        ****         default:
 299:main.c        ****             break;
 300:main.c        ****         }
 301:main.c        **** }
 302:main.c        **** 
 303:main.c        **** 
 304:main.c        **** /*******************************************************************************
 305:main.c        **** * Function Name: PrintProjectHeader()
 306:main.c        **** ********************************************************************************
 307:main.c        **** * Summary:
 308:main.c        **** *  Prints project header to UART.
 309:main.c        **** *
 310:main.c        **** * Parameters:
 311:main.c        **** *  None
 312:main.c        **** *
 313:main.c        **** * Return:
 314:main.c        **** *  None
 315:main.c        **** *
 316:main.c        **** *******************************************************************************/
ARM GAS  C:\Users\Tymek\AppData\Local\Temp\ccyPI6X6.s 			page 7


 317:main.c        **** static void PrintProjectHeader()
 318:main.c        **** {
  27              		.loc 1 318 0
  28              		.cfi_startproc
  29              		@ args = 0, pretend = 0, frame = 0
  30              		@ frame_needed = 0, uses_anonymous_args = 0
  31 0000 10B5     		push	{r4, lr}
  32              		.cfi_def_cfa_offset 8
  33              		.cfi_offset 4, -8
  34              		.cfi_offset 14, -4
 319:main.c        ****     DBG_PRINT_TEXT("\r\n");
  35              		.loc 1 319 0
  36 0002 0B4C     		ldr	r4, .L2
  37 0004 2000     		movs	r0, r4
  38 0006 FFF7FEFF 		bl	UART_PutString
  39              	.LVL0:
 320:main.c        ****     DBG_PRINT_TEXT("\r\n");
  40              		.loc 1 320 0
  41 000a 2000     		movs	r0, r4
  42 000c FFF7FEFF 		bl	UART_PutString
  43              	.LVL1:
 321:main.c        ****     DBG_PRINT_TEXT("> BLE Upgradable Stack Example Stack\r\n");
  44              		.loc 1 321 0
  45 0010 0848     		ldr	r0, .L2+4
  46 0012 FFF7FEFF 		bl	UART_PutString
  47              	.LVL2:
 322:main.c        ****     DBG_PRINT_TEXT("> Version: 1.20\r\n");
  48              		.loc 1 322 0
  49 0016 0848     		ldr	r0, .L2+8
  50 0018 FFF7FEFF 		bl	UART_PutString
  51              	.LVL3:
 323:main.c        ****     DBG_PRINT_TEXT("> Compile Date and Time: " __DATE__ " " __TIME__ "\r\n");
  52              		.loc 1 323 0
  53 001c 0748     		ldr	r0, .L2+12
  54 001e FFF7FEFF 		bl	UART_PutString
  55              	.LVL4:
 324:main.c        ****     DBG_PRINT_TEXT("\r\n"); 
  56              		.loc 1 324 0
  57 0022 2000     		movs	r0, r4
  58 0024 FFF7FEFF 		bl	UART_PutString
  59              	.LVL5:
 325:main.c        ****     DBG_PRINT_TEXT("\r\n");  
  60              		.loc 1 325 0
  61 0028 2000     		movs	r0, r4
  62 002a FFF7FEFF 		bl	UART_PutString
  63              	.LVL6:
 326:main.c        ****     
 327:main.c        ****     return;
 328:main.c        **** }
  64              		.loc 1 328 0
  65              		@ sp needed
  66 002e 10BD     		pop	{r4, pc}
  67              	.L3:
  68              		.align	2
  69              	.L2:
  70 0030 00000000 		.word	.LC0
  71 0034 04000000 		.word	.LC2
ARM GAS  C:\Users\Tymek\AppData\Local\Temp\ccyPI6X6.s 			page 8


  72 0038 2C000000 		.word	.LC4
  73 003c 40000000 		.word	.LC6
  74              		.cfi_endproc
  75              	.LFE38:
  76              		.size	PrintProjectHeader, .-PrintProjectHeader
  77              		.section	.text.AppCallBack,"ax",%progbits
  78              		.align	2
  79              		.global	AppCallBack
  80              		.code	16
  81              		.thumb_func
  82              		.type	AppCallBack, %function
  83              	AppCallBack:
  84              	.LFB37:
 162:main.c        ****     CYBLE_API_RESULT_T apiResult;
  85              		.loc 1 162 0
  86              		.cfi_startproc
  87              		@ args = 0, pretend = 0, frame = 16
  88              		@ frame_needed = 0, uses_anonymous_args = 0
  89              	.LVL7:
  90 0000 10B5     		push	{r4, lr}
  91              		.cfi_def_cfa_offset 8
  92              		.cfi_offset 4, -8
  93              		.cfi_offset 14, -4
  94 0002 84B0     		sub	sp, sp, #16
  95              		.cfi_def_cfa_offset 24
  96 0004 0C00     		movs	r4, r1
  97              	.LVL8:
 169:main.c        ****     {
  98              		.loc 1 169 0
  99 0006 4F28     		cmp	r0, #79
 100 0008 00D9     		bls	.LCB60
 101 000a D5E0     		b	.L4	@long jump
 102              	.LCB60:
 103 000c 8000     		lsls	r0, r0, #2
 104              	.LVL9:
 105 000e 6B4B     		ldr	r3, .L28
 106 0010 1B58     		ldr	r3, [r3, r0]
 107 0012 9F46     		mov	pc, r3
 108              		.section	.rodata
 109              		.align	2
 110              	.L7:
 111 0000 B8010000 		.word	.L4
 112 0004 14000000 		.word	.L6
 113 0008 B8010000 		.word	.L4
 114 000c 6E000000 		.word	.L8
 115 0010 B2010000 		.word	.L9
 116 0014 B8010000 		.word	.L4
 117 0018 B8010000 		.word	.L4
 118 001c B8010000 		.word	.L4
 119 0020 B8010000 		.word	.L4
 120 0024 B8010000 		.word	.L4
 121 0028 B8010000 		.word	.L4
 122 002c B8010000 		.word	.L4
 123 0030 B8010000 		.word	.L4
 124 0034 B8010000 		.word	.L4
 125 0038 B8010000 		.word	.L4
 126 003c B8010000 		.word	.L4
ARM GAS  C:\Users\Tymek\AppData\Local\Temp\ccyPI6X6.s 			page 9


 127 0040 B8010000 		.word	.L4
 128 0044 B8010000 		.word	.L4
 129 0048 B8010000 		.word	.L4
 130 004c B8010000 		.word	.L4
 131 0050 B8010000 		.word	.L4
 132 0054 B8010000 		.word	.L4
 133 0058 B8010000 		.word	.L4
 134 005c B8010000 		.word	.L4
 135 0060 B8010000 		.word	.L4
 136 0064 B8010000 		.word	.L4
 137 0068 B8010000 		.word	.L4
 138 006c B8010000 		.word	.L4
 139 0070 B8010000 		.word	.L4
 140 0074 B8010000 		.word	.L4
 141 0078 B8010000 		.word	.L4
 142 007c B8010000 		.word	.L4
 143 0080 B8010000 		.word	.L4
 144 0084 76000000 		.word	.L10
 145 0088 9E000000 		.word	.L11
 146 008c A6000000 		.word	.L12
 147 0090 D8000000 		.word	.L13
 148 0094 E0000000 		.word	.L14
 149 0098 72010000 		.word	.L15
 150 009c F0000000 		.word	.L16
 151 00a0 32010000 		.word	.L17
 152 00a4 52010000 		.word	.L18
 153 00a8 62010000 		.word	.L19
 154 00ac B8010000 		.word	.L4
 155 00b0 D0000000 		.word	.L20
 156 00b4 BC000000 		.word	.L21
 157 00b8 B8010000 		.word	.L4
 158 00bc B8010000 		.word	.L4
 159 00c0 B8010000 		.word	.L4
 160 00c4 B8010000 		.word	.L4
 161 00c8 B8010000 		.word	.L4
 162 00cc B8010000 		.word	.L4
 163 00d0 B8010000 		.word	.L4
 164 00d4 B8010000 		.word	.L4
 165 00d8 B8010000 		.word	.L4
 166 00dc B8010000 		.word	.L4
 167 00e0 B8010000 		.word	.L4
 168 00e4 B8010000 		.word	.L4
 169 00e8 B8010000 		.word	.L4
 170 00ec B8010000 		.word	.L4
 171 00f0 B8010000 		.word	.L4
 172 00f4 B8010000 		.word	.L4
 173 00f8 B8010000 		.word	.L4
 174 00fc B8010000 		.word	.L4
 175 0100 B8010000 		.word	.L4
 176 0104 98010000 		.word	.L22
 177 0108 A2010000 		.word	.L23
 178 010c B8010000 		.word	.L4
 179 0110 B8010000 		.word	.L4
 180 0114 B8010000 		.word	.L4
 181 0118 B8010000 		.word	.L4
 182 011c B8010000 		.word	.L4
 183 0120 B8010000 		.word	.L4
ARM GAS  C:\Users\Tymek\AppData\Local\Temp\ccyPI6X6.s 			page 10


 184 0124 B8010000 		.word	.L4
 185 0128 B8010000 		.word	.L4
 186 012c B8010000 		.word	.L4
 187 0130 B8010000 		.word	.L4
 188 0134 B8010000 		.word	.L4
 189 0138 B8010000 		.word	.L4
 190 013c AA010000 		.word	.L24
 191              		.section	.text.AppCallBack
 192              	.L6:
 178:main.c        ****             CPS_Write(1); // ^
 193              		.loc 1 178 0
 194 0014 0120     		movs	r0, #1
 195 0016 FFF7FEFF 		bl	CSD_Write
 196              	.LVL10:
 179:main.c        ****             /* Configure the Link Layer to automatically switch PA control pin P3[2] and LNA contro
 197              		.loc 1 179 0
 198 001a 0120     		movs	r0, #1
 199 001c FFF7FEFF 		bl	CPS_Write
 200              	.LVL11:
 181:main.c        ****             CY_SET_XTND_REG32((void CYFAR *)(CYREG_SRSS_TST_DDFT_CTRL), 0x80000302);
 201              		.loc 1 181 0
 202 0020 674A     		ldr	r2, .L28+4
 203 0022 684B     		ldr	r3, .L28+8
 204 0024 1A60     		str	r2, [r3]
 182:main.c        ****         
 205              		.loc 1 182 0
 206 0026 684A     		ldr	r2, .L28+12
 207 0028 684B     		ldr	r3, .L28+16
 208 002a 1A60     		str	r2, [r3]
 186:main.c        ****             if(apiResult != CYBLE_ERROR_OK)
 209              		.loc 1 186 0
 210 002c 0020     		movs	r0, #0
 211 002e FFF7FEFF 		bl	CyBle_GappStartAdvertisement
 212              	.LVL12:
 213 0032 041E     		subs	r4, r0, #0
 214              	.LVL13:
 187:main.c        ****             {
 215              		.loc 1 187 0
 216 0034 06D0     		beq	.L25
 189:main.c        ****                 DBG_PRINT_DEC_TEXT(apiResult, "\r\n");
 217              		.loc 1 189 0
 218 0036 6648     		ldr	r0, .L28+20
 219              	.LVL14:
 220 0038 FFF7FEFF 		bl	UART_PutString
 221              	.LVL15:
 190:main.c        ****             }
 222              		.loc 1 190 0
 223 003c 6549     		ldr	r1, .L28+24
 224 003e 2000     		movs	r0, r4
 225 0040 FFF7FEFF 		bl	DBG_PRINT_DEC_TEXT
 226              	.LVL16:
 227              	.L25:
 192:main.c        ****             localAddr.type = 0u;
 228              		.loc 1 192 0
 229 0044 6448     		ldr	r0, .L28+28
 230 0046 FFF7FEFF 		bl	UART_PutString
 231              	.LVL17:
ARM GAS  C:\Users\Tymek\AppData\Local\Temp\ccyPI6X6.s 			page 11


 193:main.c        ****             CyBle_GetDeviceAddress(&localAddr);
 232              		.loc 1 193 0
 233 004a 02A8     		add	r0, sp, #8
 234 004c 0023     		movs	r3, #0
 235 004e 8371     		strb	r3, [r0, #6]
 194:main.c        ****             for(i = CYBLE_GAP_BD_ADDR_SIZE; i > 0u; i--)
 236              		.loc 1 194 0
 237 0050 FFF7FEFF 		bl	CyBle_GetDeviceAddress
 238              	.LVL18:
 195:main.c        ****             {
 239              		.loc 1 195 0
 240 0054 0624     		movs	r4, #6
 241 0056 04E0     		b	.L26
 242              	.LVL19:
 243              	.L27:
 197:main.c        ****             }
 244              		.loc 1 197 0 discriminator 3
 245 0058 013C     		subs	r4, r4, #1
 246              	.LVL20:
 247 005a 02AB     		add	r3, sp, #8
 248 005c 185D     		ldrb	r0, [r3, r4]
 249 005e FFF7FEFF 		bl	UART_PutHexByte
 250              	.LVL21:
 251              	.L26:
 195:main.c        ****             {
 252              		.loc 1 195 0 discriminator 1
 253 0062 002C     		cmp	r4, #0
 254 0064 F8D1     		bne	.L27
 199:main.c        ****             break;
 255              		.loc 1 199 0
 256 0066 5B48     		ldr	r0, .L28+24
 257 0068 FFF7FEFF 		bl	UART_PutString
 258              	.LVL22:
 200:main.c        ****         case CYBLE_EVT_HARDWARE_ERROR:    /* This event indicates that some internal HW error has o
 259              		.loc 1 200 0
 260 006c A4E0     		b	.L4
 261              	.LVL23:
 262              	.L8:
 202:main.c        ****             break;
 263              		.loc 1 202 0
 264 006e 5B48     		ldr	r0, .L28+32
 265 0070 FFF7FEFF 		bl	UART_PutString
 266              	.LVL24:
 203:main.c        ****             
 267              		.loc 1 203 0
 268 0074 A0E0     		b	.L4
 269              	.LVL25:
 270              	.L10:
 210:main.c        ****                 DBG_PRINT_HEX_TEXT((*(CYBLE_GAP_AUTH_INFO_T *)eventParam).security, ", bonding=0x" 
 271              		.loc 1 210 0
 272 0076 5A48     		ldr	r0, .L28+36
 273 0078 FFF7FEFF 		bl	UART_PutString
 274              	.LVL26:
 211:main.c        ****                 DBG_PRINT_HEX_TEXT((*(CYBLE_GAP_AUTH_INFO_T *)eventParam).bonding , ", ekeySize=0x"
 275              		.loc 1 211 0
 276 007c 2078     		ldrb	r0, [r4]
 277 007e 5949     		ldr	r1, .L28+40
ARM GAS  C:\Users\Tymek\AppData\Local\Temp\ccyPI6X6.s 			page 12


 278 0080 FFF7FEFF 		bl	DBG_PRINT_HEX_TEXT
 279              	.LVL27:
 212:main.c        ****                 DBG_PRINT_HEX_TEXT((*(CYBLE_GAP_AUTH_INFO_T *)eventParam).ekeySize, ", err=0x"     
 280              		.loc 1 212 0
 281 0084 6078     		ldrb	r0, [r4, #1]
 282 0086 5849     		ldr	r1, .L28+44
 283 0088 FFF7FEFF 		bl	DBG_PRINT_HEX_TEXT
 284              	.LVL28:
 213:main.c        ****                 DBG_PRINT_HEX_TEXT((*(CYBLE_GAP_AUTH_INFO_T *)eventParam).authErr , "\r\n"       );
 285              		.loc 1 213 0
 286 008c A078     		ldrb	r0, [r4, #2]
 287 008e 5749     		ldr	r1, .L28+48
 288 0090 FFF7FEFF 		bl	DBG_PRINT_HEX_TEXT
 289              	.LVL29:
 214:main.c        ****             break;
 290              		.loc 1 214 0
 291 0094 E078     		ldrb	r0, [r4, #3]
 292 0096 4F49     		ldr	r1, .L28+24
 293 0098 FFF7FEFF 		bl	DBG_PRINT_HEX_TEXT
 294              	.LVL30:
 215:main.c        ****         case CYBLE_EVT_GAP_PASSKEY_ENTRY_REQUEST:
 295              		.loc 1 215 0
 296 009c 8CE0     		b	.L4
 297              	.LVL31:
 298              	.L11:
 217:main.c        ****             break;
 299              		.loc 1 217 0
 300 009e 5448     		ldr	r0, .L28+52
 301 00a0 FFF7FEFF 		bl	UART_PutString
 302              	.LVL32:
 218:main.c        ****         case CYBLE_EVT_GAP_PASSKEY_DISPLAY_REQUEST:
 303              		.loc 1 218 0
 304 00a4 88E0     		b	.L4
 305              	.LVL33:
 306              	.L12:
 220:main.c        ****             DBG_PRINT_DEC2(*(uint32 *)eventParam, 6);
 307              		.loc 1 220 0
 308 00a6 5348     		ldr	r0, .L28+56
 309 00a8 FFF7FEFF 		bl	UART_PutString
 310              	.LVL34:
 221:main.c        ****             DBG_PRINT_TEXT("\r\n");
 311              		.loc 1 221 0
 312 00ac 2068     		ldr	r0, [r4]
 313 00ae 0621     		movs	r1, #6
 314 00b0 FFF7FEFF 		bl	DBG_PRINT_DEC2
 315              	.LVL35:
 222:main.c        ****             break;
 316              		.loc 1 222 0
 317 00b4 4748     		ldr	r0, .L28+24
 318 00b6 FFF7FEFF 		bl	UART_PutString
 319              	.LVL36:
 223:main.c        ****         case CYBLE_EVT_GAP_NUMERIC_COMPARISON_REQUEST:
 320              		.loc 1 223 0
 321 00ba 7DE0     		b	.L4
 322              	.LVL37:
 323              	.L21:
 225:main.c        ****             CyBle_GapAuthPassKeyReply(cyBle_connHandle.bdHandle, 0u, CYBLE_GAP_ACCEPT_PASSKEY_REQ);
ARM GAS  C:\Users\Tymek\AppData\Local\Temp\ccyPI6X6.s 			page 13


 324              		.loc 1 225 0
 325 00bc 4E48     		ldr	r0, .L28+60
 326 00be FFF7FEFF 		bl	UART_PutString
 327              	.LVL38:
 226:main.c        ****             break;
 328              		.loc 1 226 0
 329 00c2 4E4B     		ldr	r3, .L28+64
 330 00c4 1878     		ldrb	r0, [r3]
 331 00c6 0122     		movs	r2, #1
 332 00c8 0021     		movs	r1, #0
 333 00ca FFF7FEFF 		bl	CyBle_GapAuthPassKeyReply
 334              	.LVL39:
 227:main.c        ****         case CYBLE_EVT_GAP_KEYINFO_EXCHNGE_CMPLT:
 335              		.loc 1 227 0
 336 00ce 73E0     		b	.L4
 337              	.LVL40:
 338              	.L20:
 229:main.c        ****             break;
 339              		.loc 1 229 0
 340 00d0 4B48     		ldr	r0, .L28+68
 341 00d2 FFF7FEFF 		bl	UART_PutString
 342              	.LVL41:
 230:main.c        ****         case CYBLE_EVT_GAP_AUTH_COMPLETE:
 343              		.loc 1 230 0
 344 00d6 6FE0     		b	.L4
 345              	.LVL42:
 346              	.L13:
 232:main.c        ****             break;
 347              		.loc 1 232 0
 348 00d8 4A48     		ldr	r0, .L28+72
 349 00da FFF7FEFF 		bl	UART_PutString
 350              	.LVL43:
 233:main.c        ****         case CYBLE_EVT_GAP_AUTH_FAILED:
 351              		.loc 1 233 0
 352 00de 6BE0     		b	.L4
 353              	.LVL44:
 354              	.L14:
 235:main.c        ****             DBG_PRINT_HEX8_TEXT( *(uint8 *)eventParam, "\r\n");
 355              		.loc 1 235 0
 356 00e0 4948     		ldr	r0, .L28+76
 357 00e2 FFF7FEFF 		bl	UART_PutString
 358              	.LVL45:
 236:main.c        ****             break;
 359              		.loc 1 236 0
 360 00e6 2078     		ldrb	r0, [r4]
 361 00e8 3A49     		ldr	r1, .L28+24
 362 00ea FFF7FEFF 		bl	DBG_PRINT_HEX8_TEXT
 363              	.LVL46:
 237:main.c        ****         case CYBLE_EVT_GAP_DEVICE_CONNECTED:
 364              		.loc 1 237 0
 365 00ee 63E0     		b	.L4
 366              	.LVL47:
 367              	.L16:
 239:main.c        ****             DBG_PRINT_DEC_TEXT(connHandle.bdHandle, "\r\n");
 368              		.loc 1 239 0
 369 00f0 4648     		ldr	r0, .L28+80
 370 00f2 FFF7FEFF 		bl	UART_PutString
ARM GAS  C:\Users\Tymek\AppData\Local\Temp\ccyPI6X6.s 			page 14


 371              	.LVL48:
 240:main.c        ****             if ((*(CYBLE_GAP_CONN_PARAM_UPDATED_IN_CONTROLLER_T *)eventParam).connIntv > CYBLE_GAPP
 372              		.loc 1 240 0
 373 00f6 464B     		ldr	r3, .L28+84
 374 00f8 1878     		ldrb	r0, [r3]
 375 00fa 3649     		ldr	r1, .L28+24
 376 00fc FFF7FEFF 		bl	DBG_PRINT_DEC_TEXT
 377              	.LVL49:
 241:main.c        ****             {
 378              		.loc 1 241 0
 379 0100 6388     		ldrh	r3, [r4, #2]
 380 0102 062B     		cmp	r3, #6
 381 0104 58D9     		bls	.L4
 244:main.c        ****                 connUpdateParam.connIntvMax = CYBLE_GAPP_CONNECTION_INTERVAL_MAX;
 382              		.loc 1 244 0
 383 0106 0623     		movs	r3, #6
 384 0108 6A46     		mov	r2, sp
 385 010a 1380     		strh	r3, [r2]
 245:main.c        ****                 connUpdateParam.connLatency = CYBLE_GAPP_CONNECTION_SLAVE_LATENCY;
 386              		.loc 1 245 0
 387 010c 5380     		strh	r3, [r2, #2]
 246:main.c        ****                 connUpdateParam.supervisionTO = CYBLE_GAPP_CONNECTION_TIME_OUT;
 388              		.loc 1 246 0
 389 010e 0023     		movs	r3, #0
 390 0110 9380     		strh	r3, [r2, #4]
 247:main.c        ****                 apiResult = CyBle_L2capLeConnectionParamUpdateRequest(cyBle_connHandle.bdHandle, &c
 391              		.loc 1 247 0
 392 0112 6433     		adds	r3, r3, #100
 393 0114 D380     		strh	r3, [r2, #6]
 248:main.c        ****                 DBG_PRINT_TEXT("CyBle_L2capLeConnectionParamUpdateRequest API: 0x");
 394              		.loc 1 248 0
 395 0116 394B     		ldr	r3, .L28+64
 396 0118 1878     		ldrb	r0, [r3]
 397 011a 6946     		mov	r1, sp
 398 011c FFF7FEFF 		bl	CyBle_L2capLeConnectionParamUpdateRequest
 399              	.LVL50:
 400 0120 0400     		movs	r4, r0
 401              	.LVL51:
 249:main.c        ****                 DBG_PRINT_HEX8_TEXT(apiResult, "\r\n");
 402              		.loc 1 249 0
 403 0122 3C48     		ldr	r0, .L28+88
 404 0124 FFF7FEFF 		bl	UART_PutString
 405              	.LVL52:
 250:main.c        ****             }
 406              		.loc 1 250 0
 407 0128 2A49     		ldr	r1, .L28+24
 408 012a 2000     		movs	r0, r4
 409 012c FFF7FEFF 		bl	DBG_PRINT_HEX8_TEXT
 410              	.LVL53:
 411 0130 42E0     		b	.L4
 412              	.LVL54:
 413              	.L17:
 254:main.c        ****             apiResult = CyBle_GappStartAdvertisement(CYBLE_ADVERTISING_FAST);
 414              		.loc 1 254 0
 415 0132 3948     		ldr	r0, .L28+92
 416 0134 FFF7FEFF 		bl	UART_PutString
 417              	.LVL55:
ARM GAS  C:\Users\Tymek\AppData\Local\Temp\ccyPI6X6.s 			page 15


 255:main.c        ****             if(apiResult != CYBLE_ERROR_OK)
 418              		.loc 1 255 0
 419 0138 0020     		movs	r0, #0
 420 013a FFF7FEFF 		bl	CyBle_GappStartAdvertisement
 421              	.LVL56:
 422 013e 041E     		subs	r4, r0, #0
 423              	.LVL57:
 256:main.c        ****             {
 424              		.loc 1 256 0
 425 0140 3AD0     		beq	.L4
 258:main.c        ****                 DBG_PRINT_DEC_TEXT(apiResult, "\r\n");
 426              		.loc 1 258 0
 427 0142 2348     		ldr	r0, .L28+20
 428              	.LVL58:
 429 0144 FFF7FEFF 		bl	UART_PutString
 430              	.LVL59:
 259:main.c        ****             }
 431              		.loc 1 259 0
 432 0148 2249     		ldr	r1, .L28+24
 433 014a 2000     		movs	r0, r4
 434 014c FFF7FEFF 		bl	DBG_PRINT_DEC_TEXT
 435              	.LVL60:
 436 0150 32E0     		b	.L4
 437              	.LVL61:
 438              	.L18:
 263:main.c        ****             DBG_PRINT_HEX8_TEXT( *(uint8 *)eventParam, "\r\n");
 439              		.loc 1 263 0
 440 0152 3248     		ldr	r0, .L28+96
 441 0154 FFF7FEFF 		bl	UART_PutString
 442              	.LVL62:
 264:main.c        ****             break;
 443              		.loc 1 264 0
 444 0158 2078     		ldrb	r0, [r4]
 445 015a 1E49     		ldr	r1, .L28+24
 446 015c FFF7FEFF 		bl	DBG_PRINT_HEX8_TEXT
 447              	.LVL63:
 265:main.c        ****         case CYBLE_EVT_GAPC_CONNECTION_UPDATE_COMPLETE:
 448              		.loc 1 265 0
 449 0160 2AE0     		b	.L4
 450              	.LVL64:
 451              	.L19:
 267:main.c        ****             DBG_PRINT_HEX8_TEXT( *(uint8 *)eventParam, "\r\n");
 452              		.loc 1 267 0
 453 0162 2F48     		ldr	r0, .L28+100
 454 0164 FFF7FEFF 		bl	UART_PutString
 455              	.LVL65:
 268:main.c        ****             break;
 456              		.loc 1 268 0
 457 0168 2078     		ldrb	r0, [r4]
 458 016a 1A49     		ldr	r1, .L28+24
 459 016c FFF7FEFF 		bl	DBG_PRINT_HEX8_TEXT
 460              	.LVL66:
 269:main.c        ****         case CYBLE_EVT_GAPP_ADVERTISEMENT_START_STOP:
 461              		.loc 1 269 0
 462 0170 22E0     		b	.L4
 463              	.LVL67:
 464              	.L15:
ARM GAS  C:\Users\Tymek\AppData\Local\Temp\ccyPI6X6.s 			page 16


 271:main.c        ****             {   
 465              		.loc 1 271 0
 466 0172 2C4B     		ldr	r3, .L28+104
 467 0174 1B78     		ldrb	r3, [r3]
 468 0176 042B     		cmp	r3, #4
 469 0178 1ED1     		bne	.L4
 276:main.c        ****                 S_LED_Write(1u);
 470              		.loc 1 276 0
 471 017a 2B48     		ldr	r0, .L28+108
 472 017c FFF7FEFF 		bl	UART_PutString
 473              	.LVL68:
 277:main.c        ****                 SW2_S_ClearInterrupt();
 474              		.loc 1 277 0
 475 0180 0120     		movs	r0, #1
 476 0182 FFF7FEFF 		bl	S_LED_Write
 477              	.LVL69:
 278:main.c        ****                 Wakeup_Interrupt_ClearPending();
 478              		.loc 1 278 0
 479 0186 FFF7FEFF 		bl	SW2_S_ClearInterrupt
 480              	.LVL70:
 279:main.c        ****                 Wakeup_Interrupt_Start();
 481              		.loc 1 279 0
 482 018a FFF7FEFF 		bl	Wakeup_Interrupt_ClearPending
 483              	.LVL71:
 280:main.c        ****                 CySysPmHibernate();
 484              		.loc 1 280 0
 485 018e FFF7FEFF 		bl	Wakeup_Interrupt_Start
 486              	.LVL72:
 281:main.c        ****             }
 487              		.loc 1 281 0
 488 0192 FFF7FEFF 		bl	CySysPmHibernate
 489              	.LVL73:
 490 0196 0FE0     		b	.L4
 491              	.LVL74:
 492              	.L22:
 288:main.c        ****             break;
 493              		.loc 1 288 0
 494 0198 0222     		movs	r2, #2
 495 019a 1D48     		ldr	r0, .L28+84
 496 019c FFF7FEFF 		bl	memcpy
 497              	.LVL75:
 289:main.c        ****         case CYBLE_EVT_GATT_DISCONNECT_IND:
 498              		.loc 1 289 0
 499 01a0 0AE0     		b	.L4
 500              	.LVL76:
 501              	.L23:
 291:main.c        ****             break;
 502              		.loc 1 291 0
 503 01a2 0022     		movs	r2, #0
 504 01a4 1A4B     		ldr	r3, .L28+84
 505 01a6 1A70     		strb	r2, [r3]
 292:main.c        ****         case CYBLE_EVT_GATTS_PREP_WRITE_REQ:
 506              		.loc 1 292 0
 507 01a8 06E0     		b	.L4
 508              	.L24:
 294:main.c        ****             break;
 509              		.loc 1 294 0
ARM GAS  C:\Users\Tymek\AppData\Local\Temp\ccyPI6X6.s 			page 17


 510 01aa 0020     		movs	r0, #0
 511 01ac FFF7FEFF 		bl	CyBle_GattsPrepWriteReqSupport
 512              	.LVL77:
 295:main.c        ****         case CYBLE_EVT_HCI_STATUS:
 513              		.loc 1 295 0
 514 01b0 02E0     		b	.L4
 515              	.LVL78:
 516              	.L9:
 297:main.c        ****         default:
 517              		.loc 1 297 0
 518 01b2 1E48     		ldr	r0, .L28+112
 519 01b4 FFF7FEFF 		bl	UART_PutString
 520              	.LVL79:
 521              	.L4:
 301:main.c        **** 
 522              		.loc 1 301 0
 523 01b8 04B0     		add	sp, sp, #16
 524              		@ sp needed
 525 01ba 10BD     		pop	{r4, pc}
 526              	.L29:
 527              		.align	2
 528              	.L28:
 529 01bc 00000000 		.word	.L7
 530 01c0 31030000 		.word	817
 531 01c4 60F02E40 		.word	1076818016
 532 01c8 02030080 		.word	-2147482878
 533 01cc 08000340 		.word	1073938440
 534 01d0 70000000 		.word	.LC9
 535 01d4 00000000 		.word	.LC0
 536 01d8 90000000 		.word	.LC12
 537 01dc C0000000 		.word	.LC14
 538 01e0 DC000000 		.word	.LC16
 539 01e4 FC000000 		.word	.LC18
 540 01e8 0C010000 		.word	.LC20
 541 01ec 1C010000 		.word	.LC22
 542 01f0 28010000 		.word	.LC24
 543 01f4 68010000 		.word	.LC26
 544 01f8 8C010000 		.word	.LC28
 545 01fc 00000000 		.word	cyBle_connHandle
 546 0200 B8010000 		.word	.LC31
 547 0204 E0010000 		.word	.LC33
 548 0208 F4010000 		.word	.LC35
 549 020c 10020000 		.word	.LC37
 550 0210 00000000 		.word	connHandle
 551 0214 34020000 		.word	.LC40
 552 0218 68020000 		.word	.LC42
 553 021c 8C020000 		.word	.LC44
 554 0220 B0020000 		.word	.LC46
 555 0224 00000000 		.word	cyBle_state
 556 0228 DC020000 		.word	.LC49
 557 022c FC020000 		.word	.LC51
 558              		.cfi_endproc
 559              	.LFE37:
 560              		.size	AppCallBack, .-AppCallBack
 561              		.section	.text.main,"ax",%progbits
 562              		.align	2
 563              		.global	main
ARM GAS  C:\Users\Tymek\AppData\Local\Temp\ccyPI6X6.s 			page 18


 564              		.code	16
 565              		.thumb_func
 566              		.type	main, %function
 567              	main:
 568              	.LFB36:
  63:main.c        ****     CYBLE_API_RESULT_T apiResult;
 569              		.loc 1 63 0
 570              		.cfi_startproc
 571              		@ args = 0, pretend = 0, frame = 8
 572              		@ frame_needed = 0, uses_anonymous_args = 0
 573 0000 30B5     		push	{r4, r5, lr}
 574              		.cfi_def_cfa_offset 12
 575              		.cfi_offset 4, -12
 576              		.cfi_offset 5, -8
 577              		.cfi_offset 14, -4
 578 0002 83B0     		sub	sp, sp, #12
 579              		.cfi_def_cfa_offset 24
  72:main.c        ****     
 580              		.loc 1 72 0
 581 0004 FFF7FEFF 		bl	PrintProjectHeader
 582              	.LVL80:
  74:main.c        ****     
 583              		.loc 1 74 0
 584              		.syntax divided
 585              	@ 74 "main.c" 1
 586 0008 62B6     		CPSIE   i
 587              	@ 0 "" 2
  76:main.c        ****     
 588              		.loc 1 76 0
 589              		.thumb
 590              		.syntax unified
 591 000a 0020     		movs	r0, #0
 592 000c FFF7FEFF 		bl	S_LED_Write
 593              	.LVL81:
  79:main.c        ****     
 594              		.loc 1 79 0
 595 0010 FFF7FEFF 		bl	AfterImageUpdate
 596              	.LVL82:
  84:main.c        ****                                 (0u == (uint32) CY_GET_XTND_REG8((volatile uint8 *)APP_UPDATE_FLAG_
 597              		.loc 1 84 0
 598 0014 0120     		movs	r0, #1
 599 0016 FFF7FEFF 		bl	Loader_ValidateBootloadable
 600              	.LVL83:
 601 001a 0028     		cmp	r0, #0
 602 001c 0BD1     		bne	.L31
  85:main.c        ****     {
 603              		.loc 1 85 0 discriminator 1
 604 001e 2D4B     		ldr	r3, .L37
 605 0020 1B78     		ldrb	r3, [r3]
  84:main.c        ****                                 (0u == (uint32) CY_GET_XTND_REG8((volatile uint8 *)APP_UPDATE_FLAG_
 606              		.loc 1 84 0 discriminator 1
 607 0022 002B     		cmp	r3, #0
 608 0024 07D1     		bne	.L31
  87:main.c        ****         Bootloadable_SetActiveApplication(1u);
 609              		.loc 1 87 0
 610 0026 2C48     		ldr	r0, .L37+4
 611 0028 FFF7FEFF 		bl	UART_PutString
ARM GAS  C:\Users\Tymek\AppData\Local\Temp\ccyPI6X6.s 			page 19


 612              	.LVL84:
  88:main.c        ****         CySoftwareReset();
 613              		.loc 1 88 0
 614 002c 0120     		movs	r0, #1
 615 002e FFF7FEFF 		bl	Bootloadable_SetActiveApplication
 616              	.LVL85:
  89:main.c        ****     }
 617              		.loc 1 89 0
 618 0032 FFF7FEFF 		bl	CySoftwareReset
 619              	.LVL86:
 620              	.L31:
  92:main.c        ****     
 621              		.loc 1 92 0
 622 0036 2948     		ldr	r0, .L37+8
 623 0038 FFF7FEFF 		bl	CyBle_Start
 624              	.LVL87:
 625 003c 051E     		subs	r5, r0, #0
 626              	.LVL88:
  94:main.c        ****     {
 627              		.loc 1 94 0
 628 003e 13D0     		beq	.L32
  96:main.c        ****         DBG_PRINT_DEC_TEXT(apiResult, "\r\n");
 629              		.loc 1 96 0
 630 0040 2748     		ldr	r0, .L37+12
 631              	.LVL89:
 632 0042 FFF7FEFF 		bl	UART_PutString
 633              	.LVL90:
  97:main.c        ****         if(apiResult == CYBLE_ERROR_MEMORY_ALLOCATION_FAILED)
 634              		.loc 1 97 0
 635 0046 2749     		ldr	r1, .L37+16
 636 0048 2800     		movs	r0, r5
 637 004a FFF7FEFF 		bl	DBG_PRINT_DEC_TEXT
 638              	.LVL91:
  98:main.c        ****         {
 639              		.loc 1 98 0
 640 004e 032D     		cmp	r5, #3
 641 0050 33D1     		bne	.L33
 103:main.c        ****             DBG_PRINT_HEX_TEXT(CYBLE_STACK_RAM_SIZE, "\r\n");
 642              		.loc 1 103 0
 643 0052 2548     		ldr	r0, .L37+20
 644 0054 FFF7FEFF 		bl	UART_PutString
 645              	.LVL92:
 104:main.c        ****             DBG_PRINT_TEXT("Execution halted.\r\n");
 646              		.loc 1 104 0
 647 0058 2249     		ldr	r1, .L37+16
 648 005a 2448     		ldr	r0, .L37+24
 649 005c FFF7FEFF 		bl	DBG_PRINT_HEX_TEXT
 650              	.LVL93:
 105:main.c        ****             while (1u == 1u)
 651              		.loc 1 105 0
 652 0060 2348     		ldr	r0, .L37+28
 653 0062 FFF7FEFF 		bl	UART_PutString
 654              	.LVL94:
 655              	.L34:
 656 0066 FEE7     		b	.L34
 657              	.LVL95:
 658              	.L32:
ARM GAS  C:\Users\Tymek\AppData\Local\Temp\ccyPI6X6.s 			page 20


 114:main.c        ****         if(apiResult != CYBLE_ERROR_OK)
 659              		.loc 1 114 0
 660 0068 6846     		mov	r0, sp
 661              	.LVL96:
 662 006a FFF7FEFF 		bl	CyBle_GetStackLibraryVersion
 663              	.LVL97:
 664 006e 041E     		subs	r4, r0, #0
 665              	.LVL98:
 115:main.c        ****         {
 666              		.loc 1 115 0
 667 0070 07D0     		beq	.L35
 117:main.c        ****             DBG_PRINT_HEX8_TEXT(apiResult, "\r\n");
 668              		.loc 1 117 0
 669 0072 2048     		ldr	r0, .L37+32
 670              	.LVL99:
 671 0074 FFF7FEFF 		bl	UART_PutString
 672              	.LVL100:
 118:main.c        ****         }
 673              		.loc 1 118 0
 674 0078 1A49     		ldr	r1, .L37+16
 675 007a 2000     		movs	r0, r4
 676 007c FFF7FEFF 		bl	DBG_PRINT_HEX8_TEXT
 677              	.LVL101:
 678 0080 1BE0     		b	.L33
 679              	.LVL102:
 680              	.L35:
 122:main.c        ****             DBG_PRINT_DEC_TEXT(stackVersion.majorVersion, ".");
 681              		.loc 1 122 0
 682 0082 1D48     		ldr	r0, .L37+36
 683              	.LVL103:
 684 0084 FFF7FEFF 		bl	UART_PutString
 685              	.LVL104:
 123:main.c        ****             DBG_PRINT_DEC_TEXT(stackVersion.minorVersion, ".");
 686              		.loc 1 123 0
 687 0088 6B46     		mov	r3, sp
 688 008a 1888     		ldrh	r0, [r3]
 689 008c 1B4C     		ldr	r4, .L37+40
 690 008e 2100     		movs	r1, r4
 691 0090 FFF7FEFF 		bl	DBG_PRINT_DEC_TEXT
 692              	.LVL105:
 124:main.c        ****             DBG_PRINT_DEC_TEXT(stackVersion.patch,        ".");
 693              		.loc 1 124 0
 694 0094 6B46     		mov	r3, sp
 695 0096 5888     		ldrh	r0, [r3, #2]
 696 0098 2100     		movs	r1, r4
 697 009a FFF7FEFF 		bl	DBG_PRINT_DEC_TEXT
 698              	.LVL106:
 125:main.c        ****             DBG_PRINT_DEC_TEXT(stackVersion.buildNumber,  ", used Heap: ");
 699              		.loc 1 125 0
 700 009e 6B46     		mov	r3, sp
 701 00a0 9888     		ldrh	r0, [r3, #4]
 702 00a2 2100     		movs	r1, r4
 703 00a4 FFF7FEFF 		bl	DBG_PRINT_DEC_TEXT
 704              	.LVL107:
 126:main.c        ****             DBG_PRINT_DEC_TEXT(CYBLE_STACK_RAM_SIZE, "\r\n");
 705              		.loc 1 126 0
 706 00a8 6B46     		mov	r3, sp
ARM GAS  C:\Users\Tymek\AppData\Local\Temp\ccyPI6X6.s 			page 21


 707 00aa D888     		ldrh	r0, [r3, #6]
 708 00ac 1449     		ldr	r1, .L37+44
 709 00ae FFF7FEFF 		bl	DBG_PRINT_DEC_TEXT
 710              	.LVL108:
 127:main.c        ****         }
 711              		.loc 1 127 0
 712 00b2 0C49     		ldr	r1, .L37+16
 713 00b4 0D48     		ldr	r0, .L37+24
 714 00b6 FFF7FEFF 		bl	DBG_PRINT_DEC_TEXT
 715              	.LVL109:
 716              	.L33:
 132:main.c        ****     
 717              		.loc 1 132 0
 718 00ba FFF7FEFF 		bl	Loader_Initialize
 719              	.LVL110:
 720              	.L36:
 136:main.c        ****         Loader_HostLink(5u);
 721              		.loc 1 136 0 discriminator 1
 722 00be FFF7FEFF 		bl	CyBle_ProcessEvents
 723              	.LVL111:
 137:main.c        ****         
 724              		.loc 1 137 0 discriminator 1
 725 00c2 0520     		movs	r0, #5
 726 00c4 FFF7FEFF 		bl	Loader_HostLink
 727              	.LVL112:
 140:main.c        ****         
 728              		.loc 1 140 0 discriminator 1
 729 00c8 0520     		movs	r0, #5
 730 00ca FFF7FEFF 		bl	CyDelay
 731              	.LVL113:
 142:main.c        ****     }
 732              		.loc 1 142 0 discriminator 1
 733 00ce FFF7FEFF 		bl	TimeoutImplementation
 734              	.LVL114:
 735 00d2 F4E7     		b	.L36
 736              	.L38:
 737              		.align	2
 738              	.L37:
 739 00d4 14FE0300 		.word	261652
 740 00d8 14030000 		.word	.LC53
 741 00dc 00000000 		.word	AppCallBack
 742 00e0 48030000 		.word	.LC56
 743 00e4 00000000 		.word	.LC0
 744 00e8 60030000 		.word	.LC59
 745 00ec 54120000 		.word	4692
 746 00f0 98030000 		.word	.LC61
 747 00f4 AC030000 		.word	.LC63
 748 00f8 D8030000 		.word	.LC65
 749 00fc E8030000 		.word	.LC67
 750 0100 EC030000 		.word	.LC69
 751              		.cfi_endproc
 752              	.LFE36:
 753              		.size	main, .-main
 754              		.comm	connHandle,2,4
 755              		.section	.rodata.str1.4,"aMS",%progbits,1
 756              		.align	2
 757              	.LC0:
ARM GAS  C:\Users\Tymek\AppData\Local\Temp\ccyPI6X6.s 			page 22


 758 0000 0D0A00   		.ascii	"\015\012\000"
 759 0003 00       		.space	1
 760              	.LC2:
 761 0004 3E20424C 		.ascii	"> BLE Upgradable Stack Example Stack\015\012\000"
 761      45205570 
 761      67726164 
 761      61626C65 
 761      20537461 
 762 002b 00       		.space	1
 763              	.LC4:
 764 002c 3E205665 		.ascii	"> Version: 1.20\015\012\000"
 764      7273696F 
 764      6E3A2031 
 764      2E32300D 
 764      0A00
 765 003e 0000     		.space	2
 766              	.LC6:
 767 0040 3E20436F 		.ascii	"> Compile Date and Time: Jul 30 2019 18:26:06\015\012"
 767      6D70696C 
 767      65204461 
 767      74652061 
 767      6E642054 
 768 006f 00       		.ascii	"\000"
 769              	.LC9:
 770 0070 53746172 		.ascii	"StartAdvertisement API Error: \000"
 770      74416476 
 770      65727469 
 770      73656D65 
 770      6E742041 
 771 008f 00       		.space	1
 772              	.LC12:
 773 0090 426C7565 		.ascii	"Bluetooth On, StartAdvertisement with addr: \000"
 773      746F6F74 
 773      68204F6E 
 773      2C205374 
 773      61727441 
 774 00bd 000000   		.space	3
 775              	.LC14:
 776 00c0 4359424C 		.ascii	"CYBLE_EVT_HARDWARE_ERROR\015\012\000"
 776      455F4556 
 776      545F4841 
 776      52445741 
 776      52455F45 
 777 00db 00       		.space	1
 778              	.LC16:
 779 00dc 4359424C 		.ascii	"CYBLE_EVT_AUTH_REQ: security=0x\000"
 779      455F4556 
 779      545F4155 
 779      54485F52 
 779      45513A20 
 780              	.LC18:
 781 00fc 2C20626F 		.ascii	", bonding=0x\000"
 781      6E64696E 
 781      673D3078 
 781      00
 782 0109 000000   		.space	3
 783              	.LC20:
ARM GAS  C:\Users\Tymek\AppData\Local\Temp\ccyPI6X6.s 			page 23


 784 010c 2C20656B 		.ascii	", ekeySize=0x\000"
 784      65795369 
 784      7A653D30 
 784      7800
 785 011a 0000     		.space	2
 786              	.LC22:
 787 011c 2C206572 		.ascii	", err=0x\000"
 787      723D3078 
 787      00
 788 0125 000000   		.space	3
 789              	.LC24:
 790 0128 4359424C 		.ascii	"CYBLE_EVT_PASSKEY_ENTRY_REQUEST press 'p' to enter "
 790      455F4556 
 790      545F5041 
 790      53534B45 
 790      595F454E 
 791 015b 70617373 		.ascii	"passkey \015\012\000"
 791      6B657920 
 791      0D0A00
 792 0166 0000     		.space	2
 793              	.LC26:
 794 0168 4359424C 		.ascii	"CYBLE_EVT_PASSKEY_DISPLAY_REQUEST: \000"
 794      455F4556 
 794      545F5041 
 794      53534B45 
 794      595F4449 
 795              	.LC28:
 796 018c 4359424C 		.ascii	"CYBLE_EVT_GAP_NUMERIC_COMPARISON_REQUEST\015\012\000"
 796      455F4556 
 796      545F4741 
 796      505F4E55 
 796      4D455249 
 797 01b7 00       		.space	1
 798              	.LC31:
 799 01b8 4359424C 		.ascii	"CYBLE_EVT_GAP_KEYINFO_EXCHNGE_CMPLT \015\012\000"
 799      455F4556 
 799      545F4741 
 799      505F4B45 
 799      59494E46 
 800 01df 00       		.space	1
 801              	.LC33:
 802 01e0 41555448 		.ascii	"AUTH_COMPLETE \015\012\000"
 802      5F434F4D 
 802      504C4554 
 802      45200D0A 
 802      00
 803 01f1 000000   		.space	3
 804              	.LC35:
 805 01f4 4359424C 		.ascii	"CYBLE_EVT_AUTH_FAILED: 0x\000"
 805      455F4556 
 805      545F4155 
 805      54485F46 
 805      41494C45 
 806 020e 0000     		.space	2
 807              	.LC37:
 808 0210 4359424C 		.ascii	"CYBLE_EVT_GAP_DEVICE_CONNECTED: \000"
 808      455F4556 
ARM GAS  C:\Users\Tymek\AppData\Local\Temp\ccyPI6X6.s 			page 24


 808      545F4741 
 808      505F4445 
 808      56494345 
 809 0231 000000   		.space	3
 810              	.LC40:
 811 0234 4379426C 		.ascii	"CyBle_L2capLeConnectionParamUpdateRequest API: 0x\000"
 811      655F4C32 
 811      6361704C 
 811      65436F6E 
 811      6E656374 
 812 0266 0000     		.space	2
 813              	.LC42:
 814 0268 4359424C 		.ascii	"CYBLE_EVT_GAP_DEVICE_DISCONNECTED\015\012\000"
 814      455F4556 
 814      545F4741 
 814      505F4445 
 814      56494345 
 815              	.LC44:
 816 028c 4359424C 		.ascii	"CYBLE_EVT_GAP_ENCRYPT_CHANGE: 0x\000"
 816      455F4556 
 816      545F4741 
 816      505F454E 
 816      43525950 
 817 02ad 000000   		.space	3
 818              	.LC46:
 819 02b0 4359424C 		.ascii	"CYBLE_EVT_CONNECTION_UPDATE_COMPLETE: 0x\000"
 819      455F4556 
 819      545F434F 
 819      4E4E4543 
 819      54494F4E 
 820 02d9 000000   		.space	3
 821              	.LC49:
 822 02dc 456E7465 		.ascii	"Entering low power mode...\015\012\000"
 822      72696E67 
 822      206C6F77 
 822      20706F77 
 822      6572206D 
 823 02f9 000000   		.space	3
 824              	.LC51:
 825 02fc 4359424C 		.ascii	"CYBLE_EVT_HCI_STATUS\015\012\000"
 825      455F4556 
 825      545F4843 
 825      495F5354 
 825      41545553 
 826 0313 00       		.space	1
 827              	.LC53:
 828 0314 4170706C 		.ascii	"Application is ready to be launched. Doing so.\015\012"
 828      69636174 
 828      696F6E20 
 828      69732072 
 828      65616479 
 829 0344 00       		.ascii	"\000"
 830 0345 000000   		.space	3
 831              	.LC56:
 832 0348 4379426C 		.ascii	"CyBle_Start API Error: \000"
 832      655F5374 
 832      61727420 
ARM GAS  C:\Users\Tymek\AppData\Local\Temp\ccyPI6X6.s 			page 25


 832      41504920 
 832      4572726F 
 833              	.LC59:
 834 0360 4D454D4F 		.ascii	"MEMORY_ALLOCATION_FAILED need additional Heap size:"
 834      52595F41 
 834      4C4C4F43 
 834      4154494F 
 834      4E5F4641 
 835 0393 20307800 		.ascii	" 0x\000"
 836 0397 00       		.space	1
 837              	.LC61:
 838 0398 45786563 		.ascii	"Execution halted.\015\012\000"
 838      7574696F 
 838      6E206861 
 838      6C746564 
 838      2E0D0A00 
 839              	.LC63:
 840 03ac 4379426C 		.ascii	"CyBle_GetStackLibraryVersion API Error: 0x\000"
 840      655F4765 
 840      74537461 
 840      636B4C69 
 840      62726172 
 841 03d7 00       		.space	1
 842              	.LC65:
 843 03d8 53746163 		.ascii	"Stack Version: \000"
 843      6B205665 
 843      7273696F 
 843      6E3A2000 
 844              	.LC67:
 845 03e8 2E00     		.ascii	".\000"
 846 03ea 0000     		.space	2
 847              	.LC69:
 848 03ec 2C207573 		.ascii	", used Heap: \000"
 848      65642048 
 848      6561703A 
 848      2000
 849              		.text
 850              	.Letext0:
 851              		.file 2 "Generated_Source\\PSoC4/cytypes.h"
 852              		.file 3 "Generated_Source\\PSoC4/CyBle_Stack.h"
 853              		.file 4 "Generated_Source\\PSoC4/CyBle_StackGap.h"
 854              		.file 5 "Generated_Source\\PSoC4/CyBle_StackGatt.h"
 855              		.file 6 "Generated_Source\\PSoC4/CyBle_eventHandler.h"
 856              		.file 7 "Generated_Source\\PSoC4/UART.h"
 857              		.file 8 "Generated_Source\\PSoC4/CSD.h"
 858              		.file 9 "Generated_Source\\PSoC4/CPS.h"
 859              		.file 10 "Generated_Source\\PSoC4/CyBle.h"
 860              		.file 11 "debug.h"
 861              		.file 12 "Generated_Source\\PSoC4/CyBle_StackL2cap.h"
 862              		.file 13 "Generated_Source\\PSoC4/S_LED.h"
 863              		.file 14 "Generated_Source\\PSoC4/SW2_S.h"
 864              		.file 15 "Generated_Source\\PSoC4/Wakeup_Interrupt.h"
 865              		.file 16 "Generated_Source\\PSoC4/cyPm.h"
 866              		.file 17 "Generated_Source\\PSoC4/CyBle_StackGattServer.h"
 867              		.file 18 "ota_optional.h"
 868              		.file 19 "Generated_Source\\PSoC4/Loader.h"
 869              		.file 20 "Generated_Source\\PSoC4/Bootloadable.h"
ARM GAS  C:\Users\Tymek\AppData\Local\Temp\ccyPI6X6.s 			page 26


 870              		.file 21 "Generated_Source\\PSoC4/CyLib.h"