ARM GAS  C:\Users\Tymek\AppData\Local\Temp\cc8Btfy6.s 			page 1


   1              		.syntax unified
   2              		.cpu cortex-m0
   3              		.fpu softvfp
   4              		.eabi_attribute 20, 1
   5              		.eabi_attribute 21, 1
   6              		.eabi_attribute 23, 3
   7              		.eabi_attribute 24, 1
   8              		.eabi_attribute 25, 1
   9              		.eabi_attribute 26, 1
  10              		.eabi_attribute 30, 1
  11              		.eabi_attribute 34, 0
  12              		.eabi_attribute 18, 4
  13              		.thumb
  14              		.syntax unified
  15              		.file	"ledStrip.c"
  16              		.text
  17              	.Ltext0:
  18              		.cfi_sections	.debug_frame
  19              		.section	.text.ledStrip_FISR,"ax",%progbits
  20              		.align	2
  21              		.global	ledStrip_FISR
  22              		.code	16
  23              		.thumb_func
  24              		.type	ledStrip_FISR, %function
  25              	ledStrip_FISR:
  26              	.LFB40:
  27              		.file 1 "Generated_Source\\PSoC4\\ledStrip.c"
   1:Generated_Source\PSoC4/ledStrip.c **** /* =========================================================
   2:Generated_Source\PSoC4/ledStrip.c ****  *
   3:Generated_Source\PSoC4/ledStrip.c ****  * Strip Light Controller
   4:Generated_Source\PSoC4/ledStrip.c ****  * By Mark Hastings
   5:Generated_Source\PSoC4/ledStrip.c ****  *
   6:Generated_Source\PSoC4/ledStrip.c ****  * 05/27/2013  v1.0  Mark Hastings   Initial working version
   7:Generated_Source\PSoC4/ledStrip.c ****  * 09/04/2013  v1.3  Mark Hastings   Add more features and color lookup.
   8:Generated_Source\PSoC4/ledStrip.c ****  * 12/02/2013  v1.6  Mark Hastings   Added a couple more functions.
   9:Generated_Source\PSoC4/ledStrip.c ****  *
  10:Generated_Source\PSoC4/ledStrip.c ****  * This file contains the functions required to control each
  11:Generated_Source\PSoC4/ledStrip.c ****  * lighting control channel.
  12:Generated_Source\PSoC4/ledStrip.c ****  *
  13:Generated_Source\PSoC4/ledStrip.c ****  * =========================================================
  14:Generated_Source\PSoC4/ledStrip.c **** */
  15:Generated_Source\PSoC4/ledStrip.c **** 
  16:Generated_Source\PSoC4/ledStrip.c **** #include <project.h>
  17:Generated_Source\PSoC4/ledStrip.c **** #include "cytypes.h"
  18:Generated_Source\PSoC4/ledStrip.c **** #include "stdlib.h"
  19:Generated_Source\PSoC4/ledStrip.c **** #include "cyfitter.h"
  20:Generated_Source\PSoC4/ledStrip.c **** #include "ledStrip.h"
  21:Generated_Source\PSoC4/ledStrip.c **** #include "ledStrip_fonts.h"
  22:Generated_Source\PSoC4/ledStrip.c **** 
  23:Generated_Source\PSoC4/ledStrip.c **** uint8  ledStrip_initvar = 0;
  24:Generated_Source\PSoC4/ledStrip.c **** 
  25:Generated_Source\PSoC4/ledStrip.c **** #if(ledStrip_MEMORY_TYPE == ledStrip_MEMORY_RGB)
  26:Generated_Source\PSoC4/ledStrip.c **** uint32  ledStrip_ledArray[ledStrip_ARRAY_ROWS][ledStrip_ARRAY_COLS];
  27:Generated_Source\PSoC4/ledStrip.c **** #else
  28:Generated_Source\PSoC4/ledStrip.c **** uint8   ledStrip_ledArray[ledStrip_ARRAY_ROWS][ledStrip_ARRAY_COLS];
  29:Generated_Source\PSoC4/ledStrip.c **** #endif
  30:Generated_Source\PSoC4/ledStrip.c **** 
ARM GAS  C:\Users\Tymek\AppData\Local\Temp\cc8Btfy6.s 			page 2


  31:Generated_Source\PSoC4/ledStrip.c **** uint32  ledStrip_ledIndex = 0;  
  32:Generated_Source\PSoC4/ledStrip.c **** uint32  ledStrip_row = 0;
  33:Generated_Source\PSoC4/ledStrip.c **** uint32  ledStrip_refreshComplete;
  34:Generated_Source\PSoC4/ledStrip.c **** 
  35:Generated_Source\PSoC4/ledStrip.c **** uint32  ledStrip_DimMask;
  36:Generated_Source\PSoC4/ledStrip.c **** uint32  ledStrip_DimShift;
  37:Generated_Source\PSoC4/ledStrip.c **** 
  38:Generated_Source\PSoC4/ledStrip.c **** 
  39:Generated_Source\PSoC4/ledStrip.c **** #if(ledStrip_CHIP == ledStrip_CHIP_WS2812)
  40:Generated_Source\PSoC4/ledStrip.c **** const uint32 ledStrip_CLUT[ ] = {
  41:Generated_Source\PSoC4/ledStrip.c **** //xxBBRRGG (WS2812)
  42:Generated_Source\PSoC4/ledStrip.c **** //     (24)   [ Index = 0 ]
  43:Generated_Source\PSoC4/ledStrip.c **** 0x0000FFFF,  // 0 Yellow
  44:Generated_Source\PSoC4/ledStrip.c **** 0x0000CCFF,
  45:Generated_Source\PSoC4/ledStrip.c **** 0x000099FF,
  46:Generated_Source\PSoC4/ledStrip.c **** 0x000033FF,
  47:Generated_Source\PSoC4/ledStrip.c **** 0x000000FF,  // 5  Green
  48:Generated_Source\PSoC4/ledStrip.c **** 0x006600B3,
  49:Generated_Source\PSoC4/ledStrip.c **** 0x00990099, 
  50:Generated_Source\PSoC4/ledStrip.c **** 0x00B30066, 
  51:Generated_Source\PSoC4/ledStrip.c **** 0x00CC0033,  // 9 Blue
  52:Generated_Source\PSoC4/ledStrip.c **** 0x00B31919, 
  53:Generated_Source\PSoC4/ledStrip.c **** 0x00993300, 
  54:Generated_Source\PSoC4/ledStrip.c **** 0x00994000, 
  55:Generated_Source\PSoC4/ledStrip.c **** 0x00996600, 
  56:Generated_Source\PSoC4/ledStrip.c **** 0x00999900, 
  57:Generated_Source\PSoC4/ledStrip.c **** 0x0099CC00, 
  58:Generated_Source\PSoC4/ledStrip.c **** 0x0066E600, 
  59:Generated_Source\PSoC4/ledStrip.c **** 0x0000FF00, 
  60:Generated_Source\PSoC4/ledStrip.c **** 0x0000FF33, 
  61:Generated_Source\PSoC4/ledStrip.c **** 0x0000FF66, 
  62:Generated_Source\PSoC4/ledStrip.c **** 0x0000FF80, 
  63:Generated_Source\PSoC4/ledStrip.c **** 0x0000FF99,  // 20 Orange
  64:Generated_Source\PSoC4/ledStrip.c **** 0x0000FFB2, 
  65:Generated_Source\PSoC4/ledStrip.c **** 0x0000FFCC, 
  66:Generated_Source\PSoC4/ledStrip.c **** 0x0000FFE5,
  67:Generated_Source\PSoC4/ledStrip.c **** // #24
  68:Generated_Source\PSoC4/ledStrip.c **** 
  69:Generated_Source\PSoC4/ledStrip.c **** //xxBBRRGG  (64)  [ Index = 24 ]
  70:Generated_Source\PSoC4/ledStrip.c **** 0x00000000, 0x00550000, 0x00AA0000, 0x00FF0000,  // 0, Black,  LtBlue, MBlue, Blue
  71:Generated_Source\PSoC4/ledStrip.c **** 0x00000055, 0x00550055, 0x00AA0055, 0x00FF0055,  // 4, LtGreen
  72:Generated_Source\PSoC4/ledStrip.c **** 0x000000AA, 0x005500AA, 0x00AA00AA, 0x00FF00AA,  // 8, MGreen
  73:Generated_Source\PSoC4/ledStrip.c **** 0x000000FF, 0x005500FF, 0x00AA00FF, 0x00FF00FF,  // 12 Green
  74:Generated_Source\PSoC4/ledStrip.c **** 
  75:Generated_Source\PSoC4/ledStrip.c **** 0x00005500, 0x00555500, 0x00AA5500, 0x00FF5500,  // 16, LtRed
  76:Generated_Source\PSoC4/ledStrip.c **** 0x00005555, 0x00555555, 0x00AA5555, 0x00FF5555,  // 20, LtYellow
  77:Generated_Source\PSoC4/ledStrip.c **** 0x000055AA, 0x005555AA, 0x00AA55AA, 0x00FF55AA,  // 24, 
  78:Generated_Source\PSoC4/ledStrip.c **** 0x000055FF, 0x005555FF, 0x00AA55FF, 0x00FF55FF,  // 28,
  79:Generated_Source\PSoC4/ledStrip.c **** 
  80:Generated_Source\PSoC4/ledStrip.c **** 0x0000AA00, 0x0055AA00, 0x00AAAA00, 0x00FFAA00,  // 32, MRed
  81:Generated_Source\PSoC4/ledStrip.c **** 0x0000AA55, 0x0055AA55, 0x00AAAA55, 0x00FFAA55,  // 36, 
  82:Generated_Source\PSoC4/ledStrip.c **** 0x0000AAAA, 0x0055AAAA, 0x00AAAAAA, 0x00FFAAAA,  // 55, 
  83:Generated_Source\PSoC4/ledStrip.c **** 0x0000AAFF, 0x0055AAFF, 0x00AAAAFF, 0x00FFAAFF,  // 44, 
  84:Generated_Source\PSoC4/ledStrip.c **** 
  85:Generated_Source\PSoC4/ledStrip.c **** 0x0000FF00, 0x0055FF00, 0x00AAFF00, 0x00FFFF00,  // 48, Red, ??, ??, Magenta
  86:Generated_Source\PSoC4/ledStrip.c **** 0x0000FF55, 0x0055FF55, 0x00AAFF55, 0x00FFFF55,  // 52,
  87:Generated_Source\PSoC4/ledStrip.c **** 0x0000FFAA, 0x0055FFAA, 0x00AAFFAA, 0x00FFFFAA,  // 56,
ARM GAS  C:\Users\Tymek\AppData\Local\Temp\cc8Btfy6.s 			page 3


  88:Generated_Source\PSoC4/ledStrip.c **** 0x0000FFFF, 0x0055FFFF, 0x00AAFFFF, 0x00FFFFFF,  // 60, Yellow,??, ??, White
  89:Generated_Source\PSoC4/ledStrip.c **** 
  90:Generated_Source\PSoC4/ledStrip.c **** // Misc ( 16 )  [ Index = 88 ]
  91:Generated_Source\PSoC4/ledStrip.c **** 0x000080FF,  // SPRING_GREEN
  92:Generated_Source\PSoC4/ledStrip.c **** 0x008000FF,  // TURQUOSE
  93:Generated_Source\PSoC4/ledStrip.c **** 0x00FF00FF,  // CYAN
  94:Generated_Source\PSoC4/ledStrip.c **** 0x00FF0080,  // OCEAN
  95:Generated_Source\PSoC4/ledStrip.c **** 0x00FF8000,  // VIOLET
  96:Generated_Source\PSoC4/ledStrip.c **** 0x0080FF00,  // RASPBERRY
  97:Generated_Source\PSoC4/ledStrip.c **** 0x000000FF,  // GREEN
  98:Generated_Source\PSoC4/ledStrip.c **** 0x00202020,  // DIM WHITE
  99:Generated_Source\PSoC4/ledStrip.c **** 0x00200000,  // DIM BLUE
 100:Generated_Source\PSoC4/ledStrip.c **** 0x10000000,  // INVISIBLE
 101:Generated_Source\PSoC4/ledStrip.c **** 0x00000000,  // Spare
 102:Generated_Source\PSoC4/ledStrip.c **** 0x00000000,  // Spare
 103:Generated_Source\PSoC4/ledStrip.c **** 0x00000000,  // Spare
 104:Generated_Source\PSoC4/ledStrip.c **** 0x00000000,  // Spare
 105:Generated_Source\PSoC4/ledStrip.c **** 0x00000000,  // Spare
 106:Generated_Source\PSoC4/ledStrip.c **** 0x00000000,  // Spare
 107:Generated_Source\PSoC4/ledStrip.c **** 
 108:Generated_Source\PSoC4/ledStrip.c **** // Temperture Color Blue to Red (16) [ Index = 104 ]
 109:Generated_Source\PSoC4/ledStrip.c **** 0x00FF0000, 0x00F01000, 0x00E02000, 0x00D03000,
 110:Generated_Source\PSoC4/ledStrip.c **** 0x00C04000, 0x00B05000, 0x00A06000, 0x00907000,
 111:Generated_Source\PSoC4/ledStrip.c **** 0x00808000, 0x00709000, 0x0060A000, 0x0050B000,
 112:Generated_Source\PSoC4/ledStrip.c **** 0x0040C000, 0x0030D000, 0x0020E000, 0x0000FF00
 113:Generated_Source\PSoC4/ledStrip.c **** };
 114:Generated_Source\PSoC4/ledStrip.c **** #else  //xxBBGGRR (WS2811)
 115:Generated_Source\PSoC4/ledStrip.c **** const uint32 ledStrip_CLUT[ ] = {
 116:Generated_Source\PSoC4/ledStrip.c **** //     (24)   [ Index = 0 ]
 117:Generated_Source\PSoC4/ledStrip.c **** 0x0000FFFF,  // 0 Yellow
 118:Generated_Source\PSoC4/ledStrip.c **** 0x0000FFCC,
 119:Generated_Source\PSoC4/ledStrip.c **** 0x0000FF99,
 120:Generated_Source\PSoC4/ledStrip.c **** 0x0000FF33,
 121:Generated_Source\PSoC4/ledStrip.c **** 0x0000FF00,  // 5  Green
 122:Generated_Source\PSoC4/ledStrip.c **** 0x0066B300,
 123:Generated_Source\PSoC4/ledStrip.c **** 0x00999900, 
 124:Generated_Source\PSoC4/ledStrip.c **** 0x00B36600, 
 125:Generated_Source\PSoC4/ledStrip.c **** 0x00CC3300,  // 9 Blue
 126:Generated_Source\PSoC4/ledStrip.c **** 0x00B31919, 
 127:Generated_Source\PSoC4/ledStrip.c **** 0x00990033, 
 128:Generated_Source\PSoC4/ledStrip.c **** 0x00990040, 
 129:Generated_Source\PSoC4/ledStrip.c **** 0x00990066, 
 130:Generated_Source\PSoC4/ledStrip.c **** 0x00990099, 
 131:Generated_Source\PSoC4/ledStrip.c **** 0x009900CC, 
 132:Generated_Source\PSoC4/ledStrip.c **** 0x006600E6, 
 133:Generated_Source\PSoC4/ledStrip.c **** 0x000000FF, 
 134:Generated_Source\PSoC4/ledStrip.c **** 0x000033FF, 
 135:Generated_Source\PSoC4/ledStrip.c **** 0x000066FF, 
 136:Generated_Source\PSoC4/ledStrip.c **** 0x000080FF, 
 137:Generated_Source\PSoC4/ledStrip.c **** 0x000099FF,  // 20 Orange
 138:Generated_Source\PSoC4/ledStrip.c **** 0x0000B2FF, 
 139:Generated_Source\PSoC4/ledStrip.c **** 0x0000CCFF, 
 140:Generated_Source\PSoC4/ledStrip.c **** 0x0000E5FF,
 141:Generated_Source\PSoC4/ledStrip.c **** // #24
 142:Generated_Source\PSoC4/ledStrip.c **** 
 143:Generated_Source\PSoC4/ledStrip.c **** //xxBBRRGG  (64)  [ Index = 24 ]
 144:Generated_Source\PSoC4/ledStrip.c **** 0x00000000, 0x00550000, 0x00AA0000, 0x00FF0000,  // 0, Black,  LtBlue, MBlue, Blue
ARM GAS  C:\Users\Tymek\AppData\Local\Temp\cc8Btfy6.s 			page 4


 145:Generated_Source\PSoC4/ledStrip.c **** 0x00005500, 0x00555500, 0x00AA5500, 0x00FF5500,  // 4, LtGreen
 146:Generated_Source\PSoC4/ledStrip.c **** 0x0000AA00, 0x0055AA00, 0x00AAAA00, 0x00FFAA00,  // 8, MGreen
 147:Generated_Source\PSoC4/ledStrip.c **** 0x0000FF00, 0x0055FF00, 0x00AAFF00, 0x00FFFF00,  // 12 Green
 148:Generated_Source\PSoC4/ledStrip.c **** 
 149:Generated_Source\PSoC4/ledStrip.c **** 0x00000055, 0x00550055, 0x00AA0055, 0x00FF0055,  // 16, LtRed
 150:Generated_Source\PSoC4/ledStrip.c **** 0x00005555, 0x00555555, 0x00AA5555, 0x00FF5555,  // 20, LtYellow
 151:Generated_Source\PSoC4/ledStrip.c **** 0x0000AA55, 0x0055AA55, 0x00AAAA55, 0x00FFAA55,  // 24, 
 152:Generated_Source\PSoC4/ledStrip.c **** 0x0000FF55, 0x0055FF55, 0x00AAFF55, 0x00FFFF55,  // 28,
 153:Generated_Source\PSoC4/ledStrip.c **** 
 154:Generated_Source\PSoC4/ledStrip.c **** 0x000000AA, 0x005500AA, 0x00AA00AA, 0x00FF00AA,  // 32, MRed
 155:Generated_Source\PSoC4/ledStrip.c **** 0x000055AA, 0x005555AA, 0x00AA55AA, 0x00FF55AA,  // 36, 
 156:Generated_Source\PSoC4/ledStrip.c **** 0x0000AAAA, 0x0055AAAA, 0x00AAAAAA, 0x00FFAAAA,  // 55, 
 157:Generated_Source\PSoC4/ledStrip.c **** 0x0000FFAA, 0x0055FFAA, 0x00AAFFAA, 0x00FFFFAA,  // 44, 
 158:Generated_Source\PSoC4/ledStrip.c **** 
 159:Generated_Source\PSoC4/ledStrip.c **** 0x000000FF, 0x005500FF, 0x00AA00FF, 0x00F00FFF,  // 48, Red, ??, ??, Magenta
 160:Generated_Source\PSoC4/ledStrip.c **** 0x000055FF, 0x005555FF, 0x00AA55FF, 0x00FF55FF,  // 52,
 161:Generated_Source\PSoC4/ledStrip.c **** 0x0000AAFF, 0x0055AAFF, 0x00AAAAFF, 0x00FFAAFF,  // 56,
 162:Generated_Source\PSoC4/ledStrip.c **** 0x0000FFFF, 0x0055FFFF, 0x00AAFFFF, 0x00FFFFFF,  // 60, Yellow,??, ??, White
 163:Generated_Source\PSoC4/ledStrip.c **** 
 164:Generated_Source\PSoC4/ledStrip.c **** // Misc ( 16 )  [ Index = 88 ]
 165:Generated_Source\PSoC4/ledStrip.c **** 0x0000FF80,  // SPRING_GREEN
 166:Generated_Source\PSoC4/ledStrip.c **** 0x0080FF00,  // TURQUOSE
 167:Generated_Source\PSoC4/ledStrip.c **** 0x00FFFF00,  // CYAN
 168:Generated_Source\PSoC4/ledStrip.c **** 0x00FF8000,  // OCEAN
 169:Generated_Source\PSoC4/ledStrip.c **** 0x00FF0080,  // VIOLET
 170:Generated_Source\PSoC4/ledStrip.c **** 0x008000FF,  // RASPBERRY
 171:Generated_Source\PSoC4/ledStrip.c **** 0x0000FF00,  // GREEN
 172:Generated_Source\PSoC4/ledStrip.c **** 0x00202020,  // DIM WHITE
 173:Generated_Source\PSoC4/ledStrip.c **** 0x00200000,  // DIM BLUE
 174:Generated_Source\PSoC4/ledStrip.c **** 0x10000000,  // INVISIBLE
 175:Generated_Source\PSoC4/ledStrip.c **** 0x00000000,  // Spare
 176:Generated_Source\PSoC4/ledStrip.c **** 0x00000000,  // Spare
 177:Generated_Source\PSoC4/ledStrip.c **** 0x00000000,  // Spare
 178:Generated_Source\PSoC4/ledStrip.c **** 0x00000000,  // Spare
 179:Generated_Source\PSoC4/ledStrip.c **** 0x00000000,  // Spare
 180:Generated_Source\PSoC4/ledStrip.c **** 0x00000000,  // Spare
 181:Generated_Source\PSoC4/ledStrip.c **** 
 182:Generated_Source\PSoC4/ledStrip.c **** // Temperture Color Blue to Red (16) [ Index = 104 ]
 183:Generated_Source\PSoC4/ledStrip.c **** 0x00FF0000, 0x00F00010, 0x00E00020, 0x00D00030,
 184:Generated_Source\PSoC4/ledStrip.c **** 0x00C00040, 0x00B00050, 0x00A00060, 0x00900070,
 185:Generated_Source\PSoC4/ledStrip.c **** 0x00800080, 0x00700090, 0x006000A0, 0x005000B0,
 186:Generated_Source\PSoC4/ledStrip.c **** 0x004000C0, 0x003000D0, 0x002000E0, 0x000000FF
 187:Generated_Source\PSoC4/ledStrip.c **** };
 188:Generated_Source\PSoC4/ledStrip.c **** #endif
 189:Generated_Source\PSoC4/ledStrip.c **** 
 190:Generated_Source\PSoC4/ledStrip.c **** 
 191:Generated_Source\PSoC4/ledStrip.c **** 
 192:Generated_Source\PSoC4/ledStrip.c **** /*******************************************************************************
 193:Generated_Source\PSoC4/ledStrip.c **** * Function Name: ledStrip_Start
 194:Generated_Source\PSoC4/ledStrip.c **** ********************************************************************************
 195:Generated_Source\PSoC4/ledStrip.c **** * Summary:
 196:Generated_Source\PSoC4/ledStrip.c **** *  Initialize the hardware. 
 197:Generated_Source\PSoC4/ledStrip.c **** *
 198:Generated_Source\PSoC4/ledStrip.c **** * Parameters:  
 199:Generated_Source\PSoC4/ledStrip.c **** *  void  
 200:Generated_Source\PSoC4/ledStrip.c **** *
 201:Generated_Source\PSoC4/ledStrip.c **** * Return: 
ARM GAS  C:\Users\Tymek\AppData\Local\Temp\cc8Btfy6.s 			page 5


 202:Generated_Source\PSoC4/ledStrip.c **** *  void
 203:Generated_Source\PSoC4/ledStrip.c **** *
 204:Generated_Source\PSoC4/ledStrip.c **** *******************************************************************************/
 205:Generated_Source\PSoC4/ledStrip.c **** void ledStrip_Start()
 206:Generated_Source\PSoC4/ledStrip.c **** {
 207:Generated_Source\PSoC4/ledStrip.c ****     extern uint8 ledStrip_initvar;
 208:Generated_Source\PSoC4/ledStrip.c ****     extern uint32 ledStrip_refreshComplete;
 209:Generated_Source\PSoC4/ledStrip.c **** 
 210:Generated_Source\PSoC4/ledStrip.c ****     ledStrip_ACTL0_REG = ledStrip_DISABLE_FIFO;
 211:Generated_Source\PSoC4/ledStrip.c ****     
 212:Generated_Source\PSoC4/ledStrip.c ****     ledStrip_Period   = ledStrip_PERIOD-1;
 213:Generated_Source\PSoC4/ledStrip.c ****     ledStrip_Compare0 = ledStrip_DATA_ZERO;
 214:Generated_Source\PSoC4/ledStrip.c ****     ledStrip_Compare1 = ledStrip_DATA_ONE;
 215:Generated_Source\PSoC4/ledStrip.c ****     
 216:Generated_Source\PSoC4/ledStrip.c ****     ledStrip_CONTROL = ledStrip_ENABLE;
 217:Generated_Source\PSoC4/ledStrip.c ****     ledStrip_MemClear(ledStrip_OFF);
 218:Generated_Source\PSoC4/ledStrip.c ****     ledStrip_CONTROL = ledStrip_DISABLE;
 219:Generated_Source\PSoC4/ledStrip.c ****     
 220:Generated_Source\PSoC4/ledStrip.c ****     ledStrip_SetFont( ledStrip_FONT_5X7);
 221:Generated_Source\PSoC4/ledStrip.c ****     
 222:Generated_Source\PSoC4/ledStrip.c ****     /* Set no dimming, full brightness */
 223:Generated_Source\PSoC4/ledStrip.c ****     ledStrip_Dim(0); 
 224:Generated_Source\PSoC4/ledStrip.c **** 
 225:Generated_Source\PSoC4/ledStrip.c ****     
 226:Generated_Source\PSoC4/ledStrip.c ****     if(ledStrip_initvar == 0)
 227:Generated_Source\PSoC4/ledStrip.c ****     {
 228:Generated_Source\PSoC4/ledStrip.c **** 
 229:Generated_Source\PSoC4/ledStrip.c ****         ledStrip_initvar = 1;
 230:Generated_Source\PSoC4/ledStrip.c ****  
 231:Generated_Source\PSoC4/ledStrip.c ****          /* Start and set interrupt vector */
 232:Generated_Source\PSoC4/ledStrip.c **** 
 233:Generated_Source\PSoC4/ledStrip.c **** #if(ledStrip_TRANSFER == ledStrip_TRANSFER_ISR)
 234:Generated_Source\PSoC4/ledStrip.c ****        {
 235:Generated_Source\PSoC4/ledStrip.c ****            ledStrip_cisr_StartEx(ledStrip_CISR);
 236:Generated_Source\PSoC4/ledStrip.c **** 		   ledStrip_fisr_StartEx(ledStrip_FISR);
 237:Generated_Source\PSoC4/ledStrip.c ****        }
 238:Generated_Source\PSoC4/ledStrip.c **** #endif       
 239:Generated_Source\PSoC4/ledStrip.c ****        if(ledStrip_TRANSFER == ledStrip_TRANSFER_FIRMWARE)
 240:Generated_Source\PSoC4/ledStrip.c ****        {
 241:Generated_Source\PSoC4/ledStrip.c ****            ledStrip_CONTROL = ledStrip_ENABLE;    
 242:Generated_Source\PSoC4/ledStrip.c ****        }
 243:Generated_Source\PSoC4/ledStrip.c ****     }
 244:Generated_Source\PSoC4/ledStrip.c ****     ledStrip_refreshComplete = 1;
 245:Generated_Source\PSoC4/ledStrip.c **** }
 246:Generated_Source\PSoC4/ledStrip.c **** 
 247:Generated_Source\PSoC4/ledStrip.c **** 
 248:Generated_Source\PSoC4/ledStrip.c **** /*******************************************************************************
 249:Generated_Source\PSoC4/ledStrip.c **** * Function Name: ledStrip_Trigger
 250:Generated_Source\PSoC4/ledStrip.c **** ********************************************************************************
 251:Generated_Source\PSoC4/ledStrip.c **** * Summary:
 252:Generated_Source\PSoC4/ledStrip.c **** *   Update the LEDs with graphics memory.
 253:Generated_Source\PSoC4/ledStrip.c **** *
 254:Generated_Source\PSoC4/ledStrip.c **** * Parameters:  
 255:Generated_Source\PSoC4/ledStrip.c **** *  void  
 256:Generated_Source\PSoC4/ledStrip.c **** *
 257:Generated_Source\PSoC4/ledStrip.c **** * Return: 
 258:Generated_Source\PSoC4/ledStrip.c **** *  void
ARM GAS  C:\Users\Tymek\AppData\Local\Temp\cc8Btfy6.s 			page 6


 259:Generated_Source\PSoC4/ledStrip.c **** *
 260:Generated_Source\PSoC4/ledStrip.c **** *******************************************************************************/
 261:Generated_Source\PSoC4/ledStrip.c **** void ledStrip_Trigger(uint32 rst)
 262:Generated_Source\PSoC4/ledStrip.c **** {
 263:Generated_Source\PSoC4/ledStrip.c ****     uint32 color;
 264:Generated_Source\PSoC4/ledStrip.c ****     
 265:Generated_Source\PSoC4/ledStrip.c ****     if(rst) 
 266:Generated_Source\PSoC4/ledStrip.c ****     {
 267:Generated_Source\PSoC4/ledStrip.c ****         ledStrip_row = 0;  /* Reset the row */
 268:Generated_Source\PSoC4/ledStrip.c ****         ledStrip_Channel = 0;
 269:Generated_Source\PSoC4/ledStrip.c ****     }
 270:Generated_Source\PSoC4/ledStrip.c ****     
 271:Generated_Source\PSoC4/ledStrip.c ****     #if(ledStrip_MEMORY_TYPE == ledStrip_MEMORY_RGB)
 272:Generated_Source\PSoC4/ledStrip.c ****        color = ledStrip_ledArray[ledStrip_row][0];
 273:Generated_Source\PSoC4/ledStrip.c ****     #else  /* Else use lookup table */
 274:Generated_Source\PSoC4/ledStrip.c ****        color = ledStrip_CLUT[ (ledStrip_ledArray[ledStrip_row][0]) ];
 275:Generated_Source\PSoC4/ledStrip.c ****     #endif
 276:Generated_Source\PSoC4/ledStrip.c ****     
 277:Generated_Source\PSoC4/ledStrip.c ****      color = (color >> ledStrip_DimShift) & ledStrip_DimMask;
 278:Generated_Source\PSoC4/ledStrip.c ****      
 279:Generated_Source\PSoC4/ledStrip.c ****     ledStrip_DATA = (uint8)(color & 0x000000FF);  // Write Red
 280:Generated_Source\PSoC4/ledStrip.c ****     color = color >> 8;
 281:Generated_Source\PSoC4/ledStrip.c ****     ledStrip_DATA = (uint8)(color & 0x000000FF);  // Write green
 282:Generated_Source\PSoC4/ledStrip.c ****     color = color >> 8;
 283:Generated_Source\PSoC4/ledStrip.c ****     ledStrip_DATA = (uint8)(color & 0x000000FF);  // Write green
 284:Generated_Source\PSoC4/ledStrip.c ****     
 285:Generated_Source\PSoC4/ledStrip.c ****     ledStrip_ledIndex = 1;
 286:Generated_Source\PSoC4/ledStrip.c ****  //   ledStrip_CONTROL = ledStrip_ENABLE | ledStrip_FIFO_IRQ_EN; 
 287:Generated_Source\PSoC4/ledStrip.c **** 	
 288:Generated_Source\PSoC4/ledStrip.c **** 	ledStrip_CONTROL = ledStrip_ENABLE | ledStrip_XFRCMPT_IRQ_EN | ledStrip_FIFO_IRQ_EN; 
 289:Generated_Source\PSoC4/ledStrip.c ****     ledStrip_refreshComplete = 0;
 290:Generated_Source\PSoC4/ledStrip.c **** }
 291:Generated_Source\PSoC4/ledStrip.c **** 
 292:Generated_Source\PSoC4/ledStrip.c **** /*******************************************************************************
 293:Generated_Source\PSoC4/ledStrip.c **** * Function Name: ledStrip_Ready
 294:Generated_Source\PSoC4/ledStrip.c **** ********************************************************************************
 295:Generated_Source\PSoC4/ledStrip.c **** * Summary:
 296:Generated_Source\PSoC4/ledStrip.c **** *  Checks to see if transfer is complete.
 297:Generated_Source\PSoC4/ledStrip.c **** *
 298:Generated_Source\PSoC4/ledStrip.c **** * Parameters:  
 299:Generated_Source\PSoC4/ledStrip.c **** *  none  
 300:Generated_Source\PSoC4/ledStrip.c **** *
 301:Generated_Source\PSoC4/ledStrip.c **** * Return: 
 302:Generated_Source\PSoC4/ledStrip.c **** *  Zero if not complete, non-zero if transfer complete.
 303:Generated_Source\PSoC4/ledStrip.c **** *
 304:Generated_Source\PSoC4/ledStrip.c **** *******************************************************************************/
 305:Generated_Source\PSoC4/ledStrip.c **** uint32 ledStrip_Ready(void)
 306:Generated_Source\PSoC4/ledStrip.c **** {
 307:Generated_Source\PSoC4/ledStrip.c ****     if(ledStrip_refreshComplete )
 308:Generated_Source\PSoC4/ledStrip.c ****     {
 309:Generated_Source\PSoC4/ledStrip.c ****         ledStrip_CONTROL = ledStrip_DISABLE;
 310:Generated_Source\PSoC4/ledStrip.c ****         return((uint32)1);
 311:Generated_Source\PSoC4/ledStrip.c ****     }
 312:Generated_Source\PSoC4/ledStrip.c ****     else
 313:Generated_Source\PSoC4/ledStrip.c ****     {
 314:Generated_Source\PSoC4/ledStrip.c ****          return((uint32)0);
 315:Generated_Source\PSoC4/ledStrip.c ****     }
ARM GAS  C:\Users\Tymek\AppData\Local\Temp\cc8Btfy6.s 			page 7


 316:Generated_Source\PSoC4/ledStrip.c **** }
 317:Generated_Source\PSoC4/ledStrip.c **** 
 318:Generated_Source\PSoC4/ledStrip.c **** 
 319:Generated_Source\PSoC4/ledStrip.c **** /*******************************************************************************
 320:Generated_Source\PSoC4/ledStrip.c **** * Function Name: ledStrip_Stop
 321:Generated_Source\PSoC4/ledStrip.c **** ********************************************************************************
 322:Generated_Source\PSoC4/ledStrip.c **** * Summary:
 323:Generated_Source\PSoC4/ledStrip.c **** *  Stop all transfers.
 324:Generated_Source\PSoC4/ledStrip.c **** *
 325:Generated_Source\PSoC4/ledStrip.c **** * Parameters:  
 326:Generated_Source\PSoC4/ledStrip.c **** *  None 
 327:Generated_Source\PSoC4/ledStrip.c **** *
 328:Generated_Source\PSoC4/ledStrip.c **** * Return: 
 329:Generated_Source\PSoC4/ledStrip.c **** *  void
 330:Generated_Source\PSoC4/ledStrip.c **** *
 331:Generated_Source\PSoC4/ledStrip.c **** *******************************************************************************/
 332:Generated_Source\PSoC4/ledStrip.c **** void ledStrip_Stop()
 333:Generated_Source\PSoC4/ledStrip.c **** {
 334:Generated_Source\PSoC4/ledStrip.c **** 
 335:Generated_Source\PSoC4/ledStrip.c ****     ledStrip_CONTROL = ledStrip_DISABLE;
 336:Generated_Source\PSoC4/ledStrip.c **** }
 337:Generated_Source\PSoC4/ledStrip.c **** 
 338:Generated_Source\PSoC4/ledStrip.c **** 
 339:Generated_Source\PSoC4/ledStrip.c **** /*******************************************************************************
 340:Generated_Source\PSoC4/ledStrip.c **** * Function Name: ledStrip_ColorInc
 341:Generated_Source\PSoC4/ledStrip.c **** ********************************************************************************
 342:Generated_Source\PSoC4/ledStrip.c **** * Summary:
 343:Generated_Source\PSoC4/ledStrip.c **** *  Increment color throught the color lookup table.
 344:Generated_Source\PSoC4/ledStrip.c **** *
 345:Generated_Source\PSoC4/ledStrip.c **** * Parameters:  
 346:Generated_Source\PSoC4/ledStrip.c **** *  uint32 incValue: Increment through color table by incValue. 
 347:Generated_Source\PSoC4/ledStrip.c **** *
 348:Generated_Source\PSoC4/ledStrip.c **** * Return: Color at next location.
 349:Generated_Source\PSoC4/ledStrip.c **** *  
 350:Generated_Source\PSoC4/ledStrip.c **** *
 351:Generated_Source\PSoC4/ledStrip.c **** *******************************************************************************/
 352:Generated_Source\PSoC4/ledStrip.c **** uint32 ledStrip_ColorInc(uint32 incValue)
 353:Generated_Source\PSoC4/ledStrip.c **** {
 354:Generated_Source\PSoC4/ledStrip.c ****     uint32 color;
 355:Generated_Source\PSoC4/ledStrip.c ****     extern const uint32 ledStrip_CLUT[];
 356:Generated_Source\PSoC4/ledStrip.c ****     static uint32 colorIndex = 0;
 357:Generated_Source\PSoC4/ledStrip.c ****     
 358:Generated_Source\PSoC4/ledStrip.c ****     colorIndex += incValue;
 359:Generated_Source\PSoC4/ledStrip.c ****     colorIndex = colorIndex % ledStrip_COLOR_WHEEL_SIZE;
 360:Generated_Source\PSoC4/ledStrip.c **** 
 361:Generated_Source\PSoC4/ledStrip.c ****     #if(ledStrip_MEMORY_TYPE == ledStrip_MEMORY_RGB)
 362:Generated_Source\PSoC4/ledStrip.c ****        color = ledStrip_CLUT[ colorIndex ];
 363:Generated_Source\PSoC4/ledStrip.c ****     #else
 364:Generated_Source\PSoC4/ledStrip.c ****         color = colorIndex;
 365:Generated_Source\PSoC4/ledStrip.c ****     #endif
 366:Generated_Source\PSoC4/ledStrip.c **** 
 367:Generated_Source\PSoC4/ledStrip.c **** 
 368:Generated_Source\PSoC4/ledStrip.c ****     return(color);
 369:Generated_Source\PSoC4/ledStrip.c **** }
 370:Generated_Source\PSoC4/ledStrip.c **** /*****************************************************************************
 371:Generated_Source\PSoC4/ledStrip.c **** * Function Name: ledStrip_FISR
 372:Generated_Source\PSoC4/ledStrip.c **** ******************************************************************************
ARM GAS  C:\Users\Tymek\AppData\Local\Temp\cc8Btfy6.s 			page 8


 373:Generated_Source\PSoC4/ledStrip.c **** *
 374:Generated_Source\PSoC4/ledStrip.c **** * Summary:
 375:Generated_Source\PSoC4/ledStrip.c **** *  Interrupt service handler for data transfer for each LED 
 376:Generated_Source\PSoC4/ledStrip.c **** *
 377:Generated_Source\PSoC4/ledStrip.c **** * Parameters:  
 378:Generated_Source\PSoC4/ledStrip.c **** *  void
 379:Generated_Source\PSoC4/ledStrip.c **** *
 380:Generated_Source\PSoC4/ledStrip.c **** * Return: 
 381:Generated_Source\PSoC4/ledStrip.c **** *  void 
 382:Generated_Source\PSoC4/ledStrip.c **** *
 383:Generated_Source\PSoC4/ledStrip.c **** * Reentrant: 
 384:Generated_Source\PSoC4/ledStrip.c **** *  No
 385:Generated_Source\PSoC4/ledStrip.c **** *
 386:Generated_Source\PSoC4/ledStrip.c **** *****************************************************************************/
 387:Generated_Source\PSoC4/ledStrip.c **** CY_ISR( ledStrip_FISR)
 388:Generated_Source\PSoC4/ledStrip.c **** {
  28              		.loc 1 388 0
  29              		.cfi_startproc
  30              		@ args = 0, pretend = 0, frame = 0
  31              		@ frame_needed = 0, uses_anonymous_args = 0
  32              		@ link register save eliminated.
 389:Generated_Source\PSoC4/ledStrip.c ****     extern uint32  ledStrip_DimMask;
 390:Generated_Source\PSoC4/ledStrip.c ****     extern uint32  ledStrip_DimShift;
 391:Generated_Source\PSoC4/ledStrip.c ****     uint32 static color;
 392:Generated_Source\PSoC4/ledStrip.c **** 
 393:Generated_Source\PSoC4/ledStrip.c ****     if(ledStrip_ledIndex < ledStrip_ARRAY_COLS)
  33              		.loc 1 393 0
  34 0000 114B     		ldr	r3, .L4
  35 0002 1B68     		ldr	r3, [r3]
  36 0004 3B2B     		cmp	r3, #59
  37 0006 1BD8     		bhi	.L2
 394:Generated_Source\PSoC4/ledStrip.c ****     {
 395:Generated_Source\PSoC4/ledStrip.c ****         #if(ledStrip_MEMORY_TYPE == ledStrip_MEMORY_RGB)
 396:Generated_Source\PSoC4/ledStrip.c ****             color = ledStrip_ledArray[ledStrip_row][ledStrip_ledIndex++];
  38              		.loc 1 396 0
  39 0008 0F49     		ldr	r1, .L4
  40 000a 4868     		ldr	r0, [r1, #4]
  41 000c 5A1C     		adds	r2, r3, #1
  42 000e 0A60     		str	r2, [r1]
  43 0010 0201     		lsls	r2, r0, #4
  44 0012 121A     		subs	r2, r2, r0
  45 0014 9200     		lsls	r2, r2, #2
  46 0016 D318     		adds	r3, r2, r3
  47 0018 9B00     		lsls	r3, r3, #2
  48 001a 0C4A     		ldr	r2, .L4+4
  49 001c 9B58     		ldr	r3, [r3, r2]
 397:Generated_Source\PSoC4/ledStrip.c ****         #else  /* Else use lookup table */
 398:Generated_Source\PSoC4/ledStrip.c ****             color = ledStrip_CLUT[ (ledStrip_ledArray[ledStrip_row][ledStrip_ledIndex++]) ];
 399:Generated_Source\PSoC4/ledStrip.c ****         #endif
 400:Generated_Source\PSoC4/ledStrip.c **** 
 401:Generated_Source\PSoC4/ledStrip.c ****         color = (color >> ledStrip_DimShift) & ledStrip_DimMask;  
  50              		.loc 1 401 0
  51 001e 0C4A     		ldr	r2, .L4+8
  52 0020 1268     		ldr	r2, [r2]
  53 0022 D340     		lsrs	r3, r3, r2
  54 0024 0B4A     		ldr	r2, .L4+12
  55 0026 1268     		ldr	r2, [r2]
ARM GAS  C:\Users\Tymek\AppData\Local\Temp\cc8Btfy6.s 			page 9


  56 0028 1340     		ands	r3, r2
 402:Generated_Source\PSoC4/ledStrip.c **** 
 403:Generated_Source\PSoC4/ledStrip.c ****         ledStrip_DATA = (uint8)(color & 0x000000FF);  // Write Green
  57              		.loc 1 403 0
  58 002a D8B2     		uxtb	r0, r3
  59 002c 0A4A     		ldr	r2, .L4+16
  60 002e 1070     		strb	r0, [r2]
 404:Generated_Source\PSoC4/ledStrip.c ****         color = color >> 8;
  61              		.loc 1 404 0
  62 0030 180A     		lsrs	r0, r3, #8
 405:Generated_Source\PSoC4/ledStrip.c ****         ledStrip_DATA = (uint8)(color & 0x000000FF);  // Write Red
  63              		.loc 1 405 0
  64 0032 C0B2     		uxtb	r0, r0
  65 0034 1070     		strb	r0, [r2]
 406:Generated_Source\PSoC4/ledStrip.c ****         color = color >> 8;
  66              		.loc 1 406 0
  67 0036 1B0C     		lsrs	r3, r3, #16
  68 0038 8B60     		str	r3, [r1, #8]
 407:Generated_Source\PSoC4/ledStrip.c ****         ledStrip_DATA = (uint8)(color & 0x000000FF);  // Write Blue
  69              		.loc 1 407 0
  70 003a DBB2     		uxtb	r3, r3
  71 003c 1370     		strb	r3, [r2]
  72 003e 02E0     		b	.L1
  73              	.L2:
 408:Generated_Source\PSoC4/ledStrip.c ****     }
 409:Generated_Source\PSoC4/ledStrip.c ****     else 
 410:Generated_Source\PSoC4/ledStrip.c ****     {
 411:Generated_Source\PSoC4/ledStrip.c ****          ledStrip_CONTROL = ledStrip_ENABLE | ledStrip_XFRCMPT_IRQ_EN; 
  74              		.loc 1 411 0
  75 0040 1122     		movs	r2, #17
  76 0042 064B     		ldr	r3, .L4+20
  77 0044 1A70     		strb	r2, [r3]
  78              	.L1:
 412:Generated_Source\PSoC4/ledStrip.c ****     }
 413:Generated_Source\PSoC4/ledStrip.c **** 
 414:Generated_Source\PSoC4/ledStrip.c **** }
  79              		.loc 1 414 0
  80              		@ sp needed
  81 0046 7047     		bx	lr
  82              	.L5:
  83              		.align	2
  84              	.L4:
  85 0048 00000000 		.word	.LANCHOR0
  86 004c 00000000 		.word	ledStrip_ledArray
  87 0050 00000000 		.word	ledStrip_DimShift
  88 0054 00000000 		.word	ledStrip_DimMask
  89 0058 43000F40 		.word	1074724931
  90 005c 73000F40 		.word	1074724979
  91              		.cfi_endproc
  92              	.LFE40:
  93              		.size	ledStrip_FISR, .-ledStrip_FISR
  94              		.section	.text.ledStrip_CISR,"ax",%progbits
  95              		.align	2
  96              		.global	ledStrip_CISR
  97              		.code	16
  98              		.thumb_func
  99              		.type	ledStrip_CISR, %function
ARM GAS  C:\Users\Tymek\AppData\Local\Temp\cc8Btfy6.s 			page 10


 100              	ledStrip_CISR:
 101              	.LFB41:
 415:Generated_Source\PSoC4/ledStrip.c **** 
 416:Generated_Source\PSoC4/ledStrip.c **** /*****************************************************************************
 417:Generated_Source\PSoC4/ledStrip.c **** * Function Name: ledStrip_CISR
 418:Generated_Source\PSoC4/ledStrip.c **** ******************************************************************************
 419:Generated_Source\PSoC4/ledStrip.c **** *
 420:Generated_Source\PSoC4/ledStrip.c **** * Summary:
 421:Generated_Source\PSoC4/ledStrip.c **** *  Interrupt service handler after each row is complete.
 422:Generated_Source\PSoC4/ledStrip.c **** *
 423:Generated_Source\PSoC4/ledStrip.c **** * Parameters:  
 424:Generated_Source\PSoC4/ledStrip.c **** *  void
 425:Generated_Source\PSoC4/ledStrip.c **** *
 426:Generated_Source\PSoC4/ledStrip.c **** * Return: 
 427:Generated_Source\PSoC4/ledStrip.c **** *  void 
 428:Generated_Source\PSoC4/ledStrip.c **** *
 429:Generated_Source\PSoC4/ledStrip.c **** * Reentrant: 
 430:Generated_Source\PSoC4/ledStrip.c **** *  No
 431:Generated_Source\PSoC4/ledStrip.c **** *
 432:Generated_Source\PSoC4/ledStrip.c **** *****************************************************************************/
 433:Generated_Source\PSoC4/ledStrip.c **** CY_ISR( ledStrip_CISR)
 434:Generated_Source\PSoC4/ledStrip.c **** {
 102              		.loc 1 434 0
 103              		.cfi_startproc
 104              		@ args = 0, pretend = 0, frame = 0
 105              		@ frame_needed = 0, uses_anonymous_args = 0
 106              		@ link register save eliminated.
 435:Generated_Source\PSoC4/ledStrip.c ****     extern uint32  ledStrip_DimMask;
 436:Generated_Source\PSoC4/ledStrip.c ****     extern uint32  ledStrip_DimShift;
 437:Generated_Source\PSoC4/ledStrip.c ****     uint32 static color;
 438:Generated_Source\PSoC4/ledStrip.c ****     extern uint32 ledStrip_refreshComplete;
 439:Generated_Source\PSoC4/ledStrip.c **** 
 440:Generated_Source\PSoC4/ledStrip.c **** 	ledStrip_CONTROL = ledStrip_ENABLE |ledStrip_NEXT_ROW;
 107              		.loc 1 440 0
 108 0000 2122     		movs	r2, #33
 109 0002 164B     		ldr	r3, .L9
 110 0004 1A70     		strb	r2, [r3]
 441:Generated_Source\PSoC4/ledStrip.c ****     ledStrip_row++;
 111              		.loc 1 441 0
 112 0006 164A     		ldr	r2, .L9+4
 113 0008 5368     		ldr	r3, [r2, #4]
 114 000a 0133     		adds	r3, r3, #1
 115 000c 5360     		str	r3, [r2, #4]
 442:Generated_Source\PSoC4/ledStrip.c ****     if( ledStrip_row < ledStrip_ARRAY_ROWS)  /* More Rows to do  */
 116              		.loc 1 442 0
 117 000e 012B     		cmp	r3, #1
 118 0010 1FD8     		bhi	.L7
 443:Generated_Source\PSoC4/ledStrip.c ****     {
 444:Generated_Source\PSoC4/ledStrip.c ****         ledStrip_Channel = ledStrip_row;  
 119              		.loc 1 444 0
 120 0012 DBB2     		uxtb	r3, r3
 121 0014 134A     		ldr	r2, .L9+8
 122 0016 1370     		strb	r3, [r2]
 445:Generated_Source\PSoC4/ledStrip.c **** 
 446:Generated_Source\PSoC4/ledStrip.c **** 		#if(ledStrip_MEMORY_TYPE == ledStrip_MEMORY_RGB)
 447:Generated_Source\PSoC4/ledStrip.c ****              color = ledStrip_ledArray[ledStrip_row][0];
 123              		.loc 1 447 0
ARM GAS  C:\Users\Tymek\AppData\Local\Temp\cc8Btfy6.s 			page 11


 124 0018 114A     		ldr	r2, .L9+4
 125 001a 5168     		ldr	r1, [r2, #4]
 126 001c 0B01     		lsls	r3, r1, #4
 127 001e 5B1A     		subs	r3, r3, r1
 128 0020 1B01     		lsls	r3, r3, #4
 129 0022 1149     		ldr	r1, .L9+12
 130 0024 5B58     		ldr	r3, [r3, r1]
 448:Generated_Source\PSoC4/ledStrip.c ****         #else  /* Else use lookup table */
 449:Generated_Source\PSoC4/ledStrip.c ****              color = ledStrip_CLUT[ (ledStrip_ledArray[ledStrip_row][0]) ];
 450:Generated_Source\PSoC4/ledStrip.c ****         #endif
 451:Generated_Source\PSoC4/ledStrip.c **** 
 452:Generated_Source\PSoC4/ledStrip.c ****         color = (color >> ledStrip_DimShift) & ledStrip_DimMask;
 131              		.loc 1 452 0
 132 0026 1149     		ldr	r1, .L9+16
 133 0028 0968     		ldr	r1, [r1]
 134 002a CB40     		lsrs	r3, r3, r1
 135 002c 1049     		ldr	r1, .L9+20
 136 002e 0968     		ldr	r1, [r1]
 137 0030 0B40     		ands	r3, r1
 453:Generated_Source\PSoC4/ledStrip.c ****  
 454:Generated_Source\PSoC4/ledStrip.c ****         ledStrip_DATA = (uint8)(color & 0x000000FF);  /* Write Red   */
 138              		.loc 1 454 0
 139 0032 D8B2     		uxtb	r0, r3
 140 0034 0F49     		ldr	r1, .L9+24
 141 0036 0870     		strb	r0, [r1]
 455:Generated_Source\PSoC4/ledStrip.c ****         color = color >> 8;
 142              		.loc 1 455 0
 143 0038 180A     		lsrs	r0, r3, #8
 456:Generated_Source\PSoC4/ledStrip.c ****         ledStrip_DATA = (uint8)(color & 0x000000FF);  /* Write green */
 144              		.loc 1 456 0
 145 003a C0B2     		uxtb	r0, r0
 146 003c 0870     		strb	r0, [r1]
 457:Generated_Source\PSoC4/ledStrip.c ****         color = color >> 8;
 147              		.loc 1 457 0
 148 003e 1B0C     		lsrs	r3, r3, #16
 149 0040 D360     		str	r3, [r2, #12]
 458:Generated_Source\PSoC4/ledStrip.c ****         ledStrip_DATA = (uint8)(color & 0x000000FF);  /* Write green */
 150              		.loc 1 458 0
 151 0042 DBB2     		uxtb	r3, r3
 152 0044 0B70     		strb	r3, [r1]
 459:Generated_Source\PSoC4/ledStrip.c **** 
 460:Generated_Source\PSoC4/ledStrip.c ****         ledStrip_ledIndex = 1;
 153              		.loc 1 460 0
 154 0046 0123     		movs	r3, #1
 155 0048 1360     		str	r3, [r2]
 461:Generated_Source\PSoC4/ledStrip.c **** 		ledStrip_CONTROL = ledStrip_ENABLE | ledStrip_FIFO_IRQ_EN; 
 156              		.loc 1 461 0
 157 004a 0922     		movs	r2, #9
 158 004c 034B     		ldr	r3, .L9
 159 004e 1A70     		strb	r2, [r3]
 160 0050 02E0     		b	.L6
 161              	.L7:
 462:Generated_Source\PSoC4/ledStrip.c **** 		
 463:Generated_Source\PSoC4/ledStrip.c ****     }
 464:Generated_Source\PSoC4/ledStrip.c ****     else
 465:Generated_Source\PSoC4/ledStrip.c ****     {
 466:Generated_Source\PSoC4/ledStrip.c ****         ledStrip_refreshComplete = 1u;
ARM GAS  C:\Users\Tymek\AppData\Local\Temp\cc8Btfy6.s 			page 12


 162              		.loc 1 466 0
 163 0052 0122     		movs	r2, #1
 164 0054 084B     		ldr	r3, .L9+28
 165 0056 1A60     		str	r2, [r3]
 166              	.L6:
 467:Generated_Source\PSoC4/ledStrip.c ****     }
 468:Generated_Source\PSoC4/ledStrip.c ****   
 469:Generated_Source\PSoC4/ledStrip.c **** }
 167              		.loc 1 469 0
 168              		@ sp needed
 169 0058 7047     		bx	lr
 170              	.L10:
 171 005a C046     		.align	2
 172              	.L9:
 173 005c 73000F40 		.word	1074724979
 174 0060 00000000 		.word	.LANCHOR0
 175 0064 72000F40 		.word	1074724978
 176 0068 00000000 		.word	ledStrip_ledArray
 177 006c 00000000 		.word	ledStrip_DimShift
 178 0070 00000000 		.word	ledStrip_DimMask
 179 0074 43000F40 		.word	1074724931
 180 0078 00000000 		.word	ledStrip_refreshComplete
 181              		.cfi_endproc
 182              	.LFE41:
 183              		.size	ledStrip_CISR, .-ledStrip_CISR
 184              		.section	.text.ledStrip_Trigger,"ax",%progbits
 185              		.align	2
 186              		.global	ledStrip_Trigger
 187              		.code	16
 188              		.thumb_func
 189              		.type	ledStrip_Trigger, %function
 190              	ledStrip_Trigger:
 191              	.LFB36:
 262:Generated_Source\PSoC4/ledStrip.c ****     uint32 color;
 192              		.loc 1 262 0
 193              		.cfi_startproc
 194              		@ args = 0, pretend = 0, frame = 0
 195              		@ frame_needed = 0, uses_anonymous_args = 0
 196              		@ link register save eliminated.
 197              	.LVL0:
 265:Generated_Source\PSoC4/ledStrip.c ****     {
 198              		.loc 1 265 0
 199 0000 0028     		cmp	r0, #0
 200 0002 04D0     		beq	.L12
 267:Generated_Source\PSoC4/ledStrip.c ****         ledStrip_Channel = 0;
 201              		.loc 1 267 0
 202 0004 0023     		movs	r3, #0
 203 0006 114A     		ldr	r2, .L13
 204 0008 5360     		str	r3, [r2, #4]
 268:Generated_Source\PSoC4/ledStrip.c ****     }
 205              		.loc 1 268 0
 206 000a 114A     		ldr	r2, .L13+4
 207 000c 1370     		strb	r3, [r2]
 208              	.L12:
 272:Generated_Source\PSoC4/ledStrip.c ****     #else  /* Else use lookup table */
 209              		.loc 1 272 0
 210 000e 0F48     		ldr	r0, .L13
ARM GAS  C:\Users\Tymek\AppData\Local\Temp\cc8Btfy6.s 			page 13


 211              	.LVL1:
 212 0010 4268     		ldr	r2, [r0, #4]
 213 0012 1301     		lsls	r3, r2, #4
 214 0014 9B1A     		subs	r3, r3, r2
 215 0016 1A01     		lsls	r2, r3, #4
 216 0018 0E4B     		ldr	r3, .L13+8
 217 001a D358     		ldr	r3, [r2, r3]
 218              	.LVL2:
 277:Generated_Source\PSoC4/ledStrip.c ****      
 219              		.loc 1 277 0
 220 001c 0E4A     		ldr	r2, .L13+12
 221 001e 1268     		ldr	r2, [r2]
 222 0020 D340     		lsrs	r3, r3, r2
 223              	.LVL3:
 224 0022 0E4A     		ldr	r2, .L13+16
 225 0024 1268     		ldr	r2, [r2]
 226 0026 1340     		ands	r3, r2
 227              	.LVL4:
 279:Generated_Source\PSoC4/ledStrip.c ****     color = color >> 8;
 228              		.loc 1 279 0
 229 0028 D9B2     		uxtb	r1, r3
 230 002a 0D4A     		ldr	r2, .L13+20
 231 002c 1170     		strb	r1, [r2]
 280:Generated_Source\PSoC4/ledStrip.c ****     ledStrip_DATA = (uint8)(color & 0x000000FF);  // Write green
 232              		.loc 1 280 0
 233 002e 190A     		lsrs	r1, r3, #8
 234              	.LVL5:
 281:Generated_Source\PSoC4/ledStrip.c ****     color = color >> 8;
 235              		.loc 1 281 0
 236 0030 C9B2     		uxtb	r1, r1
 237              	.LVL6:
 238 0032 1170     		strb	r1, [r2]
 282:Generated_Source\PSoC4/ledStrip.c ****     ledStrip_DATA = (uint8)(color & 0x000000FF);  // Write green
 239              		.loc 1 282 0
 240 0034 1B0C     		lsrs	r3, r3, #16
 241              	.LVL7:
 283:Generated_Source\PSoC4/ledStrip.c ****     
 242              		.loc 1 283 0
 243 0036 DBB2     		uxtb	r3, r3
 244              	.LVL8:
 245 0038 1370     		strb	r3, [r2]
 285:Generated_Source\PSoC4/ledStrip.c ****  //   ledStrip_CONTROL = ledStrip_ENABLE | ledStrip_FIFO_IRQ_EN; 
 246              		.loc 1 285 0
 247 003a 0123     		movs	r3, #1
 248 003c 0360     		str	r3, [r0]
 288:Generated_Source\PSoC4/ledStrip.c ****     ledStrip_refreshComplete = 0;
 249              		.loc 1 288 0
 250 003e 1922     		movs	r2, #25
 251 0040 084B     		ldr	r3, .L13+24
 252 0042 1A70     		strb	r2, [r3]
 289:Generated_Source\PSoC4/ledStrip.c **** }
 253              		.loc 1 289 0
 254 0044 0022     		movs	r2, #0
 255 0046 084B     		ldr	r3, .L13+28
 256 0048 1A60     		str	r2, [r3]
 290:Generated_Source\PSoC4/ledStrip.c **** 
 257              		.loc 1 290 0
ARM GAS  C:\Users\Tymek\AppData\Local\Temp\cc8Btfy6.s 			page 14


 258              		@ sp needed
 259 004a 7047     		bx	lr
 260              	.L14:
 261              		.align	2
 262              	.L13:
 263 004c 00000000 		.word	.LANCHOR0
 264 0050 72000F40 		.word	1074724978
 265 0054 00000000 		.word	ledStrip_ledArray
 266 0058 00000000 		.word	ledStrip_DimShift
 267 005c 00000000 		.word	ledStrip_DimMask
 268 0060 43000F40 		.word	1074724931
 269 0064 73000F40 		.word	1074724979
 270 0068 00000000 		.word	ledStrip_refreshComplete
 271              		.cfi_endproc
 272              	.LFE36:
 273              		.size	ledStrip_Trigger, .-ledStrip_Trigger
 274              		.section	.text.ledStrip_Ready,"ax",%progbits
 275              		.align	2
 276              		.global	ledStrip_Ready
 277              		.code	16
 278              		.thumb_func
 279              		.type	ledStrip_Ready, %function
 280              	ledStrip_Ready:
 281              	.LFB37:
 306:Generated_Source\PSoC4/ledStrip.c ****     if(ledStrip_refreshComplete )
 282              		.loc 1 306 0
 283              		.cfi_startproc
 284              		@ args = 0, pretend = 0, frame = 0
 285              		@ frame_needed = 0, uses_anonymous_args = 0
 286              		@ link register save eliminated.
 307:Generated_Source\PSoC4/ledStrip.c ****     {
 287              		.loc 1 307 0
 288 0000 044B     		ldr	r3, .L17
 289 0002 1868     		ldr	r0, [r3]
 290 0004 0028     		cmp	r0, #0
 291 0006 03D0     		beq	.L16
 309:Generated_Source\PSoC4/ledStrip.c ****         return((uint32)1);
 292              		.loc 1 309 0
 293 0008 0022     		movs	r2, #0
 294 000a 034B     		ldr	r3, .L17+4
 295 000c 1A70     		strb	r2, [r3]
 310:Generated_Source\PSoC4/ledStrip.c ****     }
 296              		.loc 1 310 0
 297 000e 0120     		movs	r0, #1
 298              	.L16:
 316:Generated_Source\PSoC4/ledStrip.c **** 
 299              		.loc 1 316 0
 300              		@ sp needed
 301 0010 7047     		bx	lr
 302              	.L18:
 303 0012 C046     		.align	2
 304              	.L17:
 305 0014 00000000 		.word	ledStrip_refreshComplete
 306 0018 73000F40 		.word	1074724979
 307              		.cfi_endproc
 308              	.LFE37:
 309              		.size	ledStrip_Ready, .-ledStrip_Ready
ARM GAS  C:\Users\Tymek\AppData\Local\Temp\cc8Btfy6.s 			page 15


 310              		.section	.text.ledStrip_Stop,"ax",%progbits
 311              		.align	2
 312              		.global	ledStrip_Stop
 313              		.code	16
 314              		.thumb_func
 315              		.type	ledStrip_Stop, %function
 316              	ledStrip_Stop:
 317              	.LFB38:
 333:Generated_Source\PSoC4/ledStrip.c **** 
 318              		.loc 1 333 0
 319              		.cfi_startproc
 320              		@ args = 0, pretend = 0, frame = 0
 321              		@ frame_needed = 0, uses_anonymous_args = 0
 322              		@ link register save eliminated.
 335:Generated_Source\PSoC4/ledStrip.c **** }
 323              		.loc 1 335 0
 324 0000 0022     		movs	r2, #0
 325 0002 014B     		ldr	r3, .L20
 326 0004 1A70     		strb	r2, [r3]
 336:Generated_Source\PSoC4/ledStrip.c **** 
 327              		.loc 1 336 0
 328              		@ sp needed
 329 0006 7047     		bx	lr
 330              	.L21:
 331              		.align	2
 332              	.L20:
 333 0008 73000F40 		.word	1074724979
 334              		.cfi_endproc
 335              	.LFE38:
 336              		.size	ledStrip_Stop, .-ledStrip_Stop
 337              		.global	__aeabi_uidivmod
 338              		.section	.text.ledStrip_ColorInc,"ax",%progbits
 339              		.align	2
 340              		.global	ledStrip_ColorInc
 341              		.code	16
 342              		.thumb_func
 343              		.type	ledStrip_ColorInc, %function
 344              	ledStrip_ColorInc:
 345              	.LFB39:
 353:Generated_Source\PSoC4/ledStrip.c ****     uint32 color;
 346              		.loc 1 353 0
 347              		.cfi_startproc
 348              		@ args = 0, pretend = 0, frame = 0
 349              		@ frame_needed = 0, uses_anonymous_args = 0
 350              	.LVL9:
 351 0000 10B5     		push	{r4, lr}
 352              		.cfi_def_cfa_offset 8
 353              		.cfi_offset 4, -8
 354              		.cfi_offset 14, -4
 358:Generated_Source\PSoC4/ledStrip.c ****     colorIndex = colorIndex % ledStrip_COLOR_WHEEL_SIZE;
 355              		.loc 1 358 0
 356 0002 064C     		ldr	r4, .L23
 357 0004 2369     		ldr	r3, [r4, #16]
 358 0006 9C46     		mov	ip, r3
 359 0008 6044     		add	r0, r0, ip
 360              	.LVL10:
 359:Generated_Source\PSoC4/ledStrip.c **** 
ARM GAS  C:\Users\Tymek\AppData\Local\Temp\cc8Btfy6.s 			page 16


 361              		.loc 1 359 0
 362 000a 1821     		movs	r1, #24
 363 000c FFF7FEFF 		bl	__aeabi_uidivmod
 364              	.LVL11:
 365 0010 2161     		str	r1, [r4, #16]
 362:Generated_Source\PSoC4/ledStrip.c ****     #else
 366              		.loc 1 362 0
 367 0012 8900     		lsls	r1, r1, #2
 368 0014 024B     		ldr	r3, .L23+4
 369 0016 C858     		ldr	r0, [r1, r3]
 370              	.LVL12:
 369:Generated_Source\PSoC4/ledStrip.c **** /*****************************************************************************
 371              		.loc 1 369 0
 372              		@ sp needed
 373 0018 10BD     		pop	{r4, pc}
 374              	.L24:
 375 001a C046     		.align	2
 376              	.L23:
 377 001c 00000000 		.word	.LANCHOR0
 378 0020 00000000 		.word	.LANCHOR1
 379              		.cfi_endproc
 380              	.LFE39:
 381              		.size	ledStrip_ColorInc, .-ledStrip_ColorInc
 382              		.section	.text.ledStrip_MemClear,"ax",%progbits
 383              		.align	2
 384              		.global	ledStrip_MemClear
 385              		.code	16
 386              		.thumb_func
 387              		.type	ledStrip_MemClear, %function
 388              	ledStrip_MemClear:
 389              	.LFB43:
 470:Generated_Source\PSoC4/ledStrip.c **** 
 471:Generated_Source\PSoC4/ledStrip.c **** 
 472:Generated_Source\PSoC4/ledStrip.c **** /*******************************************************************************
 473:Generated_Source\PSoC4/ledStrip.c **** * Function Name: ledStrip_DisplayClear
 474:Generated_Source\PSoC4/ledStrip.c **** ********************************************************************************
 475:Generated_Source\PSoC4/ledStrip.c **** * Summary:
 476:Generated_Source\PSoC4/ledStrip.c **** *   Clear memory with a given value and update the display.
 477:Generated_Source\PSoC4/ledStrip.c **** *
 478:Generated_Source\PSoC4/ledStrip.c **** * Parameters:  
 479:Generated_Source\PSoC4/ledStrip.c **** *  uint32 color: Color to clear display. 
 480:Generated_Source\PSoC4/ledStrip.c **** *
 481:Generated_Source\PSoC4/ledStrip.c **** * Return: 
 482:Generated_Source\PSoC4/ledStrip.c **** *  void
 483:Generated_Source\PSoC4/ledStrip.c **** *
 484:Generated_Source\PSoC4/ledStrip.c **** *******************************************************************************/
 485:Generated_Source\PSoC4/ledStrip.c **** void ledStrip_DisplayClear(uint32 color)
 486:Generated_Source\PSoC4/ledStrip.c **** {   
 487:Generated_Source\PSoC4/ledStrip.c ****     ledStrip_MemClear(color);
 488:Generated_Source\PSoC4/ledStrip.c ****     ledStrip_Trigger(1);
 489:Generated_Source\PSoC4/ledStrip.c **** }
 490:Generated_Source\PSoC4/ledStrip.c **** 
 491:Generated_Source\PSoC4/ledStrip.c **** /*******************************************************************************
 492:Generated_Source\PSoC4/ledStrip.c **** * Function Name: ledStrip_MemClear
 493:Generated_Source\PSoC4/ledStrip.c **** ********************************************************************************
 494:Generated_Source\PSoC4/ledStrip.c **** * Summary:
 495:Generated_Source\PSoC4/ledStrip.c **** *   Clear LED memory with given color, but do not update display.
ARM GAS  C:\Users\Tymek\AppData\Local\Temp\cc8Btfy6.s 			page 17


 496:Generated_Source\PSoC4/ledStrip.c **** *
 497:Generated_Source\PSoC4/ledStrip.c **** * Parameters:  
 498:Generated_Source\PSoC4/ledStrip.c **** *  uint32 color: Color to clear display.  
 499:Generated_Source\PSoC4/ledStrip.c **** *
 500:Generated_Source\PSoC4/ledStrip.c **** * Return: 
 501:Generated_Source\PSoC4/ledStrip.c **** *  void
 502:Generated_Source\PSoC4/ledStrip.c **** *
 503:Generated_Source\PSoC4/ledStrip.c **** *******************************************************************************/
 504:Generated_Source\PSoC4/ledStrip.c **** void ledStrip_MemClear(uint32 color)
 505:Generated_Source\PSoC4/ledStrip.c **** {
 390              		.loc 1 505 0
 391              		.cfi_startproc
 392              		@ args = 0, pretend = 0, frame = 0
 393              		@ frame_needed = 0, uses_anonymous_args = 0
 394              	.LVL13:
 395 0000 10B5     		push	{r4, lr}
 396              		.cfi_def_cfa_offset 8
 397              		.cfi_offset 4, -8
 398              		.cfi_offset 14, -4
 399              	.LVL14:
 506:Generated_Source\PSoC4/ledStrip.c ****     uint32  row, col;
 507:Generated_Source\PSoC4/ledStrip.c ****     
 508:Generated_Source\PSoC4/ledStrip.c ****     for(row=0; row < ledStrip_ARRAY_ROWS; row++)
 400              		.loc 1 508 0
 401 0002 0024     		movs	r4, #0
 402 0004 0CE0     		b	.L26
 403              	.LVL15:
 404              	.L27:
 509:Generated_Source\PSoC4/ledStrip.c ****     {
 510:Generated_Source\PSoC4/ledStrip.c ****         for(col=0; col < ledStrip_ARRAY_COLS; col++)
 511:Generated_Source\PSoC4/ledStrip.c ****         {
 512:Generated_Source\PSoC4/ledStrip.c ****             ledStrip_ledArray[row][col] = color;
 405              		.loc 1 512 0 discriminator 3
 406 0006 2201     		lsls	r2, r4, #4
 407 0008 121B     		subs	r2, r2, r4
 408 000a 9300     		lsls	r3, r2, #2
 409 000c 5B18     		adds	r3, r3, r1
 410 000e 9B00     		lsls	r3, r3, #2
 411 0010 054A     		ldr	r2, .L30
 412 0012 9850     		str	r0, [r3, r2]
 510:Generated_Source\PSoC4/ledStrip.c ****         {
 413              		.loc 1 510 0 discriminator 3
 414 0014 0131     		adds	r1, r1, #1
 415              	.LVL16:
 416 0016 00E0     		b	.L28
 417              	.LVL17:
 418              	.L29:
 419 0018 0021     		movs	r1, #0
 420              	.L28:
 421              	.LVL18:
 510:Generated_Source\PSoC4/ledStrip.c ****         {
 422              		.loc 1 510 0 is_stmt 0 discriminator 1
 423 001a 3B29     		cmp	r1, #59
 424 001c F3D9     		bls	.L27
 508:Generated_Source\PSoC4/ledStrip.c ****     {
 425              		.loc 1 508 0 is_stmt 1 discriminator 2
 426 001e 0134     		adds	r4, r4, #1
ARM GAS  C:\Users\Tymek\AppData\Local\Temp\cc8Btfy6.s 			page 18


 427              	.LVL19:
 428              	.L26:
 508:Generated_Source\PSoC4/ledStrip.c ****     {
 429              		.loc 1 508 0 is_stmt 0 discriminator 1
 430 0020 012C     		cmp	r4, #1
 431 0022 F9D9     		bls	.L29
 513:Generated_Source\PSoC4/ledStrip.c ****             #if(ledStrip_MEMORY_TYPE == ledStrip_MEMORY_RGB)
 514:Generated_Source\PSoC4/ledStrip.c ****                 ledStrip_ledArray[row][col] = color;
 515:Generated_Source\PSoC4/ledStrip.c ****             #else  /* Else use lookup table */
 516:Generated_Source\PSoC4/ledStrip.c ****                  ledStrip_ledArray[row][col] = (uint8)color;
 517:Generated_Source\PSoC4/ledStrip.c ****             #endif
 518:Generated_Source\PSoC4/ledStrip.c ****         }
 519:Generated_Source\PSoC4/ledStrip.c ****     }
 520:Generated_Source\PSoC4/ledStrip.c **** }
 432              		.loc 1 520 0 is_stmt 1
 433              		@ sp needed
 434              	.LVL20:
 435 0024 10BD     		pop	{r4, pc}
 436              	.L31:
 437 0026 C046     		.align	2
 438              	.L30:
 439 0028 00000000 		.word	ledStrip_ledArray
 440              		.cfi_endproc
 441              	.LFE43:
 442              		.size	ledStrip_MemClear, .-ledStrip_MemClear
 443              		.section	.text.ledStrip_DisplayClear,"ax",%progbits
 444              		.align	2
 445              		.global	ledStrip_DisplayClear
 446              		.code	16
 447              		.thumb_func
 448              		.type	ledStrip_DisplayClear, %function
 449              	ledStrip_DisplayClear:
 450              	.LFB42:
 486:Generated_Source\PSoC4/ledStrip.c ****     ledStrip_MemClear(color);
 451              		.loc 1 486 0
 452              		.cfi_startproc
 453              		@ args = 0, pretend = 0, frame = 0
 454              		@ frame_needed = 0, uses_anonymous_args = 0
 455              	.LVL21:
 456 0000 10B5     		push	{r4, lr}
 457              		.cfi_def_cfa_offset 8
 458              		.cfi_offset 4, -8
 459              		.cfi_offset 14, -4
 487:Generated_Source\PSoC4/ledStrip.c ****     ledStrip_Trigger(1);
 460              		.loc 1 487 0
 461 0002 FFF7FEFF 		bl	ledStrip_MemClear
 462              	.LVL22:
 488:Generated_Source\PSoC4/ledStrip.c **** }
 463              		.loc 1 488 0
 464 0006 0120     		movs	r0, #1
 465 0008 FFF7FEFF 		bl	ledStrip_Trigger
 466              	.LVL23:
 489:Generated_Source\PSoC4/ledStrip.c **** 
 467              		.loc 1 489 0
 468              		@ sp needed
 469 000c 10BD     		pop	{r4, pc}
 470              		.cfi_endproc
ARM GAS  C:\Users\Tymek\AppData\Local\Temp\cc8Btfy6.s 			page 19


 471              	.LFE42:
 472              		.size	ledStrip_DisplayClear, .-ledStrip_DisplayClear
 473 000e C046     		.section	.text.ledStrip_WriteColor,"ax",%progbits
 474              		.align	2
 475              		.global	ledStrip_WriteColor
 476              		.code	16
 477              		.thumb_func
 478              		.type	ledStrip_WriteColor, %function
 479              	ledStrip_WriteColor:
 480              	.LFB44:
 521:Generated_Source\PSoC4/ledStrip.c **** 
 522:Generated_Source\PSoC4/ledStrip.c **** 
 523:Generated_Source\PSoC4/ledStrip.c **** 
 524:Generated_Source\PSoC4/ledStrip.c **** /*******************************************************************************
 525:Generated_Source\PSoC4/ledStrip.c **** * Function Name: ledStrip_WriteColor
 526:Generated_Source\PSoC4/ledStrip.c **** ********************************************************************************
 527:Generated_Source\PSoC4/ledStrip.c **** * Summary:
 528:Generated_Source\PSoC4/ledStrip.c **** *   Write given color directly to output register.
 529:Generated_Source\PSoC4/ledStrip.c **** *
 530:Generated_Source\PSoC4/ledStrip.c **** * Parameters:  
 531:Generated_Source\PSoC4/ledStrip.c **** *  uint32 color: Color to write to display. 
 532:Generated_Source\PSoC4/ledStrip.c **** *
 533:Generated_Source\PSoC4/ledStrip.c **** * Return: 
 534:Generated_Source\PSoC4/ledStrip.c **** *  void
 535:Generated_Source\PSoC4/ledStrip.c **** *
 536:Generated_Source\PSoC4/ledStrip.c **** *******************************************************************************/
 537:Generated_Source\PSoC4/ledStrip.c **** void ledStrip_WriteColor(uint32 color)
 538:Generated_Source\PSoC4/ledStrip.c **** {
 481              		.loc 1 538 0
 482              		.cfi_startproc
 483              		@ args = 0, pretend = 0, frame = 0
 484              		@ frame_needed = 0, uses_anonymous_args = 0
 485              		@ link register save eliminated.
 486              	.LVL24:
 487              	.L34:
 539:Generated_Source\PSoC4/ledStrip.c ****     while( (ledStrip_STATUS & ledStrip_FIFO_EMPTY) == 0); 
 488              		.loc 1 539 0 discriminator 1
 489 0000 064B     		ldr	r3, .L35
 490 0002 1B78     		ldrb	r3, [r3]
 491 0004 DB07     		lsls	r3, r3, #31
 492 0006 FBD5     		bpl	.L34
 540:Generated_Source\PSoC4/ledStrip.c **** 
 541:Generated_Source\PSoC4/ledStrip.c ****     ledStrip_DATA = (uint8)(color & 0x000000FF);  // Write Green
 493              		.loc 1 541 0
 494 0008 C2B2     		uxtb	r2, r0
 495 000a 054B     		ldr	r3, .L35+4
 496 000c 1A70     		strb	r2, [r3]
 542:Generated_Source\PSoC4/ledStrip.c ****     color = color >> 8;
 497              		.loc 1 542 0
 498 000e 020A     		lsrs	r2, r0, #8
 499              	.LVL25:
 543:Generated_Source\PSoC4/ledStrip.c ****     ledStrip_DATA = (uint8)(color & 0x000000FF);  // Write Red
 500              		.loc 1 543 0
 501 0010 D2B2     		uxtb	r2, r2
 502              	.LVL26:
 503 0012 1A70     		strb	r2, [r3]
 544:Generated_Source\PSoC4/ledStrip.c ****     color = color >> 8;
ARM GAS  C:\Users\Tymek\AppData\Local\Temp\cc8Btfy6.s 			page 20


 504              		.loc 1 544 0
 505 0014 000C     		lsrs	r0, r0, #16
 506              	.LVL27:
 545:Generated_Source\PSoC4/ledStrip.c ****     ledStrip_DATA = (uint8)(color & 0x000000FF);  // Write Blue
 507              		.loc 1 545 0
 508 0016 C0B2     		uxtb	r0, r0
 509              	.LVL28:
 510 0018 1870     		strb	r0, [r3]
 546:Generated_Source\PSoC4/ledStrip.c **** }
 511              		.loc 1 546 0
 512              		@ sp needed
 513 001a 7047     		bx	lr
 514              	.L36:
 515              		.align	2
 516              	.L35:
 517 001c 63000F40 		.word	1074724963
 518 0020 43000F40 		.word	1074724931
 519              		.cfi_endproc
 520              	.LFE44:
 521              		.size	ledStrip_WriteColor, .-ledStrip_WriteColor
 522              		.section	.text.ledStrip_Pixel,"ax",%progbits
 523              		.align	2
 524              		.global	ledStrip_Pixel
 525              		.code	16
 526              		.thumb_func
 527              		.type	ledStrip_Pixel, %function
 528              	ledStrip_Pixel:
 529              	.LFB45:
 547:Generated_Source\PSoC4/ledStrip.c **** 
 548:Generated_Source\PSoC4/ledStrip.c **** 
 549:Generated_Source\PSoC4/ledStrip.c **** /*******************************************************************************
 550:Generated_Source\PSoC4/ledStrip.c **** * Function Name: ledStrip_Pixel
 551:Generated_Source\PSoC4/ledStrip.c **** ********************************************************************************
 552:Generated_Source\PSoC4/ledStrip.c **** *
 553:Generated_Source\PSoC4/ledStrip.c **** * Summary:
 554:Generated_Source\PSoC4/ledStrip.c **** *  Draw Pixel  
 555:Generated_Source\PSoC4/ledStrip.c **** *
 556:Generated_Source\PSoC4/ledStrip.c **** * Parameters:  
 557:Generated_Source\PSoC4/ledStrip.c **** *  x,y:    Location to draw the pixel
 558:Generated_Source\PSoC4/ledStrip.c **** *  color:  Color of the pixel
 559:Generated_Source\PSoC4/ledStrip.c **** *
 560:Generated_Source\PSoC4/ledStrip.c **** * Return: 
 561:Generated_Source\PSoC4/ledStrip.c **** *  None 
 562:Generated_Source\PSoC4/ledStrip.c **** *******************************************************************************/
 563:Generated_Source\PSoC4/ledStrip.c **** void ledStrip_Pixel(int32 x, int32 y, uint32 color)
 564:Generated_Source\PSoC4/ledStrip.c **** {
 530              		.loc 1 564 0
 531              		.cfi_startproc
 532              		@ args = 0, pretend = 0, frame = 0
 533              		@ frame_needed = 0, uses_anonymous_args = 0
 534              		@ link register save eliminated.
 535              	.LVL29:
 565:Generated_Source\PSoC4/ledStrip.c **** 
 566:Generated_Source\PSoC4/ledStrip.c **** 	if((x >= ledStrip_MIN_X) && (y >= ledStrip_MIN_Y) && (x <= ledStrip_MAX_X) && (y <= ledStrip_MAX_Y
 536              		.loc 1 566 0
 537 0000 0028     		cmp	r0, #0
 538 0002 0CDB     		blt	.L37
ARM GAS  C:\Users\Tymek\AppData\Local\Temp\cc8Btfy6.s 			page 21


 539              		.loc 1 566 0 is_stmt 0 discriminator 1
 540 0004 0029     		cmp	r1, #0
 541 0006 0ADB     		blt	.L37
 542              		.loc 1 566 0 discriminator 2
 543 0008 3B28     		cmp	r0, #59
 544 000a 08DC     		bgt	.L37
 545              		.loc 1 566 0 discriminator 3
 546 000c 0129     		cmp	r1, #1
 547 000e 06DC     		bgt	.L37
 567:Generated_Source\PSoC4/ledStrip.c ****     {
 568:Generated_Source\PSoC4/ledStrip.c **** 
 569:Generated_Source\PSoC4/ledStrip.c ****     #if(ledStrip_MEMORY_TYPE == ledStrip_MEMORY_RGB)
 570:Generated_Source\PSoC4/ledStrip.c ****        ledStrip_ledArray[y][x] = color;
 548              		.loc 1 570 0 is_stmt 1
 549 0010 0B01     		lsls	r3, r1, #4
 550 0012 591A     		subs	r1, r3, r1
 551              	.LVL30:
 552 0014 8B00     		lsls	r3, r1, #2
 553 0016 1818     		adds	r0, r3, r0
 554              	.LVL31:
 555 0018 8000     		lsls	r0, r0, #2
 556 001a 014B     		ldr	r3, .L39
 557 001c C250     		str	r2, [r0, r3]
 558              	.L37:
 571:Generated_Source\PSoC4/ledStrip.c ****     #else  /* Else use lookup table */
 572:Generated_Source\PSoC4/ledStrip.c ****        ledStrip_ledArray[y][x] = (uint8)color;
 573:Generated_Source\PSoC4/ledStrip.c ****     #endif
 574:Generated_Source\PSoC4/ledStrip.c ****     }
 575:Generated_Source\PSoC4/ledStrip.c ****   
 576:Generated_Source\PSoC4/ledStrip.c **** }
 559              		.loc 1 576 0
 560              		@ sp needed
 561 001e 7047     		bx	lr
 562              	.L40:
 563              		.align	2
 564              	.L39:
 565 0020 00000000 		.word	ledStrip_ledArray
 566              		.cfi_endproc
 567              	.LFE45:
 568              		.size	ledStrip_Pixel, .-ledStrip_Pixel
 569              		.section	.text.ledStrip_GetPixel,"ax",%progbits
 570              		.align	2
 571              		.global	ledStrip_GetPixel
 572              		.code	16
 573              		.thumb_func
 574              		.type	ledStrip_GetPixel, %function
 575              	ledStrip_GetPixel:
 576              	.LFB46:
 577:Generated_Source\PSoC4/ledStrip.c **** 
 578:Generated_Source\PSoC4/ledStrip.c **** /*******************************************************************************
 579:Generated_Source\PSoC4/ledStrip.c **** * Function Name: ledStrip_GetPixel
 580:Generated_Source\PSoC4/ledStrip.c **** ********************************************************************************
 581:Generated_Source\PSoC4/ledStrip.c **** *
 582:Generated_Source\PSoC4/ledStrip.c **** * Summary:
 583:Generated_Source\PSoC4/ledStrip.c **** *  Get Pixel Color  
 584:Generated_Source\PSoC4/ledStrip.c **** *
 585:Generated_Source\PSoC4/ledStrip.c **** * Parameters:  
ARM GAS  C:\Users\Tymek\AppData\Local\Temp\cc8Btfy6.s 			page 22


 586:Generated_Source\PSoC4/ledStrip.c **** *  x,y:    Location to get pixel color
 587:Generated_Source\PSoC4/ledStrip.c **** *
 588:Generated_Source\PSoC4/ledStrip.c **** * Return: 
 589:Generated_Source\PSoC4/ledStrip.c **** *  None 
 590:Generated_Source\PSoC4/ledStrip.c **** *******************************************************************************/
 591:Generated_Source\PSoC4/ledStrip.c **** uint32 ledStrip_GetPixel(int32 x, int32 y)
 592:Generated_Source\PSoC4/ledStrip.c **** {
 577              		.loc 1 592 0
 578              		.cfi_startproc
 579              		@ args = 0, pretend = 0, frame = 0
 580              		@ frame_needed = 0, uses_anonymous_args = 0
 581              		@ link register save eliminated.
 582              	.LVL32:
 593:Generated_Source\PSoC4/ledStrip.c ****     uint32 color = 0;
 594:Generated_Source\PSoC4/ledStrip.c ****     if((x>=0) && (y>=0) && (x < ledStrip_ARRAY_COLS) && (y < ledStrip_ARRAY_ROWS))
 583              		.loc 1 594 0
 584 0000 0028     		cmp	r0, #0
 585 0002 0DDB     		blt	.L43
 586              		.loc 1 594 0 is_stmt 0 discriminator 1
 587 0004 0029     		cmp	r1, #0
 588 0006 0DDB     		blt	.L44
 589              		.loc 1 594 0 discriminator 2
 590 0008 3B28     		cmp	r0, #59
 591 000a 0DDC     		bgt	.L45
 592              		.loc 1 594 0 discriminator 3
 593 000c 0129     		cmp	r1, #1
 594 000e 0DDC     		bgt	.L46
 595:Generated_Source\PSoC4/ledStrip.c ****     {
 596:Generated_Source\PSoC4/ledStrip.c ****     #if(ledStrip_MEMORY_TYPE == ledStrip_MEMORY_RGB)
 597:Generated_Source\PSoC4/ledStrip.c ****        color = ledStrip_ledArray[y][x];
 595              		.loc 1 597 0 is_stmt 1
 596 0010 0B01     		lsls	r3, r1, #4
 597 0012 591A     		subs	r1, r3, r1
 598              	.LVL33:
 599 0014 8B00     		lsls	r3, r1, #2
 600 0016 1818     		adds	r0, r3, r0
 601              	.LVL34:
 602 0018 8000     		lsls	r0, r0, #2
 603 001a 054B     		ldr	r3, .L47
 604 001c C058     		ldr	r0, [r0, r3]
 605              	.LVL35:
 606 001e 06E0     		b	.L42
 607              	.LVL36:
 608              	.L43:
 593:Generated_Source\PSoC4/ledStrip.c ****     uint32 color = 0;
 609              		.loc 1 593 0
 610 0020 0020     		movs	r0, #0
 611              	.LVL37:
 612 0022 04E0     		b	.L42
 613              	.LVL38:
 614              	.L44:
 615 0024 0020     		movs	r0, #0
 616              	.LVL39:
 617 0026 02E0     		b	.L42
 618              	.LVL40:
 619              	.L45:
 620 0028 0020     		movs	r0, #0
ARM GAS  C:\Users\Tymek\AppData\Local\Temp\cc8Btfy6.s 			page 23


 621              	.LVL41:
 622 002a 00E0     		b	.L42
 623              	.LVL42:
 624              	.L46:
 625 002c 0020     		movs	r0, #0
 626              	.LVL43:
 627              	.L42:
 598:Generated_Source\PSoC4/ledStrip.c ****     #else  /* Else use lookup table */
 599:Generated_Source\PSoC4/ledStrip.c ****        color = (uint32)ledStrip_ledArray[y][x];
 600:Generated_Source\PSoC4/ledStrip.c ****     #endif
 601:Generated_Source\PSoC4/ledStrip.c ****     }
 602:Generated_Source\PSoC4/ledStrip.c ****     return(color);
 603:Generated_Source\PSoC4/ledStrip.c **** }
 628              		.loc 1 603 0
 629              		@ sp needed
 630 002e 7047     		bx	lr
 631              	.L48:
 632              		.align	2
 633              	.L47:
 634 0030 00000000 		.word	ledStrip_ledArray
 635              		.cfi_endproc
 636              	.LFE46:
 637              		.size	ledStrip_GetPixel, .-ledStrip_GetPixel
 638              		.section	.text.ledStrip_DrawCircle,"ax",%progbits
 639              		.align	2
 640              		.global	ledStrip_DrawCircle
 641              		.code	16
 642              		.thumb_func
 643              		.type	ledStrip_DrawCircle, %function
 644              	ledStrip_DrawCircle:
 645              	.LFB47:
 604:Generated_Source\PSoC4/ledStrip.c **** 
 605:Generated_Source\PSoC4/ledStrip.c **** /*******************************************************************************
 606:Generated_Source\PSoC4/ledStrip.c **** * Function Name: ledStrip_DrawCircle
 607:Generated_Source\PSoC4/ledStrip.c **** ********************************************************************************
 608:Generated_Source\PSoC4/ledStrip.c **** *
 609:Generated_Source\PSoC4/ledStrip.c **** * Summary:
 610:Generated_Source\PSoC4/ledStrip.c **** *  Draw a circle on the display given a start point and radius.  
 611:Generated_Source\PSoC4/ledStrip.c **** *
 612:Generated_Source\PSoC4/ledStrip.c **** *  This code uses Bresenham's Circle Algorithm. 
 613:Generated_Source\PSoC4/ledStrip.c **** *
 614:Generated_Source\PSoC4/ledStrip.c **** * Parameters:  
 615:Generated_Source\PSoC4/ledStrip.c **** *  x0, y0: Center of circle
 616:Generated_Source\PSoC4/ledStrip.c **** *  radius: Radius of circle
 617:Generated_Source\PSoC4/ledStrip.c **** *  color:  Color of circle
 618:Generated_Source\PSoC4/ledStrip.c **** *
 619:Generated_Source\PSoC4/ledStrip.c **** * Return: 
 620:Generated_Source\PSoC4/ledStrip.c **** *  None 
 621:Generated_Source\PSoC4/ledStrip.c **** *  
 622:Generated_Source\PSoC4/ledStrip.c **** *******************************************************************************/
 623:Generated_Source\PSoC4/ledStrip.c **** void ledStrip_DrawCircle (int32 x0, int32 y0, int32 radius, uint32 color)
 624:Generated_Source\PSoC4/ledStrip.c **** {
 646              		.loc 1 624 0
 647              		.cfi_startproc
 648              		@ args = 0, pretend = 0, frame = 16
 649              		@ frame_needed = 0, uses_anonymous_args = 0
 650              	.LVL44:
ARM GAS  C:\Users\Tymek\AppData\Local\Temp\cc8Btfy6.s 			page 24


 651 0000 F0B5     		push	{r4, r5, r6, r7, lr}
 652              		.cfi_def_cfa_offset 20
 653              		.cfi_offset 4, -20
 654              		.cfi_offset 5, -16
 655              		.cfi_offset 6, -12
 656              		.cfi_offset 7, -8
 657              		.cfi_offset 14, -4
 658 0002 5F46     		mov	r7, fp
 659 0004 5646     		mov	r6, r10
 660 0006 4D46     		mov	r5, r9
 661 0008 4446     		mov	r4, r8
 662 000a F0B4     		push	{r4, r5, r6, r7}
 663              		.cfi_def_cfa_offset 36
 664              		.cfi_offset 8, -36
 665              		.cfi_offset 9, -32
 666              		.cfi_offset 10, -28
 667              		.cfi_offset 11, -24
 668 000c 85B0     		sub	sp, sp, #20
 669              		.cfi_def_cfa_offset 56
 670 000e 8346     		mov	fp, r0
 671 0010 8846     		mov	r8, r1
 672 0012 1400     		movs	r4, r2
 673 0014 1D00     		movs	r5, r3
 674 0016 0193     		str	r3, [sp, #4]
 625:Generated_Source\PSoC4/ledStrip.c **** 	int32 f = 1 - radius;
 675              		.loc 1 625 0
 676 0018 0123     		movs	r3, #1
 677              	.LVL45:
 678 001a 9B1A     		subs	r3, r3, r2
 679 001c 9946     		mov	r9, r3
 680              	.LVL46:
 626:Generated_Source\PSoC4/ledStrip.c **** 	int32 ddF_x = 0;
 627:Generated_Source\PSoC4/ledStrip.c **** 	int32 ddF_y = -2 * radius;
 681              		.loc 1 627 0
 682 001e D307     		lsls	r3, r2, #31
 683              	.LVL47:
 684 0020 9B1A     		subs	r3, r3, r2
 685 0022 5A00     		lsls	r2, r3, #1
 686              	.LVL48:
 687 0024 9246     		mov	r10, r2
 688              	.LVL49:
 628:Generated_Source\PSoC4/ledStrip.c **** 	int32 x = 0;
 629:Generated_Source\PSoC4/ledStrip.c **** 	int32 y = radius;
 630:Generated_Source\PSoC4/ledStrip.c **** 
 631:Generated_Source\PSoC4/ledStrip.c **** 	ledStrip_Pixel(x0, y0 + radius, color);
 689              		.loc 1 631 0
 690 0026 6118     		adds	r1, r4, r1
 691              	.LVL50:
 692 0028 2A00     		movs	r2, r5
 693              	.LVL51:
 694 002a FFF7FEFF 		bl	ledStrip_Pixel
 695              	.LVL52:
 632:Generated_Source\PSoC4/ledStrip.c **** 	ledStrip_Pixel(x0, y0 - radius, color);
 696              		.loc 1 632 0
 697 002e 4346     		mov	r3, r8
 698 0030 191B     		subs	r1, r3, r4
 699 0032 2A00     		movs	r2, r5
ARM GAS  C:\Users\Tymek\AppData\Local\Temp\cc8Btfy6.s 			page 25


 700 0034 5846     		mov	r0, fp
 701 0036 FFF7FEFF 		bl	ledStrip_Pixel
 702              	.LVL53:
 633:Generated_Source\PSoC4/ledStrip.c **** 	ledStrip_Pixel( x0 + radius, y0, color);
 703              		.loc 1 633 0
 704 003a 5B46     		mov	r3, fp
 705 003c E018     		adds	r0, r4, r3
 706 003e 2A00     		movs	r2, r5
 707 0040 4146     		mov	r1, r8
 708 0042 FFF7FEFF 		bl	ledStrip_Pixel
 709              	.LVL54:
 634:Generated_Source\PSoC4/ledStrip.c **** 	ledStrip_Pixel( x0 - radius, y0, color);
 710              		.loc 1 634 0
 711 0046 5B46     		mov	r3, fp
 712 0048 181B     		subs	r0, r3, r4
 713 004a 2A00     		movs	r2, r5
 714 004c 4146     		mov	r1, r8
 715 004e FFF7FEFF 		bl	ledStrip_Pixel
 716              	.LVL55:
 628:Generated_Source\PSoC4/ledStrip.c **** 	int32 y = radius;
 717              		.loc 1 628 0
 718 0052 0026     		movs	r6, #0
 626:Generated_Source\PSoC4/ledStrip.c **** 	int32 ddF_y = -2 * radius;
 719              		.loc 1 626 0
 720 0054 0023     		movs	r3, #0
 635:Generated_Source\PSoC4/ledStrip.c **** 
 636:Generated_Source\PSoC4/ledStrip.c **** 	while(x < y)
 721              		.loc 1 636 0
 722 0056 48E0     		b	.L50
 723              	.LVL56:
 724              	.L52:
 637:Generated_Source\PSoC4/ledStrip.c **** 	{
 638:Generated_Source\PSoC4/ledStrip.c **** 		if(f >= 0)
 725              		.loc 1 638 0
 726 0058 4A46     		mov	r2, r9
 727 005a 002A     		cmp	r2, #0
 728 005c 04DB     		blt	.L51
 729              	.LVL57:
 639:Generated_Source\PSoC4/ledStrip.c **** 		{
 640:Generated_Source\PSoC4/ledStrip.c **** 			y--;
 730              		.loc 1 640 0
 731 005e 013C     		subs	r4, r4, #1
 732              	.LVL58:
 641:Generated_Source\PSoC4/ledStrip.c **** 			ddF_y += 2;
 733              		.loc 1 641 0
 734 0060 0222     		movs	r2, #2
 735              	.LVL59:
 736 0062 9446     		mov	ip, r2
 737 0064 E244     		add	r10, r10, ip
 738              	.LVL60:
 642:Generated_Source\PSoC4/ledStrip.c **** 			f += ddF_y;
 739              		.loc 1 642 0
 740 0066 D144     		add	r9, r9, r10
 741              	.LVL61:
 742              	.L51:
 643:Generated_Source\PSoC4/ledStrip.c **** 		}
 644:Generated_Source\PSoC4/ledStrip.c **** 		x++;
ARM GAS  C:\Users\Tymek\AppData\Local\Temp\cc8Btfy6.s 			page 26


 743              		.loc 1 644 0
 744 0068 0136     		adds	r6, r6, #1
 745              	.LVL62:
 645:Generated_Source\PSoC4/ledStrip.c **** 		ddF_x += 2;
 746              		.loc 1 645 0
 747 006a 9A1C     		adds	r2, r3, #2
 748 006c 0292     		str	r2, [sp, #8]
 749              	.LVL63:
 646:Generated_Source\PSoC4/ledStrip.c **** 		f += ddF_x + 1;
 750              		.loc 1 646 0
 751 006e 0333     		adds	r3, r3, #3
 752 0070 9944     		add	r9, r9, r3
 753              	.LVL64:
 647:Generated_Source\PSoC4/ledStrip.c **** 
 648:Generated_Source\PSoC4/ledStrip.c **** 		ledStrip_Pixel(x0 + x, y0 + y, color);
 754              		.loc 1 648 0
 755 0072 5946     		mov	r1, fp
 756 0074 8F19     		adds	r7, r1, r6
 757 0076 4146     		mov	r1, r8
 758 0078 6318     		adds	r3, r4, r1
 759 007a 019A     		ldr	r2, [sp, #4]
 760              	.LVL65:
 761 007c 0393     		str	r3, [sp, #12]
 762 007e 1900     		movs	r1, r3
 763 0080 3800     		movs	r0, r7
 764 0082 FFF7FEFF 		bl	ledStrip_Pixel
 765              	.LVL66:
 649:Generated_Source\PSoC4/ledStrip.c **** 		ledStrip_Pixel(x0 - x, y0 + y, color);
 766              		.loc 1 649 0
 767 0086 5846     		mov	r0, fp
 768 0088 851B     		subs	r5, r0, r6
 769 008a 019A     		ldr	r2, [sp, #4]
 770 008c 0399     		ldr	r1, [sp, #12]
 771 008e 2800     		movs	r0, r5
 772 0090 FFF7FEFF 		bl	ledStrip_Pixel
 773              	.LVL67:
 650:Generated_Source\PSoC4/ledStrip.c **** 		ledStrip_Pixel( x0 + x, y0 - y, color);
 774              		.loc 1 650 0
 775 0094 4146     		mov	r1, r8
 776 0096 0B1B     		subs	r3, r1, r4
 777 0098 019A     		ldr	r2, [sp, #4]
 778 009a 0393     		str	r3, [sp, #12]
 779 009c 1900     		movs	r1, r3
 780 009e 3800     		movs	r0, r7
 781 00a0 FFF7FEFF 		bl	ledStrip_Pixel
 782              	.LVL68:
 651:Generated_Source\PSoC4/ledStrip.c **** 		ledStrip_Pixel( x0 - x, y0 - y, color);
 783              		.loc 1 651 0
 784 00a4 019A     		ldr	r2, [sp, #4]
 785 00a6 0399     		ldr	r1, [sp, #12]
 786 00a8 2800     		movs	r0, r5
 787 00aa FFF7FEFF 		bl	ledStrip_Pixel
 788              	.LVL69:
 652:Generated_Source\PSoC4/ledStrip.c **** 		ledStrip_Pixel( x0 + y, y0 + x, color);
 789              		.loc 1 652 0
 790 00ae 5946     		mov	r1, fp
 791 00b0 6718     		adds	r7, r4, r1
ARM GAS  C:\Users\Tymek\AppData\Local\Temp\cc8Btfy6.s 			page 27


 792 00b2 4146     		mov	r1, r8
 793 00b4 8D19     		adds	r5, r1, r6
 794 00b6 019A     		ldr	r2, [sp, #4]
 795 00b8 2900     		movs	r1, r5
 796 00ba 3800     		movs	r0, r7
 797 00bc FFF7FEFF 		bl	ledStrip_Pixel
 798              	.LVL70:
 653:Generated_Source\PSoC4/ledStrip.c **** 		ledStrip_Pixel( x0 - y, y0 + x, color);
 799              		.loc 1 653 0
 800 00c0 5946     		mov	r1, fp
 801 00c2 0B1B     		subs	r3, r1, r4
 802 00c4 019A     		ldr	r2, [sp, #4]
 803 00c6 2900     		movs	r1, r5
 804 00c8 0393     		str	r3, [sp, #12]
 805 00ca 1800     		movs	r0, r3
 806 00cc FFF7FEFF 		bl	ledStrip_Pixel
 807              	.LVL71:
 654:Generated_Source\PSoC4/ledStrip.c **** 		ledStrip_Pixel( x0 + y, y0 - x, color);
 808              		.loc 1 654 0
 809 00d0 4146     		mov	r1, r8
 810 00d2 8D1B     		subs	r5, r1, r6
 811 00d4 019A     		ldr	r2, [sp, #4]
 812 00d6 2900     		movs	r1, r5
 813 00d8 3800     		movs	r0, r7
 814 00da FFF7FEFF 		bl	ledStrip_Pixel
 815              	.LVL72:
 655:Generated_Source\PSoC4/ledStrip.c **** 		ledStrip_Pixel( x0 - y, y0 - x, color);
 816              		.loc 1 655 0
 817 00de 019A     		ldr	r2, [sp, #4]
 818 00e0 2900     		movs	r1, r5
 819 00e2 0398     		ldr	r0, [sp, #12]
 820 00e4 FFF7FEFF 		bl	ledStrip_Pixel
 821              	.LVL73:
 645:Generated_Source\PSoC4/ledStrip.c **** 		f += ddF_x + 1;
 822              		.loc 1 645 0
 823 00e8 029B     		ldr	r3, [sp, #8]
 824              	.LVL74:
 825              	.L50:
 636:Generated_Source\PSoC4/ledStrip.c **** 	{
 826              		.loc 1 636 0
 827 00ea A642     		cmp	r6, r4
 828 00ec B4DB     		blt	.L52
 656:Generated_Source\PSoC4/ledStrip.c **** 	}
 657:Generated_Source\PSoC4/ledStrip.c **** }
 829              		.loc 1 657 0
 830 00ee 05B0     		add	sp, sp, #20
 831              		@ sp needed
 832              	.LVL75:
 833              	.LVL76:
 834              	.LVL77:
 835              	.LVL78:
 836              	.LVL79:
 837              	.LVL80:
 838 00f0 3CBC     		pop	{r2, r3, r4, r5}
 839 00f2 9046     		mov	r8, r2
 840 00f4 9946     		mov	r9, r3
 841 00f6 A246     		mov	r10, r4
ARM GAS  C:\Users\Tymek\AppData\Local\Temp\cc8Btfy6.s 			page 28


 842 00f8 AB46     		mov	fp, r5
 843 00fa F0BD     		pop	{r4, r5, r6, r7, pc}
 844              		.cfi_endproc
 845              	.LFE47:
 846              		.size	ledStrip_DrawCircle, .-ledStrip_DrawCircle
 847              		.section	.text.ledStrip_DrawLine,"ax",%progbits
 848              		.align	2
 849              		.global	ledStrip_DrawLine
 850              		.code	16
 851              		.thumb_func
 852              		.type	ledStrip_DrawLine, %function
 853              	ledStrip_DrawLine:
 854              	.LFB48:
 658:Generated_Source\PSoC4/ledStrip.c **** 
 659:Generated_Source\PSoC4/ledStrip.c **** 
 660:Generated_Source\PSoC4/ledStrip.c **** /*******************************************************************************
 661:Generated_Source\PSoC4/ledStrip.c **** * Function Name: ledStrip_DrawLine
 662:Generated_Source\PSoC4/ledStrip.c **** ********************************************************************************
 663:Generated_Source\PSoC4/ledStrip.c **** *
 664:Generated_Source\PSoC4/ledStrip.c **** * Summary:
 665:Generated_Source\PSoC4/ledStrip.c **** *  Draw a line on the display.  
 666:Generated_Source\PSoC4/ledStrip.c **** *
 667:Generated_Source\PSoC4/ledStrip.c **** * Parameters:  
 668:Generated_Source\PSoC4/ledStrip.c **** *  x0, y0:  The beginning endpoint
 669:Generated_Source\PSoC4/ledStrip.c **** *  x1, y1:  The end endpoint.
 670:Generated_Source\PSoC4/ledStrip.c **** *  color:   Color of the line.
 671:Generated_Source\PSoC4/ledStrip.c **** *
 672:Generated_Source\PSoC4/ledStrip.c **** * Return: 
 673:Generated_Source\PSoC4/ledStrip.c **** *  None 
 674:Generated_Source\PSoC4/ledStrip.c **** *  
 675:Generated_Source\PSoC4/ledStrip.c **** *******************************************************************************/
 676:Generated_Source\PSoC4/ledStrip.c **** void ledStrip_DrawLine(int32 x0, int32 y0, int32 x1, int32 y1, uint32 color)
 677:Generated_Source\PSoC4/ledStrip.c **** {
 855              		.loc 1 677 0
 856              		.cfi_startproc
 857              		@ args = 4, pretend = 0, frame = 8
 858              		@ frame_needed = 0, uses_anonymous_args = 0
 859              	.LVL81:
 860 0000 F0B5     		push	{r4, r5, r6, r7, lr}
 861              		.cfi_def_cfa_offset 20
 862              		.cfi_offset 4, -20
 863              		.cfi_offset 5, -16
 864              		.cfi_offset 6, -12
 865              		.cfi_offset 7, -8
 866              		.cfi_offset 14, -4
 867 0002 5F46     		mov	r7, fp
 868 0004 5646     		mov	r6, r10
 869 0006 4D46     		mov	r5, r9
 870 0008 4446     		mov	r4, r8
 871 000a F0B4     		push	{r4, r5, r6, r7}
 872              		.cfi_def_cfa_offset 36
 873              		.cfi_offset 8, -36
 874              		.cfi_offset 9, -32
 875              		.cfi_offset 10, -28
 876              		.cfi_offset 11, -24
 877 000c 83B0     		sub	sp, sp, #12
 878              		.cfi_def_cfa_offset 48
ARM GAS  C:\Users\Tymek\AppData\Local\Temp\cc8Btfy6.s 			page 29


 879 000e 0400     		movs	r4, r0
 880 0010 0D00     		movs	r5, r1
 881 0012 0192     		str	r2, [sp, #4]
 882 0014 9B46     		mov	fp, r3
 678:Generated_Source\PSoC4/ledStrip.c **** 	int32 dy = y1 - y0; /* Difference between y0 and y1 */
 883              		.loc 1 678 0
 884 0016 5B1A     		subs	r3, r3, r1
 885              	.LVL82:
 679:Generated_Source\PSoC4/ledStrip.c **** 	int32 dx = x1 - x0; /* Difference between x0 and x1 */
 886              		.loc 1 679 0
 887 0018 171A     		subs	r7, r2, r0
 888              	.LVL83:
 680:Generated_Source\PSoC4/ledStrip.c **** 	int32 stepx, stepy;
 681:Generated_Source\PSoC4/ledStrip.c **** 
 682:Generated_Source\PSoC4/ledStrip.c **** 	if (dy < 0)
 889              		.loc 1 682 0
 890 001a 002B     		cmp	r3, #0
 891 001c 04DA     		bge	.L64
 683:Generated_Source\PSoC4/ledStrip.c **** 	{
 684:Generated_Source\PSoC4/ledStrip.c **** 		dy = -dy;
 892              		.loc 1 684 0
 893 001e 5B42     		rsbs	r3, r3, #0
 894              	.LVL84:
 685:Generated_Source\PSoC4/ledStrip.c **** 		stepy = -1;
 895              		.loc 1 685 0
 896 0020 0122     		movs	r2, #1
 897              	.LVL85:
 898 0022 5242     		rsbs	r2, r2, #0
 899 0024 9246     		mov	r10, r2
 900 0026 01E0     		b	.L54
 901              	.LVL86:
 902              	.L64:
 686:Generated_Source\PSoC4/ledStrip.c **** 	}
 687:Generated_Source\PSoC4/ledStrip.c **** 	else
 688:Generated_Source\PSoC4/ledStrip.c **** 	{
 689:Generated_Source\PSoC4/ledStrip.c **** 		stepy = 1;
 903              		.loc 1 689 0
 904 0028 0122     		movs	r2, #1
 905              	.LVL87:
 906 002a 9246     		mov	r10, r2
 907              	.L54:
 908              	.LVL88:
 690:Generated_Source\PSoC4/ledStrip.c **** 	}
 691:Generated_Source\PSoC4/ledStrip.c **** 
 692:Generated_Source\PSoC4/ledStrip.c **** 	if (dx < 0)
 909              		.loc 1 692 0
 910 002c 002F     		cmp	r7, #0
 911 002e 04DA     		bge	.L65
 693:Generated_Source\PSoC4/ledStrip.c **** 	{
 694:Generated_Source\PSoC4/ledStrip.c **** 		dx = -dx;
 912              		.loc 1 694 0
 913 0030 7F42     		rsbs	r7, r7, #0
 914              	.LVL89:
 695:Generated_Source\PSoC4/ledStrip.c **** 		stepx = -1;
 915              		.loc 1 695 0
 916 0032 0122     		movs	r2, #1
 917 0034 5242     		rsbs	r2, r2, #0
ARM GAS  C:\Users\Tymek\AppData\Local\Temp\cc8Btfy6.s 			page 30


 918 0036 9146     		mov	r9, r2
 919 0038 01E0     		b	.L55
 920              	.LVL90:
 921              	.L65:
 696:Generated_Source\PSoC4/ledStrip.c **** 	}
 697:Generated_Source\PSoC4/ledStrip.c **** 	else
 698:Generated_Source\PSoC4/ledStrip.c **** 	{
 699:Generated_Source\PSoC4/ledStrip.c **** 		stepx = 1;
 922              		.loc 1 699 0
 923 003a 0122     		movs	r2, #1
 924 003c 9146     		mov	r9, r2
 925              	.L55:
 926              	.LVL91:
 700:Generated_Source\PSoC4/ledStrip.c **** 	}
 701:Generated_Source\PSoC4/ledStrip.c **** 
 702:Generated_Source\PSoC4/ledStrip.c **** 	dy <<= 1; /* dy is now 2*dy  */
 927              		.loc 1 702 0
 928 003e 5B00     		lsls	r3, r3, #1
 929              	.LVL92:
 930 0040 9846     		mov	r8, r3
 931              	.LVL93:
 703:Generated_Source\PSoC4/ledStrip.c **** 	dx <<= 1; /* dx is now 2*dx  */
 932              		.loc 1 703 0
 933 0042 7F00     		lsls	r7, r7, #1
 934              	.LVL94:
 704:Generated_Source\PSoC4/ledStrip.c **** 	ledStrip_Pixel(x0, y0, color);
 935              		.loc 1 704 0
 936 0044 0C9A     		ldr	r2, [sp, #48]
 937 0046 2900     		movs	r1, r5
 938              	.LVL95:
 939 0048 2000     		movs	r0, r4
 940              	.LVL96:
 941 004a FFF7FEFF 		bl	ledStrip_Pixel
 942              	.LVL97:
 705:Generated_Source\PSoC4/ledStrip.c **** 
 706:Generated_Source\PSoC4/ledStrip.c **** 	if (dx > dy) 
 943              		.loc 1 706 0
 944 004e B845     		cmp	r8, r7
 945 0050 12DA     		bge	.L56
 946              	.LBB2:
 707:Generated_Source\PSoC4/ledStrip.c **** 	{
 708:Generated_Source\PSoC4/ledStrip.c **** 		int fraction = dy - (dx >> 1);
 947              		.loc 1 708 0
 948 0052 7B10     		asrs	r3, r7, #1
 949 0054 4246     		mov	r2, r8
 950 0056 D61A     		subs	r6, r2, r3
 951              	.LVL98:
 709:Generated_Source\PSoC4/ledStrip.c **** 		while (x0 != x1)
 952              		.loc 1 709 0
 953 0058 0AE0     		b	.L57
 954              	.L59:
 710:Generated_Source\PSoC4/ledStrip.c **** 		{
 711:Generated_Source\PSoC4/ledStrip.c **** 			if (fraction >= 0)
 955              		.loc 1 711 0
 956 005a 002E     		cmp	r6, #0
 957 005c 01DB     		blt	.L58
 712:Generated_Source\PSoC4/ledStrip.c **** 			{
ARM GAS  C:\Users\Tymek\AppData\Local\Temp\cc8Btfy6.s 			page 31


 713:Generated_Source\PSoC4/ledStrip.c **** 				y0 += stepy;
 958              		.loc 1 713 0
 959 005e 5544     		add	r5, r5, r10
 960              	.LVL99:
 714:Generated_Source\PSoC4/ledStrip.c **** 				fraction -= dx;
 961              		.loc 1 714 0
 962 0060 F61B     		subs	r6, r6, r7
 963              	.LVL100:
 964              	.L58:
 715:Generated_Source\PSoC4/ledStrip.c **** 			}
 716:Generated_Source\PSoC4/ledStrip.c **** 			x0 += stepx;
 965              		.loc 1 716 0
 966 0062 4C44     		add	r4, r4, r9
 967              	.LVL101:
 717:Generated_Source\PSoC4/ledStrip.c **** 			fraction += dy;
 968              		.loc 1 717 0
 969 0064 4644     		add	r6, r6, r8
 970              	.LVL102:
 718:Generated_Source\PSoC4/ledStrip.c **** 			ledStrip_Pixel(x0, y0, color);
 971              		.loc 1 718 0
 972 0066 0C9A     		ldr	r2, [sp, #48]
 973 0068 2900     		movs	r1, r5
 974 006a 2000     		movs	r0, r4
 975 006c FFF7FEFF 		bl	ledStrip_Pixel
 976              	.LVL103:
 977              	.L57:
 709:Generated_Source\PSoC4/ledStrip.c **** 		{
 978              		.loc 1 709 0
 979 0070 019B     		ldr	r3, [sp, #4]
 980 0072 9C42     		cmp	r4, r3
 981 0074 F1D1     		bne	.L59
 982 0076 11E0     		b	.L53
 983              	.LVL104:
 984              	.L56:
 985              	.LBE2:
 986              	.LBB3:
 719:Generated_Source\PSoC4/ledStrip.c **** 		}
 720:Generated_Source\PSoC4/ledStrip.c **** 	}
 721:Generated_Source\PSoC4/ledStrip.c **** 	else
 722:Generated_Source\PSoC4/ledStrip.c **** 	{
 723:Generated_Source\PSoC4/ledStrip.c **** 		int fraction = dx - (dy >> 1);
 987              		.loc 1 723 0
 988 0078 4346     		mov	r3, r8
 989 007a 5E10     		asrs	r6, r3, #1
 990 007c BE1B     		subs	r6, r7, r6
 991              	.LVL105:
 724:Generated_Source\PSoC4/ledStrip.c **** 		while (y0 != y1)
 992              		.loc 1 724 0
 993 007e 0BE0     		b	.L61
 994              	.L63:
 725:Generated_Source\PSoC4/ledStrip.c **** 		{
 726:Generated_Source\PSoC4/ledStrip.c **** 			if (fraction >= 0)
 995              		.loc 1 726 0
 996 0080 002E     		cmp	r6, #0
 997 0082 02DB     		blt	.L62
 727:Generated_Source\PSoC4/ledStrip.c **** 			{
 728:Generated_Source\PSoC4/ledStrip.c **** 				x0 += stepx;
ARM GAS  C:\Users\Tymek\AppData\Local\Temp\cc8Btfy6.s 			page 32


 998              		.loc 1 728 0
 999 0084 4C44     		add	r4, r4, r9
 1000              	.LVL106:
 729:Generated_Source\PSoC4/ledStrip.c **** 				fraction -= dy;
 1001              		.loc 1 729 0
 1002 0086 4346     		mov	r3, r8
 1003 0088 F61A     		subs	r6, r6, r3
 1004              	.LVL107:
 1005              	.L62:
 730:Generated_Source\PSoC4/ledStrip.c **** 			}
 731:Generated_Source\PSoC4/ledStrip.c **** 			y0 += stepy;
 1006              		.loc 1 731 0
 1007 008a 5544     		add	r5, r5, r10
 1008              	.LVL108:
 732:Generated_Source\PSoC4/ledStrip.c **** 			fraction += dx;
 1009              		.loc 1 732 0
 1010 008c F619     		adds	r6, r6, r7
 1011              	.LVL109:
 733:Generated_Source\PSoC4/ledStrip.c **** 			ledStrip_Pixel( x0, y0, color);
 1012              		.loc 1 733 0
 1013 008e 0C9A     		ldr	r2, [sp, #48]
 1014 0090 2900     		movs	r1, r5
 1015 0092 2000     		movs	r0, r4
 1016 0094 FFF7FEFF 		bl	ledStrip_Pixel
 1017              	.LVL110:
 1018              	.L61:
 724:Generated_Source\PSoC4/ledStrip.c **** 		{
 1019              		.loc 1 724 0
 1020 0098 5D45     		cmp	r5, fp
 1021 009a F1D1     		bne	.L63
 1022              	.LVL111:
 1023              	.L53:
 1024              	.LBE3:
 734:Generated_Source\PSoC4/ledStrip.c **** 		}
 735:Generated_Source\PSoC4/ledStrip.c **** 	}
 736:Generated_Source\PSoC4/ledStrip.c **** }
 1025              		.loc 1 736 0
 1026 009c 03B0     		add	sp, sp, #12
 1027              		@ sp needed
 1028              	.LVL112:
 1029              	.LVL113:
 1030              	.LVL114:
 1031              	.LVL115:
 1032              	.LVL116:
 1033              	.LVL117:
 1034              	.LVL118:
 1035 009e 3CBC     		pop	{r2, r3, r4, r5}
 1036 00a0 9046     		mov	r8, r2
 1037 00a2 9946     		mov	r9, r3
 1038 00a4 A246     		mov	r10, r4
 1039 00a6 AB46     		mov	fp, r5
 1040 00a8 F0BD     		pop	{r4, r5, r6, r7, pc}
 1041              		.cfi_endproc
 1042              	.LFE48:
 1043              		.size	ledStrip_DrawLine, .-ledStrip_DrawLine
 1044 00aa C046     		.section	.text.ledStrip_DrawRect,"ax",%progbits
 1045              		.align	2
ARM GAS  C:\Users\Tymek\AppData\Local\Temp\cc8Btfy6.s 			page 33


 1046              		.global	ledStrip_DrawRect
 1047              		.code	16
 1048              		.thumb_func
 1049              		.type	ledStrip_DrawRect, %function
 1050              	ledStrip_DrawRect:
 1051              	.LFB49:
 737:Generated_Source\PSoC4/ledStrip.c **** 
 738:Generated_Source\PSoC4/ledStrip.c **** /*******************************************************************************
 739:Generated_Source\PSoC4/ledStrip.c **** * Function Name: ledStrip_DrawRect
 740:Generated_Source\PSoC4/ledStrip.c **** ********************************************************************************
 741:Generated_Source\PSoC4/ledStrip.c **** *
 742:Generated_Source\PSoC4/ledStrip.c **** * Summary:
 743:Generated_Source\PSoC4/ledStrip.c **** *  Draw a rectangle, filled or not.  
 744:Generated_Source\PSoC4/ledStrip.c **** *
 745:Generated_Source\PSoC4/ledStrip.c **** * Parameters:  
 746:Generated_Source\PSoC4/ledStrip.c **** *  x0, y0:  The upper lefthand corner.
 747:Generated_Source\PSoC4/ledStrip.c **** *  x1, y1:  The lower right corner.
 748:Generated_Source\PSoC4/ledStrip.c **** *  fill:    Non-Zero if retangle is to be filled.
 749:Generated_Source\PSoC4/ledStrip.c **** *  color:   Color for rectangle, border and fill.
 750:Generated_Source\PSoC4/ledStrip.c **** *
 751:Generated_Source\PSoC4/ledStrip.c **** * Return: 
 752:Generated_Source\PSoC4/ledStrip.c **** *  None 
 753:Generated_Source\PSoC4/ledStrip.c **** *  
 754:Generated_Source\PSoC4/ledStrip.c **** *******************************************************************************/
 755:Generated_Source\PSoC4/ledStrip.c **** void ledStrip_DrawRect(int32 x0, int32 y0, int32 x1, int32 y1, int32 fill, uint32 color)
 756:Generated_Source\PSoC4/ledStrip.c **** {	
 1052              		.loc 1 756 0
 1053              		.cfi_startproc
 1054              		@ args = 8, pretend = 0, frame = 8
 1055              		@ frame_needed = 0, uses_anonymous_args = 0
 1056              	.LVL119:
 1057 0000 F0B5     		push	{r4, r5, r6, r7, lr}
 1058              		.cfi_def_cfa_offset 20
 1059              		.cfi_offset 4, -20
 1060              		.cfi_offset 5, -16
 1061              		.cfi_offset 6, -12
 1062              		.cfi_offset 7, -8
 1063              		.cfi_offset 14, -4
 1064 0002 85B0     		sub	sp, sp, #20
 1065              		.cfi_def_cfa_offset 40
 1066 0004 0400     		movs	r4, r0
 1067 0006 0391     		str	r1, [sp, #12]
 1068 0008 1600     		movs	r6, r2
 1069 000a 0293     		str	r3, [sp, #8]
 1070 000c 0B9F     		ldr	r7, [sp, #44]
 757:Generated_Source\PSoC4/ledStrip.c ****      int xDiff;
 758:Generated_Source\PSoC4/ledStrip.c **** 	/* Check if the rectangle is to be filled    */
 759:Generated_Source\PSoC4/ledStrip.c **** 	if (fill != 0)
 1071              		.loc 1 759 0
 1072 000e 0A9B     		ldr	r3, [sp, #40]
 1073              	.LVL120:
 1074 0010 002B     		cmp	r3, #0
 1075 0012 15D0     		beq	.L67
 760:Generated_Source\PSoC4/ledStrip.c **** 	{	
 761:Generated_Source\PSoC4/ledStrip.c ****         /* Find the difference between the x vars */
 762:Generated_Source\PSoC4/ledStrip.c **** 		if(x0 > x1)
 1076              		.loc 1 762 0
ARM GAS  C:\Users\Tymek\AppData\Local\Temp\cc8Btfy6.s 			page 34


 1077 0014 9042     		cmp	r0, r2
 1078 0016 01DD     		ble	.L68
 763:Generated_Source\PSoC4/ledStrip.c **** 		{
 764:Generated_Source\PSoC4/ledStrip.c **** 			xDiff = x0 - x1; 
 1079              		.loc 1 764 0
 1080 0018 851A     		subs	r5, r0, r2
 1081              	.LVL121:
 1082 001a 0EE0     		b	.L69
 1083              	.LVL122:
 1084              	.L68:
 765:Generated_Source\PSoC4/ledStrip.c **** 		}
 766:Generated_Source\PSoC4/ledStrip.c **** 		else
 767:Generated_Source\PSoC4/ledStrip.c **** 		{
 768:Generated_Source\PSoC4/ledStrip.c **** 			xDiff = x1 - x0;
 1085              		.loc 1 768 0
 1086 001c 151A     		subs	r5, r2, r0
 1087              	.LVL123:
 1088 001e 0CE0     		b	.L69
 1089              	.LVL124:
 1090              	.L73:
 769:Generated_Source\PSoC4/ledStrip.c **** 		}
 770:Generated_Source\PSoC4/ledStrip.c **** 	
 771:Generated_Source\PSoC4/ledStrip.c **** 	    /* Fill it with lines  */
 772:Generated_Source\PSoC4/ledStrip.c **** 		while(xDiff >= 0)
 773:Generated_Source\PSoC4/ledStrip.c **** 		{
 774:Generated_Source\PSoC4/ledStrip.c **** 			ledStrip_DrawLine(x0, y0, x0, y1, color);
 1091              		.loc 1 774 0
 1092 0020 0097     		str	r7, [sp]
 1093 0022 029B     		ldr	r3, [sp, #8]
 1094 0024 2200     		movs	r2, r4
 1095 0026 0399     		ldr	r1, [sp, #12]
 1096 0028 2000     		movs	r0, r4
 1097 002a FFF7FEFF 		bl	ledStrip_DrawLine
 1098              	.LVL125:
 775:Generated_Source\PSoC4/ledStrip.c **** 		
 776:Generated_Source\PSoC4/ledStrip.c **** 			if(x0 > x1)
 1099              		.loc 1 776 0
 1100 002e B442     		cmp	r4, r6
 1101 0030 01DD     		ble	.L71
 777:Generated_Source\PSoC4/ledStrip.c **** 				x0--;
 1102              		.loc 1 777 0
 1103 0032 013C     		subs	r4, r4, #1
 1104              	.LVL126:
 1105 0034 00E0     		b	.L72
 1106              	.L71:
 778:Generated_Source\PSoC4/ledStrip.c **** 			else
 779:Generated_Source\PSoC4/ledStrip.c **** 				x0++;
 1107              		.loc 1 779 0
 1108 0036 0134     		adds	r4, r4, #1
 1109              	.LVL127:
 1110              	.L72:
 780:Generated_Source\PSoC4/ledStrip.c **** 		
 781:Generated_Source\PSoC4/ledStrip.c **** 			xDiff--;
 1111              		.loc 1 781 0
 1112 0038 013D     		subs	r5, r5, #1
 1113              	.LVL128:
 1114              	.L69:
ARM GAS  C:\Users\Tymek\AppData\Local\Temp\cc8Btfy6.s 			page 35


 772:Generated_Source\PSoC4/ledStrip.c **** 		{
 1115              		.loc 1 772 0
 1116 003a 002D     		cmp	r5, #0
 1117 003c F0DA     		bge	.L73
 1118 003e 1AE0     		b	.L66
 1119              	.LVL129:
 1120              	.L67:
 782:Generated_Source\PSoC4/ledStrip.c **** 		}
 783:Generated_Source\PSoC4/ledStrip.c **** 
 784:Generated_Source\PSoC4/ledStrip.c **** 	}
 785:Generated_Source\PSoC4/ledStrip.c **** 	else 
 786:Generated_Source\PSoC4/ledStrip.c **** 	{
 787:Generated_Source\PSoC4/ledStrip.c **** 		/* Draw the four sides of the rectangle */
 788:Generated_Source\PSoC4/ledStrip.c **** 		ledStrip_DrawLine(x0, y0, x1, y0, color);
 1121              		.loc 1 788 0
 1122 0040 0097     		str	r7, [sp]
 1123 0042 039D     		ldr	r5, [sp, #12]
 1124 0044 2B00     		movs	r3, r5
 1125 0046 2900     		movs	r1, r5
 1126              	.LVL130:
 1127 0048 FFF7FEFF 		bl	ledStrip_DrawLine
 1128              	.LVL131:
 789:Generated_Source\PSoC4/ledStrip.c **** 		ledStrip_DrawLine(x0, y1, x1, y1, color);
 1129              		.loc 1 789 0
 1130 004c 0097     		str	r7, [sp]
 1131 004e 0299     		ldr	r1, [sp, #8]
 1132 0050 0B00     		movs	r3, r1
 1133 0052 3200     		movs	r2, r6
 1134 0054 2000     		movs	r0, r4
 1135 0056 FFF7FEFF 		bl	ledStrip_DrawLine
 1136              	.LVL132:
 790:Generated_Source\PSoC4/ledStrip.c **** 		ledStrip_DrawLine(x0, y0, x0, y1, color);
 1137              		.loc 1 790 0
 1138 005a 0097     		str	r7, [sp]
 1139 005c 029B     		ldr	r3, [sp, #8]
 1140 005e 2200     		movs	r2, r4
 1141 0060 2900     		movs	r1, r5
 1142 0062 2000     		movs	r0, r4
 1143 0064 FFF7FEFF 		bl	ledStrip_DrawLine
 1144              	.LVL133:
 791:Generated_Source\PSoC4/ledStrip.c **** 		ledStrip_DrawLine(x1, y0, x1, y1, color);
 1145              		.loc 1 791 0
 1146 0068 0097     		str	r7, [sp]
 1147 006a 029B     		ldr	r3, [sp, #8]
 1148 006c 3200     		movs	r2, r6
 1149 006e 2900     		movs	r1, r5
 1150 0070 3000     		movs	r0, r6
 1151 0072 FFF7FEFF 		bl	ledStrip_DrawLine
 1152              	.LVL134:
 1153              	.L66:
 792:Generated_Source\PSoC4/ledStrip.c **** 	}
 793:Generated_Source\PSoC4/ledStrip.c **** }
 1154              		.loc 1 793 0
 1155 0076 05B0     		add	sp, sp, #20
 1156              		@ sp needed
 1157              	.LVL135:
 1158              	.LVL136:
ARM GAS  C:\Users\Tymek\AppData\Local\Temp\cc8Btfy6.s 			page 36


 1159 0078 F0BD     		pop	{r4, r5, r6, r7, pc}
 1160              		.cfi_endproc
 1161              	.LFE49:
 1162              		.size	ledStrip_DrawRect, .-ledStrip_DrawRect
 1163 007a C046     		.section	.text.ledStrip_Dim,"ax",%progbits
 1164              		.align	2
 1165              		.global	ledStrip_Dim
 1166              		.code	16
 1167              		.thumb_func
 1168              		.type	ledStrip_Dim, %function
 1169              	ledStrip_Dim:
 1170              	.LFB50:
 794:Generated_Source\PSoC4/ledStrip.c **** 
 795:Generated_Source\PSoC4/ledStrip.c **** /*******************************************************************************
 796:Generated_Source\PSoC4/ledStrip.c **** * Function Name: ledStrip_Dim
 797:Generated_Source\PSoC4/ledStrip.c **** ********************************************************************************
 798:Generated_Source\PSoC4/ledStrip.c **** *
 799:Generated_Source\PSoC4/ledStrip.c **** * Summary:
 800:Generated_Source\PSoC4/ledStrip.c **** *  Dim all output by a specific level (0,1,2,3,4)  
 801:Generated_Source\PSoC4/ledStrip.c **** *
 802:Generated_Source\PSoC4/ledStrip.c **** * Parameters:  
 803:Generated_Source\PSoC4/ledStrip.c **** *  dimLevel:  Dim level 1 to 4, 0 => No dimming.
 804:Generated_Source\PSoC4/ledStrip.c **** *
 805:Generated_Source\PSoC4/ledStrip.c **** * Return: 
 806:Generated_Source\PSoC4/ledStrip.c **** *  None 
 807:Generated_Source\PSoC4/ledStrip.c **** *  
 808:Generated_Source\PSoC4/ledStrip.c **** *******************************************************************************/
 809:Generated_Source\PSoC4/ledStrip.c **** void ledStrip_Dim(uint32 dimLevel) 
 810:Generated_Source\PSoC4/ledStrip.c **** {
 1171              		.loc 1 810 0
 1172              		.cfi_startproc
 1173              		@ args = 0, pretend = 0, frame = 0
 1174              		@ frame_needed = 0, uses_anonymous_args = 0
 1175              		@ link register save eliminated.
 1176              	.LVL137:
 811:Generated_Source\PSoC4/ledStrip.c **** extern uint32  ledStrip_DimMask;
 812:Generated_Source\PSoC4/ledStrip.c **** extern uint32  ledStrip_DimShift;
 813:Generated_Source\PSoC4/ledStrip.c **** 
 814:Generated_Source\PSoC4/ledStrip.c ****     switch(dimLevel)
 1177              		.loc 1 814 0
 1178 0000 0228     		cmp	r0, #2
 1179 0002 0FD0     		beq	.L77
 1180 0004 02D8     		bhi	.L78
 1181 0006 0128     		cmp	r0, #1
 1182 0008 05D0     		beq	.L79
 1183 000a 20E0     		b	.L76
 1184              	.L78:
 1185 000c 0328     		cmp	r0, #3
 1186 000e 10D0     		beq	.L80
 1187 0010 0428     		cmp	r0, #4
 1188 0012 15D0     		beq	.L81
 1189 0014 1BE0     		b	.L76
 1190              	.L79:
 815:Generated_Source\PSoC4/ledStrip.c ****     {
 816:Generated_Source\PSoC4/ledStrip.c ****        case 1:  // 1/2 bright
 817:Generated_Source\PSoC4/ledStrip.c ****            ledStrip_DimMask = 0x007F7F7F;
 1191              		.loc 1 817 0
ARM GAS  C:\Users\Tymek\AppData\Local\Temp\cc8Btfy6.s 			page 37


 1192 0016 114A     		ldr	r2, .L83
 1193 0018 114B     		ldr	r3, .L83+4
 1194 001a 1A60     		str	r2, [r3]
 818:Generated_Source\PSoC4/ledStrip.c ****            ledStrip_DimShift = 1;
 1195              		.loc 1 818 0
 1196 001c 0122     		movs	r2, #1
 1197 001e 114B     		ldr	r3, .L83+8
 1198 0020 1A60     		str	r2, [r3]
 819:Generated_Source\PSoC4/ledStrip.c ****            break;
 1199              		.loc 1 819 0
 1200 0022 1AE0     		b	.L75
 1201              	.L77:
 820:Generated_Source\PSoC4/ledStrip.c ****            
 821:Generated_Source\PSoC4/ledStrip.c ****        case 2:
 822:Generated_Source\PSoC4/ledStrip.c ****            ledStrip_DimMask = 0x003F3F3F;
 1202              		.loc 1 822 0
 1203 0024 104A     		ldr	r2, .L83+12
 1204 0026 0E4B     		ldr	r3, .L83+4
 1205 0028 1A60     		str	r2, [r3]
 823:Generated_Source\PSoC4/ledStrip.c ****            ledStrip_DimShift = 2;
 1206              		.loc 1 823 0
 1207 002a 0222     		movs	r2, #2
 1208 002c 0D4B     		ldr	r3, .L83+8
 1209 002e 1A60     		str	r2, [r3]
 824:Generated_Source\PSoC4/ledStrip.c ****            break;
 1210              		.loc 1 824 0
 1211 0030 13E0     		b	.L75
 1212              	.L80:
 825:Generated_Source\PSoC4/ledStrip.c ****            
 826:Generated_Source\PSoC4/ledStrip.c ****        case 3:
 827:Generated_Source\PSoC4/ledStrip.c ****            ledStrip_DimMask = 0x001F1F1F;
 1213              		.loc 1 827 0
 1214 0032 0E4A     		ldr	r2, .L83+16
 1215 0034 0A4B     		ldr	r3, .L83+4
 1216 0036 1A60     		str	r2, [r3]
 828:Generated_Source\PSoC4/ledStrip.c ****            ledStrip_DimShift = 3;
 1217              		.loc 1 828 0
 1218 0038 0322     		movs	r2, #3
 1219 003a 0A4B     		ldr	r3, .L83+8
 1220 003c 1A60     		str	r2, [r3]
 829:Generated_Source\PSoC4/ledStrip.c ****            break;
 1221              		.loc 1 829 0
 1222 003e 0CE0     		b	.L75
 1223              	.L81:
 830:Generated_Source\PSoC4/ledStrip.c ****            
 831:Generated_Source\PSoC4/ledStrip.c ****        case 4:
 832:Generated_Source\PSoC4/ledStrip.c ****            ledStrip_DimMask = 0x000F0F0F;
 1224              		.loc 1 832 0
 1225 0040 0B4A     		ldr	r2, .L83+20
 1226 0042 074B     		ldr	r3, .L83+4
 1227 0044 1A60     		str	r2, [r3]
 833:Generated_Source\PSoC4/ledStrip.c ****            ledStrip_DimShift = 4;
 1228              		.loc 1 833 0
 1229 0046 0422     		movs	r2, #4
 1230 0048 064B     		ldr	r3, .L83+8
 1231 004a 1A60     		str	r2, [r3]
 834:Generated_Source\PSoC4/ledStrip.c ****            break;
ARM GAS  C:\Users\Tymek\AppData\Local\Temp\cc8Btfy6.s 			page 38


 1232              		.loc 1 834 0
 1233 004c 05E0     		b	.L75
 1234              	.L76:
 835:Generated_Source\PSoC4/ledStrip.c ****            
 836:Generated_Source\PSoC4/ledStrip.c ****        default:
 837:Generated_Source\PSoC4/ledStrip.c ****            ledStrip_DimMask = 0x00FFFFFF;
 1235              		.loc 1 837 0
 1236 004e 094A     		ldr	r2, .L83+24
 1237 0050 034B     		ldr	r3, .L83+4
 1238 0052 1A60     		str	r2, [r3]
 838:Generated_Source\PSoC4/ledStrip.c ****            ledStrip_DimShift = 0;
 1239              		.loc 1 838 0
 1240 0054 0022     		movs	r2, #0
 1241 0056 034B     		ldr	r3, .L83+8
 1242 0058 1A60     		str	r2, [r3]
 1243              	.L75:
 839:Generated_Source\PSoC4/ledStrip.c ****            break;
 840:Generated_Source\PSoC4/ledStrip.c ****         
 841:Generated_Source\PSoC4/ledStrip.c ****     }
 842:Generated_Source\PSoC4/ledStrip.c **** }
 1244              		.loc 1 842 0
 1245              		@ sp needed
 1246 005a 7047     		bx	lr
 1247              	.L84:
 1248              		.align	2
 1249              	.L83:
 1250 005c 7F7F7F00 		.word	8355711
 1251 0060 00000000 		.word	ledStrip_DimMask
 1252 0064 00000000 		.word	ledStrip_DimShift
 1253 0068 3F3F3F00 		.word	4144959
 1254 006c 1F1F1F00 		.word	2039583
 1255 0070 0F0F0F00 		.word	986895
 1256 0074 FFFFFF00 		.word	16777215
 1257              		.cfi_endproc
 1258              	.LFE50:
 1259              		.size	ledStrip_Dim, .-ledStrip_Dim
 1260              		.section	.text.ledStrip_Start,"ax",%progbits
 1261              		.align	2
 1262              		.global	ledStrip_Start
 1263              		.code	16
 1264              		.thumb_func
 1265              		.type	ledStrip_Start, %function
 1266              	ledStrip_Start:
 1267              	.LFB35:
 206:Generated_Source\PSoC4/ledStrip.c ****     extern uint8 ledStrip_initvar;
 1268              		.loc 1 206 0
 1269              		.cfi_startproc
 1270              		@ args = 0, pretend = 0, frame = 0
 1271              		@ frame_needed = 0, uses_anonymous_args = 0
 1272 0000 10B5     		push	{r4, lr}
 1273              		.cfi_def_cfa_offset 8
 1274              		.cfi_offset 4, -8
 1275              		.cfi_offset 14, -4
 210:Generated_Source\PSoC4/ledStrip.c ****     
 1276              		.loc 1 210 0
 1277 0002 0322     		movs	r2, #3
 1278 0004 144B     		ldr	r3, .L87
ARM GAS  C:\Users\Tymek\AppData\Local\Temp\cc8Btfy6.s 			page 39


 1279 0006 1A70     		strb	r2, [r3]
 212:Generated_Source\PSoC4/ledStrip.c ****     ledStrip_Compare0 = ledStrip_DATA_ZERO;
 1280              		.loc 1 212 0
 1281 0008 3832     		adds	r2, r2, #56
 1282 000a 144B     		ldr	r3, .L87+4
 1283 000c 1A70     		strb	r2, [r3]
 213:Generated_Source\PSoC4/ledStrip.c ****     ledStrip_Compare1 = ledStrip_DATA_ONE;
 1284              		.loc 1 213 0
 1285 000e 0B3A     		subs	r2, r2, #11
 1286 0010 134B     		ldr	r3, .L87+8
 1287 0012 1A70     		strb	r2, [r3]
 214:Generated_Source\PSoC4/ledStrip.c ****     
 1288              		.loc 1 214 0
 1289 0014 143A     		subs	r2, r2, #20
 1290 0016 134B     		ldr	r3, .L87+12
 1291 0018 1A70     		strb	r2, [r3]
 216:Generated_Source\PSoC4/ledStrip.c ****     ledStrip_MemClear(ledStrip_OFF);
 1292              		.loc 1 216 0
 1293 001a 134C     		ldr	r4, .L87+16
 1294 001c 0123     		movs	r3, #1
 1295 001e 2370     		strb	r3, [r4]
 217:Generated_Source\PSoC4/ledStrip.c ****     ledStrip_CONTROL = ledStrip_DISABLE;
 1296              		.loc 1 217 0
 1297 0020 0020     		movs	r0, #0
 1298 0022 FFF7FEFF 		bl	ledStrip_MemClear
 1299              	.LVL138:
 218:Generated_Source\PSoC4/ledStrip.c ****     
 1300              		.loc 1 218 0
 1301 0026 0023     		movs	r3, #0
 1302 0028 2370     		strb	r3, [r4]
 220:Generated_Source\PSoC4/ledStrip.c ****     
 1303              		.loc 1 220 0
 1304 002a 0020     		movs	r0, #0
 1305 002c FFF7FEFF 		bl	ledStrip_SetFont
 1306              	.LVL139:
 223:Generated_Source\PSoC4/ledStrip.c **** 
 1307              		.loc 1 223 0
 1308 0030 0020     		movs	r0, #0
 1309 0032 FFF7FEFF 		bl	ledStrip_Dim
 1310              	.LVL140:
 226:Generated_Source\PSoC4/ledStrip.c ****     {
 1311              		.loc 1 226 0
 1312 0036 0D4B     		ldr	r3, .L87+20
 1313 0038 1B7D     		ldrb	r3, [r3, #20]
 1314 003a 002B     		cmp	r3, #0
 1315 003c 08D1     		bne	.L86
 229:Generated_Source\PSoC4/ledStrip.c ****  
 1316              		.loc 1 229 0
 1317 003e 0122     		movs	r2, #1
 1318 0040 0A4B     		ldr	r3, .L87+20
 1319 0042 1A75     		strb	r2, [r3, #20]
 235:Generated_Source\PSoC4/ledStrip.c **** 		   ledStrip_fisr_StartEx(ledStrip_FISR);
 1320              		.loc 1 235 0
 1321 0044 0A48     		ldr	r0, .L87+24
 1322 0046 FFF7FEFF 		bl	ledStrip_cisr_StartEx
 1323              	.LVL141:
 236:Generated_Source\PSoC4/ledStrip.c ****        }
ARM GAS  C:\Users\Tymek\AppData\Local\Temp\cc8Btfy6.s 			page 40


 1324              		.loc 1 236 0
 1325 004a 0A48     		ldr	r0, .L87+28
 1326 004c FFF7FEFF 		bl	ledStrip_fisr_StartEx
 1327              	.LVL142:
 1328              	.L86:
 244:Generated_Source\PSoC4/ledStrip.c **** }
 1329              		.loc 1 244 0
 1330 0050 0122     		movs	r2, #1
 1331 0052 094B     		ldr	r3, .L87+32
 1332 0054 1A60     		str	r2, [r3]
 245:Generated_Source\PSoC4/ledStrip.c **** 
 1333              		.loc 1 245 0
 1334              		@ sp needed
 1335 0056 10BD     		pop	{r4, pc}
 1336              	.L88:
 1337              		.align	2
 1338              	.L87:
 1339 0058 92000F40 		.word	1074725010
 1340 005c 42000F40 		.word	1074724930
 1341 0060 22000F40 		.word	1074724898
 1342 0064 32000F40 		.word	1074724914
 1343 0068 73000F40 		.word	1074724979
 1344 006c 00000000 		.word	.LANCHOR0
 1345 0070 00000000 		.word	ledStrip_CISR
 1346 0074 00000000 		.word	ledStrip_FISR
 1347 0078 00000000 		.word	ledStrip_refreshComplete
 1348              		.cfi_endproc
 1349              	.LFE35:
 1350              		.size	ledStrip_Start, .-ledStrip_Start
 1351              		.section	.text.ledStrip_bplot,"ax",%progbits
 1352              		.align	2
 1353              		.global	ledStrip_bplot
 1354              		.code	16
 1355              		.thumb_func
 1356              		.type	ledStrip_bplot, %function
 1357              	ledStrip_bplot:
 1358              	.LFB51:
 843:Generated_Source\PSoC4/ledStrip.c **** 
 844:Generated_Source\PSoC4/ledStrip.c **** void ledStrip_bplot( int32 x, int32 y, uint8 * bitMap, int32 update)
 845:Generated_Source\PSoC4/ledStrip.c **** {
 1359              		.loc 1 845 0
 1360              		.cfi_startproc
 1361              		@ args = 0, pretend = 0, frame = 8
 1362              		@ frame_needed = 0, uses_anonymous_args = 0
 1363              	.LVL143:
 1364 0000 F0B5     		push	{r4, r5, r6, r7, lr}
 1365              		.cfi_def_cfa_offset 20
 1366              		.cfi_offset 4, -20
 1367              		.cfi_offset 5, -16
 1368              		.cfi_offset 6, -12
 1369              		.cfi_offset 7, -8
 1370              		.cfi_offset 14, -4
 1371 0002 5F46     		mov	r7, fp
 1372 0004 4646     		mov	r6, r8
 1373 0006 C0B4     		push	{r6, r7}
 1374              		.cfi_def_cfa_offset 28
 1375              		.cfi_offset 8, -28
ARM GAS  C:\Users\Tymek\AppData\Local\Temp\cc8Btfy6.s 			page 41


 1376              		.cfi_offset 11, -24
 1377 0008 83B0     		sub	sp, sp, #12
 1378              		.cfi_def_cfa_offset 40
 1379 000a 0190     		str	r0, [sp, #4]
 1380 000c 0091     		str	r1, [sp]
 1381 000e 1700     		movs	r7, r2
 1382 0010 9B46     		mov	fp, r3
 1383              	.LVL144:
 846:Generated_Source\PSoC4/ledStrip.c ****     int32 dx, dy;
 847:Generated_Source\PSoC4/ledStrip.c ****     int32 aindex = 0;
 848:Generated_Source\PSoC4/ledStrip.c ****     int32 maxX, maxY;
 849:Generated_Source\PSoC4/ledStrip.c **** 
 850:Generated_Source\PSoC4/ledStrip.c ****     maxX = x + (int32)bitMap[aindex++];
 1384              		.loc 1 850 0
 1385 0012 1378     		ldrb	r3, [r2]
 1386              	.LVL145:
 1387 0014 1E18     		adds	r6, r3, r0
 1388              	.LVL146:
 851:Generated_Source\PSoC4/ledStrip.c ****     maxY = y  + (int32)bitMap[aindex++];
 1389              		.loc 1 851 0
 1390 0016 7B78     		ldrb	r3, [r7, #1]
 1391 0018 8846     		mov	r8, r1
 1392 001a 9844     		add	r8, r8, r3
 1393              	.LVL147:
 1394 001c 0223     		movs	r3, #2
 852:Generated_Source\PSoC4/ledStrip.c **** 
 853:Generated_Source\PSoC4/ledStrip.c **** 	for(dy = y; dy < maxY; dy++)
 1395              		.loc 1 853 0
 1396 001e 0EE0     		b	.L90
 1397              	.LVL148:
 1398              	.L91:
 854:Generated_Source\PSoC4/ledStrip.c ****     {
 855:Generated_Source\PSoC4/ledStrip.c **** 		for(dx = x; dx < maxX; dx++)
 856:Generated_Source\PSoC4/ledStrip.c ****         {
 857:Generated_Source\PSoC4/ledStrip.c ****             ledStrip_Pixel(dx, dy, bitMap[aindex++]);
 1399              		.loc 1 857 0 discriminator 3
 1400 0020 5D1C     		adds	r5, r3, #1
 1401              	.LVL149:
 1402 0022 FA5C     		ldrb	r2, [r7, r3]
 1403 0024 0099     		ldr	r1, [sp]
 1404 0026 2000     		movs	r0, r4
 1405 0028 FFF7FEFF 		bl	ledStrip_Pixel
 1406              	.LVL150:
 855:Generated_Source\PSoC4/ledStrip.c ****         {
 1407              		.loc 1 855 0 discriminator 3
 1408 002c 0134     		adds	r4, r4, #1
 1409              	.LVL151:
 1410              		.loc 1 857 0 discriminator 3
 1411 002e 2B00     		movs	r3, r5
 1412 0030 00E0     		b	.L92
 1413              	.LVL152:
 1414              	.L94:
 1415 0032 019C     		ldr	r4, [sp, #4]
 1416              	.LVL153:
 1417              	.L92:
 855:Generated_Source\PSoC4/ledStrip.c ****         {
 1418              		.loc 1 855 0 discriminator 1
ARM GAS  C:\Users\Tymek\AppData\Local\Temp\cc8Btfy6.s 			page 42


 1419 0034 B442     		cmp	r4, r6
 1420 0036 F3DB     		blt	.L91
 853:Generated_Source\PSoC4/ledStrip.c ****     {
 1421              		.loc 1 853 0 discriminator 2
 1422 0038 009A     		ldr	r2, [sp]
 1423 003a 0132     		adds	r2, r2, #1
 1424 003c 0092     		str	r2, [sp]
 1425              	.LVL154:
 1426              	.L90:
 853:Generated_Source\PSoC4/ledStrip.c ****     {
 1427              		.loc 1 853 0 is_stmt 0 discriminator 1
 1428 003e 009A     		ldr	r2, [sp]
 1429 0040 4245     		cmp	r2, r8
 1430 0042 F6DB     		blt	.L94
 858:Generated_Source\PSoC4/ledStrip.c ****         }
 859:Generated_Source\PSoC4/ledStrip.c ****     }
 860:Generated_Source\PSoC4/ledStrip.c **** 	if(update) ledStrip_Trigger(1);
 1431              		.loc 1 860 0 is_stmt 1
 1432 0044 5B46     		mov	r3, fp
 1433              	.LVL155:
 1434 0046 002B     		cmp	r3, #0
 1435 0048 02D0     		beq	.L89
 1436              	.LVL156:
 1437              		.loc 1 860 0 is_stmt 0 discriminator 1
 1438 004a 0120     		movs	r0, #1
 1439 004c FFF7FEFF 		bl	ledStrip_Trigger
 1440              	.LVL157:
 1441              	.L89:
 861:Generated_Source\PSoC4/ledStrip.c **** }
 1442              		.loc 1 861 0 is_stmt 1
 1443 0050 03B0     		add	sp, sp, #12
 1444              	.LVL158:
 1445              		@ sp needed
 1446              	.LVL159:
 1447              	.LVL160:
 1448              	.LVL161:
 1449              	.LVL162:
 1450 0052 0CBC     		pop	{r2, r3}
 1451 0054 9046     		mov	r8, r2
 1452 0056 9B46     		mov	fp, r3
 1453 0058 F0BD     		pop	{r4, r5, r6, r7, pc}
 1454              		.cfi_endproc
 1455              	.LFE51:
 1456              		.size	ledStrip_bplot, .-ledStrip_bplot
 1457              		.global	ledStrip_CLUT
 1458              		.comm	ledStrip_DimShift,4,4
 1459              		.comm	ledStrip_DimMask,4,4
 1460              		.comm	ledStrip_refreshComplete,4,4
 1461              		.global	ledStrip_row
 1462              		.global	ledStrip_ledIndex
 1463              		.comm	ledStrip_ledArray,480,4
 1464              		.global	ledStrip_initvar
 1465 005a C046     		.section	.rodata
 1466              		.align	2
 1467              		.set	.LANCHOR1,. + 0
 1468              		.type	ledStrip_CLUT, %object
 1469              		.size	ledStrip_CLUT, 480
ARM GAS  C:\Users\Tymek\AppData\Local\Temp\cc8Btfy6.s 			page 43


 1470              	ledStrip_CLUT:
 1471 0000 FFFF0000 		.word	65535
 1472 0004 FFCC0000 		.word	52479
 1473 0008 FF990000 		.word	39423
 1474 000c FF330000 		.word	13311
 1475 0010 FF000000 		.word	255
 1476 0014 B3006600 		.word	6684851
 1477 0018 99009900 		.word	10027161
 1478 001c 6600B300 		.word	11731046
 1479 0020 3300CC00 		.word	13369395
 1480 0024 1919B300 		.word	11737369
 1481 0028 00339900 		.word	10040064
 1482 002c 00409900 		.word	10043392
 1483 0030 00669900 		.word	10053120
 1484 0034 00999900 		.word	10066176
 1485 0038 00CC9900 		.word	10079232
 1486 003c 00E66600 		.word	6743552
 1487 0040 00FF0000 		.word	65280
 1488 0044 33FF0000 		.word	65331
 1489 0048 66FF0000 		.word	65382
 1490 004c 80FF0000 		.word	65408
 1491 0050 99FF0000 		.word	65433
 1492 0054 B2FF0000 		.word	65458
 1493 0058 CCFF0000 		.word	65484
 1494 005c E5FF0000 		.word	65509
 1495 0060 00000000 		.word	0
 1496 0064 00005500 		.word	5570560
 1497 0068 0000AA00 		.word	11141120
 1498 006c 0000FF00 		.word	16711680
 1499 0070 55000000 		.word	85
 1500 0074 55005500 		.word	5570645
 1501 0078 5500AA00 		.word	11141205
 1502 007c 5500FF00 		.word	16711765
 1503 0080 AA000000 		.word	170
 1504 0084 AA005500 		.word	5570730
 1505 0088 AA00AA00 		.word	11141290
 1506 008c AA00FF00 		.word	16711850
 1507 0090 FF000000 		.word	255
 1508 0094 FF005500 		.word	5570815
 1509 0098 FF00AA00 		.word	11141375
 1510 009c FF00FF00 		.word	16711935
 1511 00a0 00550000 		.word	21760
 1512 00a4 00555500 		.word	5592320
 1513 00a8 0055AA00 		.word	11162880
 1514 00ac 0055FF00 		.word	16733440
 1515 00b0 55550000 		.word	21845
 1516 00b4 55555500 		.word	5592405
 1517 00b8 5555AA00 		.word	11162965
 1518 00bc 5555FF00 		.word	16733525
 1519 00c0 AA550000 		.word	21930
 1520 00c4 AA555500 		.word	5592490
 1521 00c8 AA55AA00 		.word	11163050
 1522 00cc AA55FF00 		.word	16733610
 1523 00d0 FF550000 		.word	22015
 1524 00d4 FF555500 		.word	5592575
 1525 00d8 FF55AA00 		.word	11163135
 1526 00dc FF55FF00 		.word	16733695
ARM GAS  C:\Users\Tymek\AppData\Local\Temp\cc8Btfy6.s 			page 44


 1527 00e0 00AA0000 		.word	43520
 1528 00e4 00AA5500 		.word	5614080
 1529 00e8 00AAAA00 		.word	11184640
 1530 00ec 00AAFF00 		.word	16755200
 1531 00f0 55AA0000 		.word	43605
 1532 00f4 55AA5500 		.word	5614165
 1533 00f8 55AAAA00 		.word	11184725
 1534 00fc 55AAFF00 		.word	16755285
 1535 0100 AAAA0000 		.word	43690
 1536 0104 AAAA5500 		.word	5614250
 1537 0108 AAAAAA00 		.word	11184810
 1538 010c AAAAFF00 		.word	16755370
 1539 0110 FFAA0000 		.word	43775
 1540 0114 FFAA5500 		.word	5614335
 1541 0118 FFAAAA00 		.word	11184895
 1542 011c FFAAFF00 		.word	16755455
 1543 0120 00FF0000 		.word	65280
 1544 0124 00FF5500 		.word	5635840
 1545 0128 00FFAA00 		.word	11206400
 1546 012c 00FFFF00 		.word	16776960
 1547 0130 55FF0000 		.word	65365
 1548 0134 55FF5500 		.word	5635925
 1549 0138 55FFAA00 		.word	11206485
 1550 013c 55FFFF00 		.word	16777045
 1551 0140 AAFF0000 		.word	65450
 1552 0144 AAFF5500 		.word	5636010
 1553 0148 AAFFAA00 		.word	11206570
 1554 014c AAFFFF00 		.word	16777130
 1555 0150 FFFF0000 		.word	65535
 1556 0154 FFFF5500 		.word	5636095
 1557 0158 FFFFAA00 		.word	11206655
 1558 015c FFFFFF00 		.word	16777215
 1559 0160 FF800000 		.word	33023
 1560 0164 FF008000 		.word	8388863
 1561 0168 FF00FF00 		.word	16711935
 1562 016c 8000FF00 		.word	16711808
 1563 0170 0080FF00 		.word	16744448
 1564 0174 00FF8000 		.word	8453888
 1565 0178 FF000000 		.word	255
 1566 017c 20202000 		.word	2105376
 1567 0180 00002000 		.word	2097152
 1568 0184 00000010 		.word	268435456
 1569 0188 00000000 		.word	0
 1570 018c 00000000 		.word	0
 1571 0190 00000000 		.word	0
 1572 0194 00000000 		.word	0
 1573 0198 00000000 		.word	0
 1574 019c 00000000 		.word	0
 1575 01a0 0000FF00 		.word	16711680
 1576 01a4 0010F000 		.word	15732736
 1577 01a8 0020E000 		.word	14688256
 1578 01ac 0030D000 		.word	13643776
 1579 01b0 0040C000 		.word	12599296
 1580 01b4 0050B000 		.word	11554816
 1581 01b8 0060A000 		.word	10510336
 1582 01bc 00709000 		.word	9465856
 1583 01c0 00808000 		.word	8421376
ARM GAS  C:\Users\Tymek\AppData\Local\Temp\cc8Btfy6.s 			page 45


 1584 01c4 00907000 		.word	7376896
 1585 01c8 00A06000 		.word	6332416
 1586 01cc 00B05000 		.word	5287936
 1587 01d0 00C04000 		.word	4243456
 1588 01d4 00D03000 		.word	3198976
 1589 01d8 00E02000 		.word	2154496
 1590 01dc 00FF0000 		.word	65280
 1591              		.bss
 1592              		.align	2
 1593              		.set	.LANCHOR0,. + 0
 1594              		.type	ledStrip_ledIndex, %object
 1595              		.size	ledStrip_ledIndex, 4
 1596              	ledStrip_ledIndex:
 1597 0000 00000000 		.space	4
 1598              		.type	ledStrip_row, %object
 1599              		.size	ledStrip_row, 4
 1600              	ledStrip_row:
 1601 0004 00000000 		.space	4
 1602              		.type	color.8133, %object
 1603              		.size	color.8133, 4
 1604              	color.8133:
 1605 0008 00000000 		.space	4
 1606              		.type	color.8141, %object
 1607              		.size	color.8141, 4
 1608              	color.8141:
 1609 000c 00000000 		.space	4
 1610              		.type	colorIndex.8126, %object
 1611              		.size	colorIndex.8126, 4
 1612              	colorIndex.8126:
 1613 0010 00000000 		.space	4
 1614              		.type	ledStrip_initvar, %object
 1615              		.size	ledStrip_initvar, 1
 1616              	ledStrip_initvar:
 1617 0014 00       		.space	1
 1618              		.text
 1619              	.Letext0:
 1620              		.file 2 "Generated_Source\\PSoC4/cytypes.h"
 1621              		.file 3 "Generated_Source\\PSoC4\\ledStrip_fonts.h"
 1622              		.file 4 "Generated_Source\\PSoC4/ledStrip_cisr.h"
 1623              		.file 5 "Generated_Source\\PSoC4/ledStrip_fisr.h"
 1624              		.file 6 "Generated_Source\\PSoC4/BLE_Stack.h"