ARM GAS  C:\Users\Tymek\AppData\Local\Temp\cczLLcGj.s 			page 1


   1              		.syntax unified
   2              		.cpu cortex-m0
   3              		.fpu softvfp
   4              		.eabi_attribute 20, 1
   5              		.eabi_attribute 21, 1
   6              		.eabi_attribute 23, 3
   7              		.eabi_attribute 24, 1
   8              		.eabi_attribute 25, 1
   9              		.eabi_attribute 26, 1
  10              		.eabi_attribute 30, 1
  11              		.eabi_attribute 34, 0
  12              		.eabi_attribute 18, 4
  13              		.thumb
  14              		.syntax unified
  15              		.file	"ledStrip_fonts.c"
  16              		.text
  17              	.Ltext0:
  18              		.cfi_sections	.debug_frame
  19              		.section	.text.ledStrip_SetFont,"ax",%progbits
  20              		.align	2
  21              		.global	ledStrip_SetFont
  22              		.code	16
  23              		.thumb_func
  24              		.type	ledStrip_SetFont, %function
  25              	ledStrip_SetFont:
  26              	.LFB35:
  27              		.file 1 "Generated_Source\\PSoC4\\ledStrip_fonts.c"
   1:Generated_Source\PSoC4/ledStrip_fonts.c **** /* ========================================
   2:Generated_Source\PSoC4/ledStrip_fonts.c ****  *
   3:Generated_Source\PSoC4/ledStrip_fonts.c ****  * Copyright YOUR COMPANY, THE YEAR
   4:Generated_Source\PSoC4/ledStrip_fonts.c ****  * All Rights Reserved
   5:Generated_Source\PSoC4/ledStrip_fonts.c ****  * UNPUBLISHED, LICENSED SOFTWARE.
   6:Generated_Source\PSoC4/ledStrip_fonts.c ****  *
   7:Generated_Source\PSoC4/ledStrip_fonts.c ****  * CONFIDENTIAL AND PROPRIETARY INFORMATION
   8:Generated_Source\PSoC4/ledStrip_fonts.c ****  * WHICH IS THE PROPERTY OF your company.
   9:Generated_Source\PSoC4/ledStrip_fonts.c ****  *
  10:Generated_Source\PSoC4/ledStrip_fonts.c ****  * ========================================
  11:Generated_Source\PSoC4/ledStrip_fonts.c **** */
  12:Generated_Source\PSoC4/ledStrip_fonts.c **** #include <project.h>
  13:Generated_Source\PSoC4/ledStrip_fonts.c **** #include "cytypes.h"
  14:Generated_Source\PSoC4/ledStrip_fonts.c **** #include "stdlib.h"
  15:Generated_Source\PSoC4/ledStrip_fonts.c **** #include "cyfitter.h"
  16:Generated_Source\PSoC4/ledStrip_fonts.c **** #include "ledStrip.h"
  17:Generated_Source\PSoC4/ledStrip_fonts.c **** #include "ledStrip_fonts.h"
  18:Generated_Source\PSoC4/ledStrip_fonts.c **** 
  19:Generated_Source\PSoC4/ledStrip_fonts.c **** uint8 const * ledStrip_fontPtr;
  20:Generated_Source\PSoC4/ledStrip_fonts.c **** int32 ledStrip_fontX;
  21:Generated_Source\PSoC4/ledStrip_fonts.c **** int32 ledStrip_fontY;
  22:Generated_Source\PSoC4/ledStrip_fonts.c **** int32 ledStrip_fontOffset;
  23:Generated_Source\PSoC4/ledStrip_fonts.c **** 
  24:Generated_Source\PSoC4/ledStrip_fonts.c **** 
  25:Generated_Source\PSoC4/ledStrip_fonts.c **** // standard ascii 5x7 font
  26:Generated_Source\PSoC4/ledStrip_fonts.c **** // defines ascii characters 0x20-0x7F (32-127)
  27:Generated_Source\PSoC4/ledStrip_fonts.c **** const uint8 ledStrip_Font5x7[] = {
  28:Generated_Source\PSoC4/ledStrip_fonts.c **** 	0x00, 0x00, 0x00, 0x00, 0x00,// (space)
  29:Generated_Source\PSoC4/ledStrip_fonts.c **** 	0x00, 0x00, 0x5F, 0x00, 0x00,// !
  30:Generated_Source\PSoC4/ledStrip_fonts.c **** 	0x00, 0x07, 0x00, 0x07, 0x00,// "
ARM GAS  C:\Users\Tymek\AppData\Local\Temp\cczLLcGj.s 			page 2


  31:Generated_Source\PSoC4/ledStrip_fonts.c **** 	0x14, 0x7F, 0x14, 0x7F, 0x14,// #
  32:Generated_Source\PSoC4/ledStrip_fonts.c **** 	0x24, 0x2A, 0x7F, 0x2A, 0x12,// $
  33:Generated_Source\PSoC4/ledStrip_fonts.c **** 	0x23, 0x13, 0x08, 0x64, 0x62,// %
  34:Generated_Source\PSoC4/ledStrip_fonts.c **** 	0x36, 0x49, 0x55, 0x22, 0x50,// &
  35:Generated_Source\PSoC4/ledStrip_fonts.c **** 	0x00, 0x05, 0x03, 0x00, 0x00,// '
  36:Generated_Source\PSoC4/ledStrip_fonts.c **** 	0x00, 0x1C, 0x22, 0x41, 0x00,// (
  37:Generated_Source\PSoC4/ledStrip_fonts.c **** 	0x00, 0x41, 0x22, 0x1C, 0x00,// )
  38:Generated_Source\PSoC4/ledStrip_fonts.c **** 	0x08, 0x2A, 0x1C, 0x2A, 0x08,// *
  39:Generated_Source\PSoC4/ledStrip_fonts.c **** 	0x08, 0x08, 0x3E, 0x08, 0x08,// +
  40:Generated_Source\PSoC4/ledStrip_fonts.c **** 	0x00, 0x50, 0x30, 0x00, 0x00,// ,
  41:Generated_Source\PSoC4/ledStrip_fonts.c **** 	0x08, 0x08, 0x08, 0x08, 0x08,// -
  42:Generated_Source\PSoC4/ledStrip_fonts.c **** 	0x00, 0x60, 0x60, 0x00, 0x00,// .
  43:Generated_Source\PSoC4/ledStrip_fonts.c **** 	0x20, 0x10, 0x08, 0x04, 0x02,// /
  44:Generated_Source\PSoC4/ledStrip_fonts.c **** 	0x3E, 0x51, 0x49, 0x45, 0x3E,// 0
  45:Generated_Source\PSoC4/ledStrip_fonts.c **** 	0x00, 0x42, 0x7F, 0x40, 0x00,// 1
  46:Generated_Source\PSoC4/ledStrip_fonts.c **** 	0x42, 0x61, 0x51, 0x49, 0x46,// 2
  47:Generated_Source\PSoC4/ledStrip_fonts.c **** 	0x21, 0x41, 0x45, 0x4B, 0x31,// 3
  48:Generated_Source\PSoC4/ledStrip_fonts.c **** 	0x18, 0x14, 0x12, 0x7F, 0x10,// 4
  49:Generated_Source\PSoC4/ledStrip_fonts.c **** 	0x27, 0x45, 0x45, 0x45, 0x39,// 5
  50:Generated_Source\PSoC4/ledStrip_fonts.c **** 	0x3C, 0x4A, 0x49, 0x49, 0x30,// 6
  51:Generated_Source\PSoC4/ledStrip_fonts.c **** 	0x01, 0x71, 0x09, 0x05, 0x03,// 7
  52:Generated_Source\PSoC4/ledStrip_fonts.c **** 	0x36, 0x49, 0x49, 0x49, 0x36,// 8
  53:Generated_Source\PSoC4/ledStrip_fonts.c **** 	0x06, 0x49, 0x49, 0x29, 0x1E,// 9
  54:Generated_Source\PSoC4/ledStrip_fonts.c **** 	0x00, 0x36, 0x36, 0x00, 0x00,// :
  55:Generated_Source\PSoC4/ledStrip_fonts.c **** 	0x00, 0x56, 0x36, 0x00, 0x00,// ;
  56:Generated_Source\PSoC4/ledStrip_fonts.c **** 	0x00, 0x08, 0x14, 0x22, 0x41,// <
  57:Generated_Source\PSoC4/ledStrip_fonts.c **** 	0x14, 0x14, 0x14, 0x14, 0x14,// =
  58:Generated_Source\PSoC4/ledStrip_fonts.c **** 	0x41, 0x22, 0x14, 0x08, 0x00,// >
  59:Generated_Source\PSoC4/ledStrip_fonts.c **** 	0x02, 0x01, 0x51, 0x09, 0x06,// ?
  60:Generated_Source\PSoC4/ledStrip_fonts.c **** 	0x32, 0x49, 0x79, 0x41, 0x3E,// @
  61:Generated_Source\PSoC4/ledStrip_fonts.c **** 	0x7E, 0x11, 0x11, 0x11, 0x7E,// A
  62:Generated_Source\PSoC4/ledStrip_fonts.c **** 	0x7F, 0x49, 0x49, 0x49, 0x36,// B
  63:Generated_Source\PSoC4/ledStrip_fonts.c **** 	0x3E, 0x41, 0x41, 0x41, 0x22,// C
  64:Generated_Source\PSoC4/ledStrip_fonts.c **** 	0x7F, 0x41, 0x41, 0x22, 0x1C,// D
  65:Generated_Source\PSoC4/ledStrip_fonts.c **** 	0x7F, 0x49, 0x49, 0x49, 0x41,// E
  66:Generated_Source\PSoC4/ledStrip_fonts.c **** 	0x7F, 0x09, 0x09, 0x01, 0x01,// F
  67:Generated_Source\PSoC4/ledStrip_fonts.c **** 	0x3E, 0x41, 0x41, 0x51, 0x32,// G
  68:Generated_Source\PSoC4/ledStrip_fonts.c **** 	0x7F, 0x08, 0x08, 0x08, 0x7F,// H
  69:Generated_Source\PSoC4/ledStrip_fonts.c **** 	0x00, 0x41, 0x7F, 0x41, 0x00,// I
  70:Generated_Source\PSoC4/ledStrip_fonts.c **** 	0x20, 0x40, 0x41, 0x3F, 0x01,// J
  71:Generated_Source\PSoC4/ledStrip_fonts.c **** 	0x7F, 0x08, 0x14, 0x22, 0x41,// K
  72:Generated_Source\PSoC4/ledStrip_fonts.c **** 	0x7F, 0x40, 0x40, 0x40, 0x40,// L
  73:Generated_Source\PSoC4/ledStrip_fonts.c **** 	0x7F, 0x02, 0x04, 0x02, 0x7F,// M
  74:Generated_Source\PSoC4/ledStrip_fonts.c **** 	0x7F, 0x04, 0x08, 0x10, 0x7F,// N
  75:Generated_Source\PSoC4/ledStrip_fonts.c **** 	0x3E, 0x41, 0x41, 0x41, 0x3E,// O
  76:Generated_Source\PSoC4/ledStrip_fonts.c **** 	0x7F, 0x09, 0x09, 0x09, 0x06,// P
  77:Generated_Source\PSoC4/ledStrip_fonts.c **** 	0x3E, 0x41, 0x51, 0x21, 0x5E,// Q
  78:Generated_Source\PSoC4/ledStrip_fonts.c **** 	0x7F, 0x09, 0x19, 0x29, 0x46,// R
  79:Generated_Source\PSoC4/ledStrip_fonts.c **** 	0x46, 0x49, 0x49, 0x49, 0x31,// S
  80:Generated_Source\PSoC4/ledStrip_fonts.c **** 	0x01, 0x01, 0x7F, 0x01, 0x01,// T
  81:Generated_Source\PSoC4/ledStrip_fonts.c **** 	0x3F, 0x40, 0x40, 0x40, 0x3F,// U
  82:Generated_Source\PSoC4/ledStrip_fonts.c **** 	0x1F, 0x20, 0x40, 0x20, 0x1F,// V
  83:Generated_Source\PSoC4/ledStrip_fonts.c **** 	0x7F, 0x20, 0x18, 0x20, 0x7F,// W
  84:Generated_Source\PSoC4/ledStrip_fonts.c **** 	0x63, 0x14, 0x08, 0x14, 0x63,// X
  85:Generated_Source\PSoC4/ledStrip_fonts.c **** 	0x03, 0x04, 0x78, 0x04, 0x03,// Y
  86:Generated_Source\PSoC4/ledStrip_fonts.c **** 	0x61, 0x51, 0x49, 0x45, 0x43,// Z
  87:Generated_Source\PSoC4/ledStrip_fonts.c **** 	0x00, 0x00, 0x7F, 0x41, 0x41,// [
ARM GAS  C:\Users\Tymek\AppData\Local\Temp\cczLLcGj.s 			page 3


  88:Generated_Source\PSoC4/ledStrip_fonts.c **** 	0x02, 0x04, 0x08, 0x10, 0x20,// "\"
  89:Generated_Source\PSoC4/ledStrip_fonts.c **** 	0x41, 0x41, 0x7F, 0x00, 0x00,// ]
  90:Generated_Source\PSoC4/ledStrip_fonts.c **** 	0x04, 0x02, 0x01, 0x02, 0x04,// ^
  91:Generated_Source\PSoC4/ledStrip_fonts.c **** 	0x40, 0x40, 0x40, 0x40, 0x40,// _
  92:Generated_Source\PSoC4/ledStrip_fonts.c **** 	0x00, 0x01, 0x02, 0x04, 0x00,// `
  93:Generated_Source\PSoC4/ledStrip_fonts.c **** 	0x20, 0x54, 0x54, 0x54, 0x78,// a
  94:Generated_Source\PSoC4/ledStrip_fonts.c **** 	0x7F, 0x48, 0x44, 0x44, 0x38,// b
  95:Generated_Source\PSoC4/ledStrip_fonts.c **** 	0x38, 0x44, 0x44, 0x44, 0x20,// c
  96:Generated_Source\PSoC4/ledStrip_fonts.c **** 	0x38, 0x44, 0x44, 0x48, 0x7F,// d
  97:Generated_Source\PSoC4/ledStrip_fonts.c **** 	0x38, 0x54, 0x54, 0x54, 0x18,// e
  98:Generated_Source\PSoC4/ledStrip_fonts.c **** 	0x08, 0x7E, 0x09, 0x01, 0x02,// f
  99:Generated_Source\PSoC4/ledStrip_fonts.c **** 	0x08, 0x14, 0x54, 0x54, 0x3C,// g
 100:Generated_Source\PSoC4/ledStrip_fonts.c **** 	0x7F, 0x08, 0x04, 0x04, 0x78,// h
 101:Generated_Source\PSoC4/ledStrip_fonts.c **** 	0x00, 0x44, 0x7D, 0x40, 0x00,// i
 102:Generated_Source\PSoC4/ledStrip_fonts.c **** 	0x20, 0x40, 0x44, 0x3D, 0x00,// j
 103:Generated_Source\PSoC4/ledStrip_fonts.c **** 	0x00, 0x7F, 0x10, 0x28, 0x44,// k
 104:Generated_Source\PSoC4/ledStrip_fonts.c **** 	0x00, 0x41, 0x7F, 0x40, 0x00,// l
 105:Generated_Source\PSoC4/ledStrip_fonts.c **** 	0x7C, 0x04, 0x18, 0x04, 0x78,// m
 106:Generated_Source\PSoC4/ledStrip_fonts.c **** 	0x7C, 0x08, 0x04, 0x04, 0x78,// n
 107:Generated_Source\PSoC4/ledStrip_fonts.c **** 	0x38, 0x44, 0x44, 0x44, 0x38,// o
 108:Generated_Source\PSoC4/ledStrip_fonts.c **** 	0x7C, 0x14, 0x14, 0x14, 0x08,// p
 109:Generated_Source\PSoC4/ledStrip_fonts.c **** 	0x08, 0x14, 0x14, 0x18, 0x7C,// q
 110:Generated_Source\PSoC4/ledStrip_fonts.c **** 	0x7C, 0x08, 0x04, 0x04, 0x08,// r
 111:Generated_Source\PSoC4/ledStrip_fonts.c **** 	0x48, 0x54, 0x54, 0x54, 0x20,// s
 112:Generated_Source\PSoC4/ledStrip_fonts.c **** 	0x04, 0x3F, 0x44, 0x40, 0x20,// t
 113:Generated_Source\PSoC4/ledStrip_fonts.c **** 	0x3C, 0x40, 0x40, 0x20, 0x7C,// u
 114:Generated_Source\PSoC4/ledStrip_fonts.c **** 	0x1C, 0x20, 0x40, 0x20, 0x1C,// v
 115:Generated_Source\PSoC4/ledStrip_fonts.c **** 	0x3C, 0x40, 0x30, 0x40, 0x3C,// w
 116:Generated_Source\PSoC4/ledStrip_fonts.c **** 	0x44, 0x28, 0x10, 0x28, 0x44,// x
 117:Generated_Source\PSoC4/ledStrip_fonts.c **** 	0x0C, 0x50, 0x50, 0x50, 0x3C,// y
 118:Generated_Source\PSoC4/ledStrip_fonts.c **** 	0x44, 0x64, 0x54, 0x4C, 0x44,// z
 119:Generated_Source\PSoC4/ledStrip_fonts.c **** 	0x00, 0x08, 0x36, 0x41, 0x00,// {
 120:Generated_Source\PSoC4/ledStrip_fonts.c **** 	0x00, 0x00, 0x7F, 0x00, 0x00,// |
 121:Generated_Source\PSoC4/ledStrip_fonts.c **** 	0x00, 0x41, 0x36, 0x08, 0x00,// }
 122:Generated_Source\PSoC4/ledStrip_fonts.c **** 	0x08, 0x08, 0x2A, 0x1C, 0x08,// ->
 123:Generated_Source\PSoC4/ledStrip_fonts.c **** 	0x08, 0x1C, 0x2A, 0x08, 0x08 // <-
 124:Generated_Source\PSoC4/ledStrip_fonts.c **** };
 125:Generated_Source\PSoC4/ledStrip_fonts.c **** 
 126:Generated_Source\PSoC4/ledStrip_fonts.c **** 
 127:Generated_Source\PSoC4/ledStrip_fonts.c **** /*******************************************************************************
 128:Generated_Source\PSoC4/ledStrip_fonts.c **** * Function Name: ledStrip_SetFont
 129:Generated_Source\PSoC4/ledStrip_fonts.c **** ********************************************************************************
 130:Generated_Source\PSoC4/ledStrip_fonts.c **** * Summary:
 131:Generated_Source\PSoC4/ledStrip_fonts.c **** *   Set the specific font.  (Only one font supported at this time.)
 132:Generated_Source\PSoC4/ledStrip_fonts.c **** *
 133:Generated_Source\PSoC4/ledStrip_fonts.c **** * Parameters:  
 134:Generated_Source\PSoC4/ledStrip_fonts.c **** *  uint32 font: Font to be selected 
 135:Generated_Source\PSoC4/ledStrip_fonts.c **** *
 136:Generated_Source\PSoC4/ledStrip_fonts.c **** * Return: 
 137:Generated_Source\PSoC4/ledStrip_fonts.c **** *  void
 138:Generated_Source\PSoC4/ledStrip_fonts.c **** *
 139:Generated_Source\PSoC4/ledStrip_fonts.c **** *******************************************************************************/
 140:Generated_Source\PSoC4/ledStrip_fonts.c **** void ledStrip_SetFont( uint32 font)
 141:Generated_Source\PSoC4/ledStrip_fonts.c **** {
  28              		.loc 1 141 0
  29              		.cfi_startproc
  30              		@ args = 0, pretend = 0, frame = 0
ARM GAS  C:\Users\Tymek\AppData\Local\Temp\cczLLcGj.s 			page 4


  31              		@ frame_needed = 0, uses_anonymous_args = 0
  32              		@ link register save eliminated.
  33              	.LVL0:
 142:Generated_Source\PSoC4/ledStrip_fonts.c ****     switch(font)
  34              		.loc 1 142 0
  35 0000 0028     		cmp	r0, #0
  36 0002 0CD1     		bne	.L5
 143:Generated_Source\PSoC4/ledStrip_fonts.c ****     {
 144:Generated_Source\PSoC4/ledStrip_fonts.c ****        case ledStrip_FONT_5X7:
 145:Generated_Source\PSoC4/ledStrip_fonts.c ****            ledStrip_fontPtr = ledStrip_Font5x7;
  37              		.loc 1 145 0
  38 0004 0C4A     		ldr	r2, .L6
  39 0006 0D4B     		ldr	r3, .L6+4
  40 0008 1A60     		str	r2, [r3]
 146:Generated_Source\PSoC4/ledStrip_fonts.c ****            ledStrip_fontX = ledStrip_Font5x7_XSIZE;
  41              		.loc 1 146 0
  42 000a 0522     		movs	r2, #5
  43 000c 0C4B     		ldr	r3, .L6+8
  44 000e 1A60     		str	r2, [r3]
 147:Generated_Source\PSoC4/ledStrip_fonts.c ****            ledStrip_fontY = ledStrip_Font5x7_YSIZE;
  45              		.loc 1 147 0
  46 0010 0232     		adds	r2, r2, #2
  47 0012 0C4B     		ldr	r3, .L6+12
  48 0014 1A60     		str	r2, [r3]
 148:Generated_Source\PSoC4/ledStrip_fonts.c ****            ledStrip_fontOffset = ledStrip_Font5x7_OFFSET;
  49              		.loc 1 148 0
  50 0016 1932     		adds	r2, r2, #25
  51 0018 0B4B     		ldr	r3, .L6+16
  52 001a 1A60     		str	r2, [r3]
 149:Generated_Source\PSoC4/ledStrip_fonts.c ****            break;
  53              		.loc 1 149 0
  54 001c 0BE0     		b	.L1
  55              	.L5:
 150:Generated_Source\PSoC4/ledStrip_fonts.c ****            
 151:Generated_Source\PSoC4/ledStrip_fonts.c ****        default:
 152:Generated_Source\PSoC4/ledStrip_fonts.c ****            ledStrip_fontPtr = ledStrip_Font5x7;
  56              		.loc 1 152 0
  57 001e 064A     		ldr	r2, .L6
  58 0020 064B     		ldr	r3, .L6+4
  59 0022 1A60     		str	r2, [r3]
 153:Generated_Source\PSoC4/ledStrip_fonts.c ****            ledStrip_fontX = ledStrip_Font5x7_XSIZE;
  60              		.loc 1 153 0
  61 0024 0522     		movs	r2, #5
  62 0026 064B     		ldr	r3, .L6+8
  63 0028 1A60     		str	r2, [r3]
 154:Generated_Source\PSoC4/ledStrip_fonts.c ****            ledStrip_fontY = ledStrip_Font5x7_YSIZE;
  64              		.loc 1 154 0
  65 002a 0232     		adds	r2, r2, #2
  66 002c 054B     		ldr	r3, .L6+12
  67 002e 1A60     		str	r2, [r3]
 155:Generated_Source\PSoC4/ledStrip_fonts.c ****            ledStrip_fontOffset = ledStrip_Font5x7_OFFSET;
  68              		.loc 1 155 0
  69 0030 1932     		adds	r2, r2, #25
  70 0032 054B     		ldr	r3, .L6+16
  71 0034 1A60     		str	r2, [r3]
  72              	.L1:
 156:Generated_Source\PSoC4/ledStrip_fonts.c ****            break;
ARM GAS  C:\Users\Tymek\AppData\Local\Temp\cczLLcGj.s 			page 5


 157:Generated_Source\PSoC4/ledStrip_fonts.c ****     }
 158:Generated_Source\PSoC4/ledStrip_fonts.c **** }
  73              		.loc 1 158 0
  74              		@ sp needed
  75 0036 7047     		bx	lr
  76              	.L7:
  77              		.align	2
  78              	.L6:
  79 0038 00000000 		.word	.LANCHOR0
  80 003c 00000000 		.word	ledStrip_fontPtr
  81 0040 00000000 		.word	ledStrip_fontX
  82 0044 00000000 		.word	ledStrip_fontY
  83 0048 00000000 		.word	ledStrip_fontOffset
  84              		.cfi_endproc
  85              	.LFE35:
  86              		.size	ledStrip_SetFont, .-ledStrip_SetFont
  87              		.section	.text.ledStrip_PutChar,"ax",%progbits
  88              		.align	2
  89              		.global	ledStrip_PutChar
  90              		.code	16
  91              		.thumb_func
  92              		.type	ledStrip_PutChar, %function
  93              	ledStrip_PutChar:
  94              	.LFB37:
 159:Generated_Source\PSoC4/ledStrip_fonts.c **** 
 160:Generated_Source\PSoC4/ledStrip_fonts.c **** 
 161:Generated_Source\PSoC4/ledStrip_fonts.c **** /*******************************************************************************
 162:Generated_Source\PSoC4/ledStrip_fonts.c **** * Function Name: ledStrip_PrintString
 163:Generated_Source\PSoC4/ledStrip_fonts.c **** ********************************************************************************
 164:Generated_Source\PSoC4/ledStrip_fonts.c **** * Summary:
 165:Generated_Source\PSoC4/ledStrip_fonts.c **** *   Print string at the given location.
 166:Generated_Source\PSoC4/ledStrip_fonts.c **** *
 167:Generated_Source\PSoC4/ledStrip_fonts.c **** * Parameters:  
 168:Generated_Source\PSoC4/ledStrip_fonts.c **** *  uint32 xpos: X location at which to start string.
 169:Generated_Source\PSoC4/ledStrip_fonts.c **** *  uint32 ypos: Upper Y location to place string.
 170:Generated_Source\PSoC4/ledStrip_fonts.c **** *  char * theString:  The string to print.
 171:Generated_Source\PSoC4/ledStrip_fonts.c **** *  uint32 fg: The forground fount color.
 172:Generated_Source\PSoC4/ledStrip_fonts.c **** *  uint32 bg: Background color
 173:Generated_Source\PSoC4/ledStrip_fonts.c **** *
 174:Generated_Source\PSoC4/ledStrip_fonts.c **** * Return: 
 175:Generated_Source\PSoC4/ledStrip_fonts.c **** *  void
 176:Generated_Source\PSoC4/ledStrip_fonts.c **** *
 177:Generated_Source\PSoC4/ledStrip_fonts.c **** *******************************************************************************/
 178:Generated_Source\PSoC4/ledStrip_fonts.c **** void ledStrip_PrintString(int32 xpos, int32 ypos, char * theString, uint32 fg, uint32 bg)
 179:Generated_Source\PSoC4/ledStrip_fonts.c **** {
 180:Generated_Source\PSoC4/ledStrip_fonts.c ****     uint32 strPos = 0;
 181:Generated_Source\PSoC4/ledStrip_fonts.c ****     uint32 yStop;
 182:Generated_Source\PSoC4/ledStrip_fonts.c ****     
 183:Generated_Source\PSoC4/ledStrip_fonts.c ****     yStop = ypos + ledStrip_fontY;
 184:Generated_Source\PSoC4/ledStrip_fonts.c ****     if(yStop > ledStrip_MAX_Y) yStop = ledStrip_MAX_Y;
 185:Generated_Source\PSoC4/ledStrip_fonts.c ****     
 186:Generated_Source\PSoC4/ledStrip_fonts.c ****     while(theString[strPos] != 0)
 187:Generated_Source\PSoC4/ledStrip_fonts.c ****     {
 188:Generated_Source\PSoC4/ledStrip_fonts.c **** 		// Print character
 189:Generated_Source\PSoC4/ledStrip_fonts.c ****         if(fg == ledStrip_COLORWHEEL_FONT)
 190:Generated_Source\PSoC4/ledStrip_fonts.c ****         {
 191:Generated_Source\PSoC4/ledStrip_fonts.c ****             ledStrip_PutChar(xpos, ypos, theString[strPos], ledStrip_ColorInc(1), bg);
ARM GAS  C:\Users\Tymek\AppData\Local\Temp\cczLLcGj.s 			page 6


 192:Generated_Source\PSoC4/ledStrip_fonts.c ****         }
 193:Generated_Source\PSoC4/ledStrip_fonts.c ****         else
 194:Generated_Source\PSoC4/ledStrip_fonts.c ****         {
 195:Generated_Source\PSoC4/ledStrip_fonts.c ****             ledStrip_PutChar(xpos, ypos, theString[strPos], fg, bg);
 196:Generated_Source\PSoC4/ledStrip_fonts.c ****         }
 197:Generated_Source\PSoC4/ledStrip_fonts.c ****         strPos++;   // Advance to next character
 198:Generated_Source\PSoC4/ledStrip_fonts.c ****         xpos += ledStrip_fontX;  // Advance to next x location for next character
 199:Generated_Source\PSoC4/ledStrip_fonts.c **** 		
 200:Generated_Source\PSoC4/ledStrip_fonts.c **** 		// If not last character clear out area between characters.
 201:Generated_Source\PSoC4/ledStrip_fonts.c ****         if(theString[strPos] != 0)
 202:Generated_Source\PSoC4/ledStrip_fonts.c ****         {
 203:Generated_Source\PSoC4/ledStrip_fonts.c **** 			if(bg != ledStrip_TRANS_BG)
 204:Generated_Source\PSoC4/ledStrip_fonts.c **** 			{
 205:Generated_Source\PSoC4/ledStrip_fonts.c **** 			     ledStrip_DrawLine(xpos, ypos, xpos, ypos+ledStrip_fontY, bg);
 206:Generated_Source\PSoC4/ledStrip_fonts.c **** 			}
 207:Generated_Source\PSoC4/ledStrip_fonts.c ****         }
 208:Generated_Source\PSoC4/ledStrip_fonts.c ****         xpos++;
 209:Generated_Source\PSoC4/ledStrip_fonts.c ****     }
 210:Generated_Source\PSoC4/ledStrip_fonts.c **** 	if(bg != ledStrip_TRANS_BG)
 211:Generated_Source\PSoC4/ledStrip_fonts.c **** 	{
 212:Generated_Source\PSoC4/ledStrip_fonts.c ****         ledStrip_DrawLine(xpos-1, ypos, xpos-1, ypos+ledStrip_fontY, bg);
 213:Generated_Source\PSoC4/ledStrip_fonts.c **** 	}
 214:Generated_Source\PSoC4/ledStrip_fonts.c **** }
 215:Generated_Source\PSoC4/ledStrip_fonts.c **** 
 216:Generated_Source\PSoC4/ledStrip_fonts.c **** /*******************************************************************************
 217:Generated_Source\PSoC4/ledStrip_fonts.c **** * Function Name: ledStrip_PutChar
 218:Generated_Source\PSoC4/ledStrip_fonts.c **** ********************************************************************************
 219:Generated_Source\PSoC4/ledStrip_fonts.c **** * Summary:
 220:Generated_Source\PSoC4/ledStrip_fonts.c **** *   Print character at the given location.
 221:Generated_Source\PSoC4/ledStrip_fonts.c **** *
 222:Generated_Source\PSoC4/ledStrip_fonts.c **** * Parameters:  
 223:Generated_Source\PSoC4/ledStrip_fonts.c **** *  uint32 xpos: X location at which to start string.
 224:Generated_Source\PSoC4/ledStrip_fonts.c **** *  uint32 ypos: Upper Y location to place string.
 225:Generated_Source\PSoC4/ledStrip_fonts.c **** *  char theChar:  The character to print.
 226:Generated_Source\PSoC4/ledStrip_fonts.c **** *  uint32 fg: The forground fount color.
 227:Generated_Source\PSoC4/ledStrip_fonts.c **** *  uint32 bg: Background color
 228:Generated_Source\PSoC4/ledStrip_fonts.c **** *
 229:Generated_Source\PSoC4/ledStrip_fonts.c **** * Return: 
 230:Generated_Source\PSoC4/ledStrip_fonts.c **** *  void
 231:Generated_Source\PSoC4/ledStrip_fonts.c **** *
 232:Generated_Source\PSoC4/ledStrip_fonts.c **** *******************************************************************************/
 233:Generated_Source\PSoC4/ledStrip_fonts.c **** void ledStrip_PutChar(int32 xpos, int32 ypos, uint8 theChar, uint32 fg, uint32 bg)
 234:Generated_Source\PSoC4/ledStrip_fonts.c **** {
  95              		.loc 1 234 0
  96              		.cfi_startproc
  97              		@ args = 4, pretend = 0, frame = 8
  98              		@ frame_needed = 0, uses_anonymous_args = 0
  99              	.LVL1:
 100 0000 F0B5     		push	{r4, r5, r6, r7, lr}
 101              		.cfi_def_cfa_offset 20
 102              		.cfi_offset 4, -20
 103              		.cfi_offset 5, -16
 104              		.cfi_offset 6, -12
 105              		.cfi_offset 7, -8
 106              		.cfi_offset 14, -4
 107 0002 5F46     		mov	r7, fp
 108 0004 5646     		mov	r6, r10
ARM GAS  C:\Users\Tymek\AppData\Local\Temp\cczLLcGj.s 			page 7


 109 0006 4D46     		mov	r5, r9
 110 0008 E0B4     		push	{r5, r6, r7}
 111              		.cfi_def_cfa_offset 32
 112              		.cfi_offset 9, -32
 113              		.cfi_offset 10, -28
 114              		.cfi_offset 11, -24
 115 000a 82B0     		sub	sp, sp, #8
 116              		.cfi_def_cfa_offset 40
 117 000c 0600     		movs	r6, r0
 118 000e 0191     		str	r1, [sp, #4]
 119 0010 0093     		str	r3, [sp]
 120 0012 0A9B     		ldr	r3, [sp, #40]
 121              	.LVL2:
 122 0014 9A46     		mov	r10, r3
 235:Generated_Source\PSoC4/ledStrip_fonts.c ****     int32 x,y, fp;
 236:Generated_Source\PSoC4/ledStrip_fonts.c ****     uint8 mask;
 237:Generated_Source\PSoC4/ledStrip_fonts.c ****     int32 yStop, xStop;
 238:Generated_Source\PSoC4/ledStrip_fonts.c ****    
 239:Generated_Source\PSoC4/ledStrip_fonts.c ****     fp = (theChar - ledStrip_fontOffset) * ledStrip_fontX;
 123              		.loc 1 239 0
 124 0016 214B     		ldr	r3, .L19
 125 0018 1B68     		ldr	r3, [r3]
 126 001a D21A     		subs	r2, r2, r3
 127              	.LVL3:
 128 001c 204B     		ldr	r3, .L19+4
 129 001e 1B68     		ldr	r3, [r3]
 130 0020 5A43     		muls	r2, r3
 131 0022 9146     		mov	r9, r2
 132              	.LVL4:
 240:Generated_Source\PSoC4/ledStrip_fonts.c ****    
 241:Generated_Source\PSoC4/ledStrip_fonts.c ****     xStop = xpos + ledStrip_fontX;
 133              		.loc 1 241 0
 134 0024 9B46     		mov	fp, r3
 135 0026 8344     		add	fp, fp, r0
 136              	.LVL5:
 242:Generated_Source\PSoC4/ledStrip_fonts.c ****     if(xStop > ledStrip_MAX_X) xStop = ledStrip_MAX_X;
 137              		.loc 1 242 0
 138 0028 5B46     		mov	r3, fp
 139 002a 3B2B     		cmp	r3, #59
 140 002c 01DD     		ble	.L9
 141 002e 3B23     		movs	r3, #59
 142 0030 9B46     		mov	fp, r3
 143              	.LVL6:
 144              	.L9:
 243:Generated_Source\PSoC4/ledStrip_fonts.c ****    
 244:Generated_Source\PSoC4/ledStrip_fonts.c ****     yStop = ypos + ledStrip_fontY;
 145              		.loc 1 244 0
 146 0032 1C4B     		ldr	r3, .L19+8
 147 0034 1B68     		ldr	r3, [r3]
 148 0036 019A     		ldr	r2, [sp, #4]
 149              	.LVL7:
 150 0038 9F18     		adds	r7, r3, r2
 151              	.LVL8:
 245:Generated_Source\PSoC4/ledStrip_fonts.c ****     if(yStop > ledStrip_MAX_Y) yStop = ledStrip_MAX_Y;
 152              		.loc 1 245 0
 153 003a 012F     		cmp	r7, #1
 154 003c 26DD     		ble	.L11
ARM GAS  C:\Users\Tymek\AppData\Local\Temp\cczLLcGj.s 			page 8


 155 003e 0127     		movs	r7, #1
 156              	.LVL9:
 246:Generated_Source\PSoC4/ledStrip_fonts.c ****    
 247:Generated_Source\PSoC4/ledStrip_fonts.c ****     for( x = xpos; x < xStop; x++)
 157              		.loc 1 247 0
 158 0040 24E0     		b	.L11
 159              	.LVL10:
 160              	.L14:
 248:Generated_Source\PSoC4/ledStrip_fonts.c ****     {
 249:Generated_Source\PSoC4/ledStrip_fonts.c ****         mask = 0x01;
 250:Generated_Source\PSoC4/ledStrip_fonts.c ****         for(y = ypos; y <= yStop; y++)
 251:Generated_Source\PSoC4/ledStrip_fonts.c ****         {
 252:Generated_Source\PSoC4/ledStrip_fonts.c ****             if((y >= 0) && (x >= 0))
 161              		.loc 1 252 0
 162 0042 002D     		cmp	r5, #0
 163 0044 16DB     		blt	.L12
 164              		.loc 1 252 0 is_stmt 0 discriminator 1
 165 0046 002E     		cmp	r6, #0
 166 0048 14DB     		blt	.L12
 253:Generated_Source\PSoC4/ledStrip_fonts.c ****             {
 254:Generated_Source\PSoC4/ledStrip_fonts.c ****                 if(mask & ledStrip_fontPtr[fp])
 167              		.loc 1 254 0 is_stmt 1
 168 004a 174B     		ldr	r3, .L19+12
 169 004c 1B68     		ldr	r3, [r3]
 170 004e 4A46     		mov	r2, r9
 171 0050 9B5C     		ldrb	r3, [r3, r2]
 172 0052 2342     		tst	r3, r4
 173 0054 05D0     		beq	.L13
 174              	.LVL11:
 255:Generated_Source\PSoC4/ledStrip_fonts.c ****                 { 
 256:Generated_Source\PSoC4/ledStrip_fonts.c **** 				     ledStrip_Pixel( x, y, fg);
 175              		.loc 1 256 0
 176 0056 009A     		ldr	r2, [sp]
 177              	.LVL12:
 178 0058 2900     		movs	r1, r5
 179 005a 3000     		movs	r0, r6
 180 005c FFF7FEFF 		bl	ledStrip_Pixel
 181              	.LVL13:
 182 0060 08E0     		b	.L12
 183              	.LVL14:
 184              	.L13:
 257:Generated_Source\PSoC4/ledStrip_fonts.c ****                 }
 258:Generated_Source\PSoC4/ledStrip_fonts.c ****                 else
 259:Generated_Source\PSoC4/ledStrip_fonts.c ****                 {
 260:Generated_Source\PSoC4/ledStrip_fonts.c **** 					if(bg != ledStrip_TRANS_BG)
 185              		.loc 1 260 0
 186 0062 FF23     		movs	r3, #255
 187 0064 1B06     		lsls	r3, r3, #24
 188 0066 9A45     		cmp	r10, r3
 189 0068 04D0     		beq	.L12
 261:Generated_Source\PSoC4/ledStrip_fonts.c **** 					{
 262:Generated_Source\PSoC4/ledStrip_fonts.c **** 				        ledStrip_Pixel( x, y, bg);
 190              		.loc 1 262 0
 191 006a 5246     		mov	r2, r10
 192              	.LVL15:
 193 006c 2900     		movs	r1, r5
 194 006e 3000     		movs	r0, r6
ARM GAS  C:\Users\Tymek\AppData\Local\Temp\cczLLcGj.s 			page 9


 195 0070 FFF7FEFF 		bl	ledStrip_Pixel
 196              	.LVL16:
 197              	.L12:
 263:Generated_Source\PSoC4/ledStrip_fonts.c **** 					}
 264:Generated_Source\PSoC4/ledStrip_fonts.c ****                 }
 265:Generated_Source\PSoC4/ledStrip_fonts.c ****             }
 266:Generated_Source\PSoC4/ledStrip_fonts.c ****             mask = mask << 1;
 198              		.loc 1 266 0 discriminator 2
 199 0074 6400     		lsls	r4, r4, #1
 200              	.LVL17:
 201 0076 E4B2     		uxtb	r4, r4
 202              	.LVL18:
 250:Generated_Source\PSoC4/ledStrip_fonts.c ****         {
 203              		.loc 1 250 0 discriminator 2
 204 0078 0135     		adds	r5, r5, #1
 205              	.LVL19:
 206 007a 01E0     		b	.L15
 207              	.LVL20:
 208              	.L18:
 209 007c 019D     		ldr	r5, [sp, #4]
 210 007e 0124     		movs	r4, #1
 211              	.L15:
 212              	.LVL21:
 250:Generated_Source\PSoC4/ledStrip_fonts.c ****         {
 213              		.loc 1 250 0 is_stmt 0 discriminator 1
 214 0080 BD42     		cmp	r5, r7
 215 0082 DEDD     		ble	.L14
 267:Generated_Source\PSoC4/ledStrip_fonts.c ****         }
 268:Generated_Source\PSoC4/ledStrip_fonts.c ****         fp++;
 216              		.loc 1 268 0 is_stmt 1 discriminator 2
 217 0084 0123     		movs	r3, #1
 218 0086 9C46     		mov	ip, r3
 219 0088 E144     		add	r9, r9, ip
 220              	.LVL22:
 247:Generated_Source\PSoC4/ledStrip_fonts.c ****     {
 221              		.loc 1 247 0 discriminator 2
 222 008a 0136     		adds	r6, r6, #1
 223              	.LVL23:
 224              	.L11:
 247:Generated_Source\PSoC4/ledStrip_fonts.c ****     {
 225              		.loc 1 247 0 is_stmt 0 discriminator 1
 226 008c 5E45     		cmp	r6, fp
 227 008e F5DB     		blt	.L18
 269:Generated_Source\PSoC4/ledStrip_fonts.c ****     }
 270:Generated_Source\PSoC4/ledStrip_fonts.c **** }
 228              		.loc 1 270 0 is_stmt 1
 229 0090 02B0     		add	sp, sp, #8
 230              	.LVL24:
 231              		@ sp needed
 232              	.LVL25:
 233              	.LVL26:
 234              	.LVL27:
 235              	.LVL28:
 236 0092 1CBC     		pop	{r2, r3, r4}
 237 0094 9146     		mov	r9, r2
 238 0096 9A46     		mov	r10, r3
 239 0098 A346     		mov	fp, r4
ARM GAS  C:\Users\Tymek\AppData\Local\Temp\cczLLcGj.s 			page 10


 240 009a F0BD     		pop	{r4, r5, r6, r7, pc}
 241              	.L20:
 242              		.align	2
 243              	.L19:
 244 009c 00000000 		.word	ledStrip_fontOffset
 245 00a0 00000000 		.word	ledStrip_fontX
 246 00a4 00000000 		.word	ledStrip_fontY
 247 00a8 00000000 		.word	ledStrip_fontPtr
 248              		.cfi_endproc
 249              	.LFE37:
 250              		.size	ledStrip_PutChar, .-ledStrip_PutChar
 251              		.section	.text.ledStrip_PrintString,"ax",%progbits
 252              		.align	2
 253              		.global	ledStrip_PrintString
 254              		.code	16
 255              		.thumb_func
 256              		.type	ledStrip_PrintString, %function
 257              	ledStrip_PrintString:
 258              	.LFB36:
 179:Generated_Source\PSoC4/ledStrip_fonts.c ****     uint32 strPos = 0;
 259              		.loc 1 179 0
 260              		.cfi_startproc
 261              		@ args = 4, pretend = 0, frame = 8
 262              		@ frame_needed = 0, uses_anonymous_args = 0
 263              	.LVL29:
 264 0000 F0B5     		push	{r4, r5, r6, r7, lr}
 265              		.cfi_def_cfa_offset 20
 266              		.cfi_offset 4, -20
 267              		.cfi_offset 5, -16
 268              		.cfi_offset 6, -12
 269              		.cfi_offset 7, -8
 270              		.cfi_offset 14, -4
 271 0002 5746     		mov	r7, r10
 272 0004 4646     		mov	r6, r8
 273 0006 C0B4     		push	{r6, r7}
 274              		.cfi_def_cfa_offset 28
 275              		.cfi_offset 8, -28
 276              		.cfi_offset 10, -24
 277 0008 85B0     		sub	sp, sp, #20
 278              		.cfi_def_cfa_offset 48
 279 000a 0400     		movs	r4, r0
 280 000c 0391     		str	r1, [sp, #12]
 281 000e 9046     		mov	r8, r2
 282 0010 9A46     		mov	r10, r3
 283 0012 0C9F     		ldr	r7, [sp, #48]
 284              	.LVL30:
 180:Generated_Source\PSoC4/ledStrip_fonts.c ****     uint32 yStop;
 285              		.loc 1 180 0
 286 0014 0025     		movs	r5, #0
 287 0016 2CE0     		b	.L22
 288              	.LVL31:
 289              	.L26:
 189:Generated_Source\PSoC4/ledStrip_fonts.c ****         {
 290              		.loc 1 189 0
 291 0018 8023     		movs	r3, #128
 292              	.LVL32:
 293 001a 1B06     		lsls	r3, r3, #24
ARM GAS  C:\Users\Tymek\AppData\Local\Temp\cczLLcGj.s 			page 11


 294 001c 9A45     		cmp	r10, r3
 295 001e 0AD1     		bne	.L23
 191:Generated_Source\PSoC4/ledStrip_fonts.c ****         }
 296              		.loc 1 191 0
 297 0020 0120     		movs	r0, #1
 298 0022 FFF7FEFF 		bl	ledStrip_ColorInc
 299              	.LVL33:
 300 0026 0300     		movs	r3, r0
 301 0028 0097     		str	r7, [sp]
 302 002a 3200     		movs	r2, r6
 303 002c 0399     		ldr	r1, [sp, #12]
 304 002e 2000     		movs	r0, r4
 305 0030 FFF7FEFF 		bl	ledStrip_PutChar
 306              	.LVL34:
 307 0034 06E0     		b	.L24
 308              	.L23:
 195:Generated_Source\PSoC4/ledStrip_fonts.c ****         }
 309              		.loc 1 195 0
 310 0036 0097     		str	r7, [sp]
 311 0038 5346     		mov	r3, r10
 312 003a 3200     		movs	r2, r6
 313 003c 0399     		ldr	r1, [sp, #12]
 314 003e 2000     		movs	r0, r4
 315 0040 FFF7FEFF 		bl	ledStrip_PutChar
 316              	.LVL35:
 317              	.L24:
 197:Generated_Source\PSoC4/ledStrip_fonts.c ****         xpos += ledStrip_fontX;  // Advance to next x location for next character
 318              		.loc 1 197 0
 319 0044 0135     		adds	r5, r5, #1
 320              	.LVL36:
 198:Generated_Source\PSoC4/ledStrip_fonts.c **** 		
 321              		.loc 1 198 0
 322 0046 164B     		ldr	r3, .L28
 323 0048 1868     		ldr	r0, [r3]
 324 004a 2418     		adds	r4, r4, r0
 325              	.LVL37:
 201:Generated_Source\PSoC4/ledStrip_fonts.c ****         {
 326              		.loc 1 201 0
 327 004c 4346     		mov	r3, r8
 328 004e 5B5D     		ldrb	r3, [r3, r5]
 329 0050 002B     		cmp	r3, #0
 330 0052 0DD0     		beq	.L25
 203:Generated_Source\PSoC4/ledStrip_fonts.c **** 			{
 331              		.loc 1 203 0
 332 0054 FF23     		movs	r3, #255
 333 0056 1B06     		lsls	r3, r3, #24
 334 0058 9F42     		cmp	r7, r3
 335 005a 09D0     		beq	.L25
 205:Generated_Source\PSoC4/ledStrip_fonts.c **** 			}
 336              		.loc 1 205 0
 337 005c 114B     		ldr	r3, .L28+4
 338 005e 1B68     		ldr	r3, [r3]
 339 0060 0399     		ldr	r1, [sp, #12]
 340 0062 8C46     		mov	ip, r1
 341 0064 6344     		add	r3, r3, ip
 342 0066 0097     		str	r7, [sp]
 343 0068 2200     		movs	r2, r4
ARM GAS  C:\Users\Tymek\AppData\Local\Temp\cczLLcGj.s 			page 12


 344 006a 2000     		movs	r0, r4
 345 006c FFF7FEFF 		bl	ledStrip_DrawLine
 346              	.LVL38:
 347              	.L25:
 208:Generated_Source\PSoC4/ledStrip_fonts.c ****     }
 348              		.loc 1 208 0
 349 0070 0134     		adds	r4, r4, #1
 350              	.LVL39:
 351              	.L22:
 186:Generated_Source\PSoC4/ledStrip_fonts.c ****     {
 352              		.loc 1 186 0
 353 0072 4346     		mov	r3, r8
 354 0074 5E5D     		ldrb	r6, [r3, r5]
 355 0076 002E     		cmp	r6, #0
 356 0078 CED1     		bne	.L26
 357              	.LVL40:
 210:Generated_Source\PSoC4/ledStrip_fonts.c **** 	{
 358              		.loc 1 210 0
 359 007a FF23     		movs	r3, #255
 360              	.LVL41:
 361 007c 1B06     		lsls	r3, r3, #24
 362 007e 9F42     		cmp	r7, r3
 363 0080 09D0     		beq	.L21
 212:Generated_Source\PSoC4/ledStrip_fonts.c **** 	}
 364              		.loc 1 212 0
 365 0082 601E     		subs	r0, r4, #1
 366 0084 074B     		ldr	r3, .L28+4
 367 0086 1B68     		ldr	r3, [r3]
 368 0088 0399     		ldr	r1, [sp, #12]
 369 008a 8C46     		mov	ip, r1
 370 008c 6344     		add	r3, r3, ip
 371 008e 0097     		str	r7, [sp]
 372 0090 0200     		movs	r2, r0
 373 0092 FFF7FEFF 		bl	ledStrip_DrawLine
 374              	.LVL42:
 375              	.L21:
 214:Generated_Source\PSoC4/ledStrip_fonts.c **** 
 376              		.loc 1 214 0
 377 0096 05B0     		add	sp, sp, #20
 378              		@ sp needed
 379              	.LVL43:
 380              	.LVL44:
 381              	.LVL45:
 382              	.LVL46:
 383 0098 0CBC     		pop	{r2, r3}
 384 009a 9046     		mov	r8, r2
 385 009c 9A46     		mov	r10, r3
 386 009e F0BD     		pop	{r4, r5, r6, r7, pc}
 387              	.L29:
 388              		.align	2
 389              	.L28:
 390 00a0 00000000 		.word	ledStrip_fontX
 391 00a4 00000000 		.word	ledStrip_fontY
 392              		.cfi_endproc
 393              	.LFE36:
 394              		.size	ledStrip_PrintString, .-ledStrip_PrintString
 395              		.global	ledStrip_Font5x7
ARM GAS  C:\Users\Tymek\AppData\Local\Temp\cczLLcGj.s 			page 13


 396              		.comm	ledStrip_fontOffset,4,4
 397              		.comm	ledStrip_fontY,4,4
 398              		.comm	ledStrip_fontX,4,4
 399              		.comm	ledStrip_fontPtr,4,4
 400              		.section	.rodata
 401              		.align	2
 402              		.set	.LANCHOR0,. + 0
 403              		.type	ledStrip_Font5x7, %object
 404              		.size	ledStrip_Font5x7, 480
 405              	ledStrip_Font5x7:
 406 0000 00       		.byte	0
 407 0001 00       		.byte	0
 408 0002 00       		.byte	0
 409 0003 00       		.byte	0
 410 0004 00       		.byte	0
 411 0005 00       		.byte	0
 412 0006 00       		.byte	0
 413 0007 5F       		.byte	95
 414 0008 00       		.byte	0
 415 0009 00       		.byte	0
 416 000a 00       		.byte	0
 417 000b 07       		.byte	7
 418 000c 00       		.byte	0
 419 000d 07       		.byte	7
 420 000e 00       		.byte	0
 421 000f 14       		.byte	20
 422 0010 7F       		.byte	127
 423 0011 14       		.byte	20
 424 0012 7F       		.byte	127
 425 0013 14       		.byte	20
 426 0014 24       		.byte	36
 427 0015 2A       		.byte	42
 428 0016 7F       		.byte	127
 429 0017 2A       		.byte	42
 430 0018 12       		.byte	18
 431 0019 23       		.byte	35
 432 001a 13       		.byte	19
 433 001b 08       		.byte	8
 434 001c 64       		.byte	100
 435 001d 62       		.byte	98
 436 001e 36       		.byte	54
 437 001f 49       		.byte	73
 438 0020 55       		.byte	85
 439 0021 22       		.byte	34
 440 0022 50       		.byte	80
 441 0023 00       		.byte	0
 442 0024 05       		.byte	5
 443 0025 03       		.byte	3
 444 0026 00       		.byte	0
 445 0027 00       		.byte	0
 446 0028 00       		.byte	0
 447 0029 1C       		.byte	28
 448 002a 22       		.byte	34
 449 002b 41       		.byte	65
 450 002c 00       		.byte	0
 451 002d 00       		.byte	0
 452 002e 41       		.byte	65
ARM GAS  C:\Users\Tymek\AppData\Local\Temp\cczLLcGj.s 			page 14


 453 002f 22       		.byte	34
 454 0030 1C       		.byte	28
 455 0031 00       		.byte	0
 456 0032 08       		.byte	8
 457 0033 2A       		.byte	42
 458 0034 1C       		.byte	28
 459 0035 2A       		.byte	42
 460 0036 08       		.byte	8
 461 0037 08       		.byte	8
 462 0038 08       		.byte	8
 463 0039 3E       		.byte	62
 464 003a 08       		.byte	8
 465 003b 08       		.byte	8
 466 003c 00       		.byte	0
 467 003d 50       		.byte	80
 468 003e 30       		.byte	48
 469 003f 00       		.byte	0
 470 0040 00       		.byte	0
 471 0041 08       		.byte	8
 472 0042 08       		.byte	8
 473 0043 08       		.byte	8
 474 0044 08       		.byte	8
 475 0045 08       		.byte	8
 476 0046 00       		.byte	0
 477 0047 60       		.byte	96
 478 0048 60       		.byte	96
 479 0049 00       		.byte	0
 480 004a 00       		.byte	0
 481 004b 20       		.byte	32
 482 004c 10       		.byte	16
 483 004d 08       		.byte	8
 484 004e 04       		.byte	4
 485 004f 02       		.byte	2
 486 0050 3E       		.byte	62
 487 0051 51       		.byte	81
 488 0052 49       		.byte	73
 489 0053 45       		.byte	69
 490 0054 3E       		.byte	62
 491 0055 00       		.byte	0
 492 0056 42       		.byte	66
 493 0057 7F       		.byte	127
 494 0058 40       		.byte	64
 495 0059 00       		.byte	0
 496 005a 42       		.byte	66
 497 005b 61       		.byte	97
 498 005c 51       		.byte	81
 499 005d 49       		.byte	73
 500 005e 46       		.byte	70
 501 005f 21       		.byte	33
 502 0060 41       		.byte	65
 503 0061 45       		.byte	69
 504 0062 4B       		.byte	75
 505 0063 31       		.byte	49
 506 0064 18       		.byte	24
 507 0065 14       		.byte	20
 508 0066 12       		.byte	18
 509 0067 7F       		.byte	127
ARM GAS  C:\Users\Tymek\AppData\Local\Temp\cczLLcGj.s 			page 15


 510 0068 10       		.byte	16
 511 0069 27       		.byte	39
 512 006a 45       		.byte	69
 513 006b 45       		.byte	69
 514 006c 45       		.byte	69
 515 006d 39       		.byte	57
 516 006e 3C       		.byte	60
 517 006f 4A       		.byte	74
 518 0070 49       		.byte	73
 519 0071 49       		.byte	73
 520 0072 30       		.byte	48
 521 0073 01       		.byte	1
 522 0074 71       		.byte	113
 523 0075 09       		.byte	9
 524 0076 05       		.byte	5
 525 0077 03       		.byte	3
 526 0078 36       		.byte	54
 527 0079 49       		.byte	73
 528 007a 49       		.byte	73
 529 007b 49       		.byte	73
 530 007c 36       		.byte	54
 531 007d 06       		.byte	6
 532 007e 49       		.byte	73
 533 007f 49       		.byte	73
 534 0080 29       		.byte	41
 535 0081 1E       		.byte	30
 536 0082 00       		.byte	0
 537 0083 36       		.byte	54
 538 0084 36       		.byte	54
 539 0085 00       		.byte	0
 540 0086 00       		.byte	0
 541 0087 00       		.byte	0
 542 0088 56       		.byte	86
 543 0089 36       		.byte	54
 544 008a 00       		.byte	0
 545 008b 00       		.byte	0
 546 008c 00       		.byte	0
 547 008d 08       		.byte	8
 548 008e 14       		.byte	20
 549 008f 22       		.byte	34
 550 0090 41       		.byte	65
 551 0091 14       		.byte	20
 552 0092 14       		.byte	20
 553 0093 14       		.byte	20
 554 0094 14       		.byte	20
 555 0095 14       		.byte	20
 556 0096 41       		.byte	65
 557 0097 22       		.byte	34
 558 0098 14       		.byte	20
 559 0099 08       		.byte	8
 560 009a 00       		.byte	0
 561 009b 02       		.byte	2
 562 009c 01       		.byte	1
 563 009d 51       		.byte	81
 564 009e 09       		.byte	9
 565 009f 06       		.byte	6
 566 00a0 32       		.byte	50
ARM GAS  C:\Users\Tymek\AppData\Local\Temp\cczLLcGj.s 			page 16


 567 00a1 49       		.byte	73
 568 00a2 79       		.byte	121
 569 00a3 41       		.byte	65
 570 00a4 3E       		.byte	62
 571 00a5 7E       		.byte	126
 572 00a6 11       		.byte	17
 573 00a7 11       		.byte	17
 574 00a8 11       		.byte	17
 575 00a9 7E       		.byte	126
 576 00aa 7F       		.byte	127
 577 00ab 49       		.byte	73
 578 00ac 49       		.byte	73
 579 00ad 49       		.byte	73
 580 00ae 36       		.byte	54
 581 00af 3E       		.byte	62
 582 00b0 41       		.byte	65
 583 00b1 41       		.byte	65
 584 00b2 41       		.byte	65
 585 00b3 22       		.byte	34
 586 00b4 7F       		.byte	127
 587 00b5 41       		.byte	65
 588 00b6 41       		.byte	65
 589 00b7 22       		.byte	34
 590 00b8 1C       		.byte	28
 591 00b9 7F       		.byte	127
 592 00ba 49       		.byte	73
 593 00bb 49       		.byte	73
 594 00bc 49       		.byte	73
 595 00bd 41       		.byte	65
 596 00be 7F       		.byte	127
 597 00bf 09       		.byte	9
 598 00c0 09       		.byte	9
 599 00c1 01       		.byte	1
 600 00c2 01       		.byte	1
 601 00c3 3E       		.byte	62
 602 00c4 41       		.byte	65
 603 00c5 41       		.byte	65
 604 00c6 51       		.byte	81
 605 00c7 32       		.byte	50
 606 00c8 7F       		.byte	127
 607 00c9 08       		.byte	8
 608 00ca 08       		.byte	8
 609 00cb 08       		.byte	8
 610 00cc 7F       		.byte	127
 611 00cd 00       		.byte	0
 612 00ce 41       		.byte	65
 613 00cf 7F       		.byte	127
 614 00d0 41       		.byte	65
 615 00d1 00       		.byte	0
 616 00d2 20       		.byte	32
 617 00d3 40       		.byte	64
 618 00d4 41       		.byte	65
 619 00d5 3F       		.byte	63
 620 00d6 01       		.byte	1
 621 00d7 7F       		.byte	127
 622 00d8 08       		.byte	8
 623 00d9 14       		.byte	20
ARM GAS  C:\Users\Tymek\AppData\Local\Temp\cczLLcGj.s 			page 17


 624 00da 22       		.byte	34
 625 00db 41       		.byte	65
 626 00dc 7F       		.byte	127
 627 00dd 40       		.byte	64
 628 00de 40       		.byte	64
 629 00df 40       		.byte	64
 630 00e0 40       		.byte	64
 631 00e1 7F       		.byte	127
 632 00e2 02       		.byte	2
 633 00e3 04       		.byte	4
 634 00e4 02       		.byte	2
 635 00e5 7F       		.byte	127
 636 00e6 7F       		.byte	127
 637 00e7 04       		.byte	4
 638 00e8 08       		.byte	8
 639 00e9 10       		.byte	16
 640 00ea 7F       		.byte	127
 641 00eb 3E       		.byte	62
 642 00ec 41       		.byte	65
 643 00ed 41       		.byte	65
 644 00ee 41       		.byte	65
 645 00ef 3E       		.byte	62
 646 00f0 7F       		.byte	127
 647 00f1 09       		.byte	9
 648 00f2 09       		.byte	9
 649 00f3 09       		.byte	9
 650 00f4 06       		.byte	6
 651 00f5 3E       		.byte	62
 652 00f6 41       		.byte	65
 653 00f7 51       		.byte	81
 654 00f8 21       		.byte	33
 655 00f9 5E       		.byte	94
 656 00fa 7F       		.byte	127
 657 00fb 09       		.byte	9
 658 00fc 19       		.byte	25
 659 00fd 29       		.byte	41
 660 00fe 46       		.byte	70
 661 00ff 46       		.byte	70
 662 0100 49       		.byte	73
 663 0101 49       		.byte	73
 664 0102 49       		.byte	73
 665 0103 31       		.byte	49
 666 0104 01       		.byte	1
 667 0105 01       		.byte	1
 668 0106 7F       		.byte	127
 669 0107 01       		.byte	1
 670 0108 01       		.byte	1
 671 0109 3F       		.byte	63
 672 010a 40       		.byte	64
 673 010b 40       		.byte	64
 674 010c 40       		.byte	64
 675 010d 3F       		.byte	63
 676 010e 1F       		.byte	31
 677 010f 20       		.byte	32
 678 0110 40       		.byte	64
 679 0111 20       		.byte	32
 680 0112 1F       		.byte	31
ARM GAS  C:\Users\Tymek\AppData\Local\Temp\cczLLcGj.s 			page 18


 681 0113 7F       		.byte	127
 682 0114 20       		.byte	32
 683 0115 18       		.byte	24
 684 0116 20       		.byte	32
 685 0117 7F       		.byte	127
 686 0118 63       		.byte	99
 687 0119 14       		.byte	20
 688 011a 08       		.byte	8
 689 011b 14       		.byte	20
 690 011c 63       		.byte	99
 691 011d 03       		.byte	3
 692 011e 04       		.byte	4
 693 011f 78       		.byte	120
 694 0120 04       		.byte	4
 695 0121 03       		.byte	3
 696 0122 61       		.byte	97
 697 0123 51       		.byte	81
 698 0124 49       		.byte	73
 699 0125 45       		.byte	69
 700 0126 43       		.byte	67
 701 0127 00       		.byte	0
 702 0128 00       		.byte	0
 703 0129 7F       		.byte	127
 704 012a 41       		.byte	65
 705 012b 41       		.byte	65
 706 012c 02       		.byte	2
 707 012d 04       		.byte	4
 708 012e 08       		.byte	8
 709 012f 10       		.byte	16
 710 0130 20       		.byte	32
 711 0131 41       		.byte	65
 712 0132 41       		.byte	65
 713 0133 7F       		.byte	127
 714 0134 00       		.byte	0
 715 0135 00       		.byte	0
 716 0136 04       		.byte	4
 717 0137 02       		.byte	2
 718 0138 01       		.byte	1
 719 0139 02       		.byte	2
 720 013a 04       		.byte	4
 721 013b 40       		.byte	64
 722 013c 40       		.byte	64
 723 013d 40       		.byte	64
 724 013e 40       		.byte	64
 725 013f 40       		.byte	64
 726 0140 00       		.byte	0
 727 0141 01       		.byte	1
 728 0142 02       		.byte	2
 729 0143 04       		.byte	4
 730 0144 00       		.byte	0
 731 0145 20       		.byte	32
 732 0146 54       		.byte	84
 733 0147 54       		.byte	84
 734 0148 54       		.byte	84
 735 0149 78       		.byte	120
 736 014a 7F       		.byte	127
 737 014b 48       		.byte	72
ARM GAS  C:\Users\Tymek\AppData\Local\Temp\cczLLcGj.s 			page 19


 738 014c 44       		.byte	68
 739 014d 44       		.byte	68
 740 014e 38       		.byte	56
 741 014f 38       		.byte	56
 742 0150 44       		.byte	68
 743 0151 44       		.byte	68
 744 0152 44       		.byte	68
 745 0153 20       		.byte	32
 746 0154 38       		.byte	56
 747 0155 44       		.byte	68
 748 0156 44       		.byte	68
 749 0157 48       		.byte	72
 750 0158 7F       		.byte	127
 751 0159 38       		.byte	56
 752 015a 54       		.byte	84
 753 015b 54       		.byte	84
 754 015c 54       		.byte	84
 755 015d 18       		.byte	24
 756 015e 08       		.byte	8
 757 015f 7E       		.byte	126
 758 0160 09       		.byte	9
 759 0161 01       		.byte	1
 760 0162 02       		.byte	2
 761 0163 08       		.byte	8
 762 0164 14       		.byte	20
 763 0165 54       		.byte	84
 764 0166 54       		.byte	84
 765 0167 3C       		.byte	60
 766 0168 7F       		.byte	127
 767 0169 08       		.byte	8
 768 016a 04       		.byte	4
 769 016b 04       		.byte	4
 770 016c 78       		.byte	120
 771 016d 00       		.byte	0
 772 016e 44       		.byte	68
 773 016f 7D       		.byte	125
 774 0170 40       		.byte	64
 775 0171 00       		.byte	0
 776 0172 20       		.byte	32
 777 0173 40       		.byte	64
 778 0174 44       		.byte	68
 779 0175 3D       		.byte	61
 780 0176 00       		.byte	0
 781 0177 00       		.byte	0
 782 0178 7F       		.byte	127
 783 0179 10       		.byte	16
 784 017a 28       		.byte	40
 785 017b 44       		.byte	68
 786 017c 00       		.byte	0
 787 017d 41       		.byte	65
 788 017e 7F       		.byte	127
 789 017f 40       		.byte	64
 790 0180 00       		.byte	0
 791 0181 7C       		.byte	124
 792 0182 04       		.byte	4
 793 0183 18       		.byte	24
 794 0184 04       		.byte	4
ARM GAS  C:\Users\Tymek\AppData\Local\Temp\cczLLcGj.s 			page 20


 795 0185 78       		.byte	120
 796 0186 7C       		.byte	124
 797 0187 08       		.byte	8
 798 0188 04       		.byte	4
 799 0189 04       		.byte	4
 800 018a 78       		.byte	120
 801 018b 38       		.byte	56
 802 018c 44       		.byte	68
 803 018d 44       		.byte	68
 804 018e 44       		.byte	68
 805 018f 38       		.byte	56
 806 0190 7C       		.byte	124
 807 0191 14       		.byte	20
 808 0192 14       		.byte	20
 809 0193 14       		.byte	20
 810 0194 08       		.byte	8
 811 0195 08       		.byte	8
 812 0196 14       		.byte	20
 813 0197 14       		.byte	20
 814 0198 18       		.byte	24
 815 0199 7C       		.byte	124
 816 019a 7C       		.byte	124
 817 019b 08       		.byte	8
 818 019c 04       		.byte	4
 819 019d 04       		.byte	4
 820 019e 08       		.byte	8
 821 019f 48       		.byte	72
 822 01a0 54       		.byte	84
 823 01a1 54       		.byte	84
 824 01a2 54       		.byte	84
 825 01a3 20       		.byte	32
 826 01a4 04       		.byte	4
 827 01a5 3F       		.byte	63
 828 01a6 44       		.byte	68
 829 01a7 40       		.byte	64
 830 01a8 20       		.byte	32
 831 01a9 3C       		.byte	60
 832 01aa 40       		.byte	64
 833 01ab 40       		.byte	64
 834 01ac 20       		.byte	32
 835 01ad 7C       		.byte	124
 836 01ae 1C       		.byte	28
 837 01af 20       		.byte	32
 838 01b0 40       		.byte	64
 839 01b1 20       		.byte	32
 840 01b2 1C       		.byte	28
 841 01b3 3C       		.byte	60
 842 01b4 40       		.byte	64
 843 01b5 30       		.byte	48
 844 01b6 40       		.byte	64
 845 01b7 3C       		.byte	60
 846 01b8 44       		.byte	68
 847 01b9 28       		.byte	40
 848 01ba 10       		.byte	16
 849 01bb 28       		.byte	40
 850 01bc 44       		.byte	68
 851 01bd 0C       		.byte	12
ARM GAS  C:\Users\Tymek\AppData\Local\Temp\cczLLcGj.s 			page 21


 852 01be 50       		.byte	80
 853 01bf 50       		.byte	80
 854 01c0 50       		.byte	80
 855 01c1 3C       		.byte	60
 856 01c2 44       		.byte	68
 857 01c3 64       		.byte	100
 858 01c4 54       		.byte	84
 859 01c5 4C       		.byte	76
 860 01c6 44       		.byte	68
 861 01c7 00       		.byte	0
 862 01c8 08       		.byte	8
 863 01c9 36       		.byte	54
 864 01ca 41       		.byte	65
 865 01cb 00       		.byte	0
 866 01cc 00       		.byte	0
 867 01cd 00       		.byte	0
 868 01ce 7F       		.byte	127
 869 01cf 00       		.byte	0
 870 01d0 00       		.byte	0
 871 01d1 00       		.byte	0
 872 01d2 41       		.byte	65
 873 01d3 36       		.byte	54
 874 01d4 08       		.byte	8
 875 01d5 00       		.byte	0
 876 01d6 08       		.byte	8
 877 01d7 08       		.byte	8
 878 01d8 2A       		.byte	42
 879 01d9 1C       		.byte	28
 880 01da 08       		.byte	8
 881 01db 08       		.byte	8
 882 01dc 1C       		.byte	28
 883 01dd 2A       		.byte	42
 884 01de 08       		.byte	8
 885 01df 08       		.byte	8
 886              		.text
 887              	.Letext0:
 888              		.file 2 "Generated_Source\\PSoC4/cytypes.h"
 889              		.file 3 "Generated_Source\\PSoC4/ledStrip.h"
 890              		.file 4 "Generated_Source\\PSoC4/BLE_Stack.h"