ARM GAS  C:\Users\Tymek\AppData\Local\Temp\cc8hQ52T.s 			page 1


   1              		.syntax unified
   2              		.cpu cortex-m0
   3              		.fpu softvfp
   4              		.eabi_attribute 20, 1
   5              		.eabi_attribute 21, 1
   6              		.eabi_attribute 23, 3
   7              		.eabi_attribute 24, 1
   8              		.eabi_attribute 25, 1
   9              		.eabi_attribute 26, 1
  10              		.eabi_attribute 30, 1
  11              		.eabi_attribute 34, 0
  12              		.eabi_attribute 18, 4
  13              		.thumb
  14              		.syntax unified
  15              		.file	"main.c"
  16              		.text
  17              	.Ltext0:
  18              		.cfi_sections	.debug_frame
  19              		.section	.text.sqwPin_isr_Handler,"ax",%progbits
  20              		.align	2
  21              		.global	sqwPin_isr_Handler
  22              		.code	16
  23              		.thumb_func
  24              		.type	sqwPin_isr_Handler, %function
  25              	sqwPin_isr_Handler:
  26              	.LFB36:
  27              		.file 1 "main.c"
   1:main.c        **** /* ========================================
   2:main.c        ****  *
   3:main.c        ****  * Copyright Tymek Feldman, 2019
   4:main.c        ****  * All Rights Reserved
   5:main.c        ****  *
   6:main.c        ****  * ========================================
   7:main.c        **** */
   8:main.c        **** 
   9:main.c        **** #include "project.h"
  10:main.c        **** #include <stdio.h>
  11:main.c        **** 
  12:main.c        **** //#define DEBUG_MODE      1         // Comment to disable debug prints
  13:main.c        **** #define TEMP_ENABLE       1         // Comment to disable temperature reading
  14:main.c        **** 
  15:main.c        **** #define I2C_ADDRESS 0b1101000       // I2C address of RTC IC DS3231
  16:main.c        **** 
  17:main.c        **** /* define the test register to switch the PA/LNA hardware control pins */
  18:main.c        **** #define CYREG_SRSS_TST_DDFT_CTRL 0x40030008
  19:main.c        **** 
  20:main.c        **** #define HOURS       0               // Array indices for readability
  21:main.c        **** #define MINUTES     1               // ^
  22:main.c        **** #define SECONDS     2               // ^
  23:main.c        **** #define TRUE        1
  24:main.c        **** #define FALSE       0
  25:main.c        **** #define RED         0x0000FF00      // RGB Color definitions
  26:main.c        **** #define GREEN       0x000000FF      // ^
  27:main.c        **** #define BLUE        0x00FF0000      // ^
  28:main.c        **** 
  29:main.c        **** uint8 time[3];                      // Time array H:M:S
  30:main.c        **** uint8 setColor[3];                  // Color array R:G:B
ARM GAS  C:\Users\Tymek\AppData\Local\Temp\cc8hQ52T.s 			page 2


  31:main.c        **** uint32 setColorFull = RED;          // Converted color variable from the above array
  32:main.c        **** uint8 lampState = FALSE;            // Lamp mode On/Off
  33:main.c        **** uint8 brightness = 0;               // Brightness (not used)
  34:main.c        **** _Bool colorUpdated = FALSE;         // Changed color flag
  35:main.c        **** _Bool itsDark = FALSE;              // Shows whether it's dark or not
  36:main.c        **** volatile _Bool sqwFired = FALSE;    // SQW pin flag, set inside ISR
  37:main.c        **** #ifdef TEMP_ENABLE
  38:main.c        ****     uint8 states[5];                    // 5 bytes containing states which are sent over BLE:
  39:main.c        **** //       Bytes   |    1st    |  2nd  |  3rd  |   4th  |   5th  |
  40:main.c        **** //       Values  | lampState |  PIR  |  LDR  | TempHI | TempLO |
  41:main.c        **** #else
  42:main.c        ****     uint8 states[3];                    // 3 bytes containing states which are sent over BLE:
  43:main.c        **** //       Bytes   |    1st    |  2nd  |  3rd  |
  44:main.c        **** //       Values  | lampState |  PIR  |  LDR  |
  45:main.c        **** #endif
  46:main.c        **** 
  47:main.c        **** CY_ISR(sqwPin_isr_Handler){
  28              		.loc 1 47 0
  29              		.cfi_startproc
  30              		@ args = 0, pretend = 0, frame = 0
  31              		@ frame_needed = 0, uses_anonymous_args = 0
  32 0000 10B5     		push	{r4, lr}
  33              		.cfi_def_cfa_offset 8
  34              		.cfi_offset 4, -8
  35              		.cfi_offset 14, -4
  48:main.c        **** // ISR of SQW pin interrupt: set flag and clear interrupt
  49:main.c        **** // runs every second from RTC
  50:main.c        ****     sqwFired = TRUE;
  36              		.loc 1 50 0
  37 0002 0122     		movs	r2, #1
  38 0004 024B     		ldr	r3, .L2
  39 0006 1A70     		strb	r2, [r3]
  51:main.c        ****     sqwPin_ClearInterrupt();
  40              		.loc 1 51 0
  41 0008 FFF7FEFF 		bl	sqwPin_ClearInterrupt
  42              	.LVL0:
  52:main.c        **** }
  43              		.loc 1 52 0
  44              		@ sp needed
  45 000c 10BD     		pop	{r4, pc}
  46              	.L3:
  47 000e C046     		.align	2
  48              	.L2:
  49 0010 00000000 		.word	.LANCHOR0
  50              		.cfi_endproc
  51              	.LFE36:
  52              		.size	sqwPin_isr_Handler, .-sqwPin_isr_Handler
  53              		.section	.text.updateCharacteristics,"ax",%progbits
  54              		.align	2
  55              		.global	updateCharacteristics
  56              		.code	16
  57              		.thumb_func
  58              		.type	updateCharacteristics, %function
  59              	updateCharacteristics:
  60              	.LFB37:
  53:main.c        **** 
  54:main.c        **** // Update Bluetooth data
ARM GAS  C:\Users\Tymek\AppData\Local\Temp\cc8hQ52T.s 			page 3


  55:main.c        **** void updateCharacteristics(uint8* passedData, uint8 len, uint16 attrHandle){
  61              		.loc 1 55 0
  62              		.cfi_startproc
  63              		@ args = 0, pretend = 0, frame = 16
  64              		@ frame_needed = 0, uses_anonymous_args = 0
  65              	.LVL1:
  66 0000 10B5     		push	{r4, lr}
  67              		.cfi_def_cfa_offset 8
  68              		.cfi_offset 4, -8
  69              		.cfi_offset 14, -4
  70 0002 84B0     		sub	sp, sp, #16
  71              		.cfi_def_cfa_offset 24
  56:main.c        ****     CYBLE_GATT_HANDLE_VALUE_PAIR_T handleVar;
  57:main.c        ****     handleVar.attrHandle = attrHandle;
  72              		.loc 1 57 0
  73 0004 01AC     		add	r4, sp, #4
  74 0006 2281     		strh	r2, [r4, #8]
  58:main.c        ****     handleVar.value.val = passedData;
  75              		.loc 1 58 0
  76 0008 0190     		str	r0, [sp, #4]
  59:main.c        ****     handleVar.value.len = len;
  77              		.loc 1 59 0
  78 000a A180     		strh	r1, [r4, #4]
  60:main.c        ****     CyBle_GattsWriteAttributeValue(&handleVar, 0, &cyBle_connHandle, CYBLE_GATT_DB_PEER_INITIATED);
  79              		.loc 1 60 0
  80 000c 4023     		movs	r3, #64
  81 000e 034A     		ldr	r2, .L5
  82              	.LVL2:
  83 0010 0021     		movs	r1, #0
  84              	.LVL3:
  85 0012 2000     		movs	r0, r4
  86              	.LVL4:
  87 0014 FFF7FEFF 		bl	CyBle_GattsWriteAttributeValue
  88              	.LVL5:
  61:main.c        **** }
  89              		.loc 1 61 0
  90 0018 04B0     		add	sp, sp, #16
  91              		@ sp needed
  92 001a 10BD     		pop	{r4, pc}
  93              	.L6:
  94              		.align	2
  95              	.L5:
  96 001c 00000000 		.word	cyBle_connHandle
  97              		.cfi_endproc
  98              	.LFE37:
  99              		.size	updateCharacteristics, .-updateCharacteristics
 100              		.global	__aeabi_uidiv
 101              		.global	__aeabi_uidivmod
 102              		.section	.text.setTime,"ax",%progbits
 103              		.align	2
 104              		.global	setTime
 105              		.code	16
 106              		.thumb_func
 107              		.type	setTime, %function
 108              	setTime:
 109              	.LFB38:
  62:main.c        **** 
ARM GAS  C:\Users\Tymek\AppData\Local\Temp\cc8hQ52T.s 			page 4


  63:main.c        **** // Set RTC to time from Bluetooth data
  64:main.c        **** void setTime(uint8* timeData){
 110              		.loc 1 64 0
 111              		.cfi_startproc
 112              		@ args = 0, pretend = 0, frame = 0
 113              		@ frame_needed = 0, uses_anonymous_args = 0
 114              	.LVL6:
 115 0000 70B5     		push	{r4, r5, r6, lr}
 116              		.cfi_def_cfa_offset 16
 117              		.cfi_offset 4, -16
 118              		.cfi_offset 5, -12
 119              		.cfi_offset 6, -8
 120              		.cfi_offset 14, -4
 121 0002 0400     		movs	r4, r0
  65:main.c        ****     // Convert time to a format which the device uses, as described in the datasheet
  66:main.c        ****     timeData[SECONDS] = (timeData[SECONDS] % 10) | ((timeData[SECONDS] / 10) << 4);
 122              		.loc 1 66 0
 123 0004 8678     		ldrb	r6, [r0, #2]
 124 0006 0A21     		movs	r1, #10
 125 0008 3000     		movs	r0, r6
 126              	.LVL7:
 127 000a FFF7FEFF 		bl	__aeabi_uidiv
 128              	.LVL8:
 129 000e C5B2     		uxtb	r5, r0
 130 0010 2D01     		lsls	r5, r5, #4
 131 0012 0A21     		movs	r1, #10
 132 0014 3000     		movs	r0, r6
 133 0016 FFF7FEFF 		bl	__aeabi_uidivmod
 134              	.LVL9:
 135 001a 0D43     		orrs	r5, r1
 136 001c A570     		strb	r5, [r4, #2]
  67:main.c        ****     timeData[MINUTES] = (timeData[MINUTES] % 10) | ((timeData[MINUTES] / 10) << 4);
 137              		.loc 1 67 0
 138 001e 6678     		ldrb	r6, [r4, #1]
 139 0020 0A21     		movs	r1, #10
 140 0022 3000     		movs	r0, r6
 141 0024 FFF7FEFF 		bl	__aeabi_uidiv
 142              	.LVL10:
 143 0028 C5B2     		uxtb	r5, r0
 144 002a 2D01     		lsls	r5, r5, #4
 145 002c 0A21     		movs	r1, #10
 146 002e 3000     		movs	r0, r6
 147 0030 FFF7FEFF 		bl	__aeabi_uidivmod
 148              	.LVL11:
 149 0034 0D43     		orrs	r5, r1
 150 0036 6570     		strb	r5, [r4, #1]
  68:main.c        ****     // Bit 6 of the hours register sets the 12h mode, instead of 24h
  69:main.c        ****     timeData[HOURS]   = (timeData[HOURS] % 10)   | ((timeData[HOURS]   / 10) << 4) | (1 << 6);
 151              		.loc 1 69 0
 152 0038 2678     		ldrb	r6, [r4]
 153 003a 0A21     		movs	r1, #10
 154 003c 3000     		movs	r0, r6
 155 003e FFF7FEFF 		bl	__aeabi_uidiv
 156              	.LVL12:
 157 0042 C5B2     		uxtb	r5, r0
 158 0044 2D01     		lsls	r5, r5, #4
 159 0046 0A21     		movs	r1, #10
ARM GAS  C:\Users\Tymek\AppData\Local\Temp\cc8hQ52T.s 			page 5


 160 0048 3000     		movs	r0, r6
 161 004a FFF7FEFF 		bl	__aeabi_uidivmod
 162              	.LVL13:
 163 004e 0D43     		orrs	r5, r1
 164 0050 4021     		movs	r1, #64
 165 0052 0D43     		orrs	r5, r1
 166 0054 2570     		strb	r5, [r4]
  70:main.c        ****     
  71:main.c        ****     #ifdef DEBUG_MODE
  72:main.c        ****         char buf[20];
  73:main.c        ****         sprintf(buf, "h:%d m:%d s:%d\n\r", timeData[HOURS], timeData[MINUTES], timeData[SECONDS]);
  74:main.c        ****         UART_UartPutString("After conv: ");
  75:main.c        ****         UART_UartPutString(buf);
  76:main.c        ****     #endif
  77:main.c        ****     
  78:main.c        ****     I2C_I2CMasterSendStart(I2C_ADDRESS, I2C_I2C_WRITE_XFER_MODE);
 167              		.loc 1 78 0
 168 0056 0021     		movs	r1, #0
 169 0058 6820     		movs	r0, #104
 170 005a FFF7FEFF 		bl	I2C_I2CMasterSendStart
 171              	.LVL14:
  79:main.c        ****     I2C_I2CMasterWriteByte(0);      // Start at register 0
 172              		.loc 1 79 0
 173 005e 0020     		movs	r0, #0
 174 0060 FFF7FEFF 		bl	I2C_I2CMasterWriteByte
 175              	.LVL15:
  80:main.c        ****     // Send time here
  81:main.c        ****     I2C_I2CMasterWriteByte(timeData[SECONDS]);
 176              		.loc 1 81 0
 177 0064 A078     		ldrb	r0, [r4, #2]
 178 0066 FFF7FEFF 		bl	I2C_I2CMasterWriteByte
 179              	.LVL16:
  82:main.c        ****     I2C_I2CMasterWriteByte(timeData[MINUTES]);
 180              		.loc 1 82 0
 181 006a 6078     		ldrb	r0, [r4, #1]
 182 006c FFF7FEFF 		bl	I2C_I2CMasterWriteByte
 183              	.LVL17:
  83:main.c        ****     I2C_I2CMasterWriteByte(timeData[HOURS]);
 184              		.loc 1 83 0
 185 0070 2078     		ldrb	r0, [r4]
 186 0072 FFF7FEFF 		bl	I2C_I2CMasterWriteByte
 187              	.LVL18:
  84:main.c        ****     I2C_I2CMasterSendStop();
 188              		.loc 1 84 0
 189 0076 FFF7FEFF 		bl	I2C_I2CMasterSendStop
 190              	.LVL19:
  85:main.c        **** }
 191              		.loc 1 85 0
 192              		@ sp needed
 193              	.LVL20:
 194 007a 70BD     		pop	{r4, r5, r6, pc}
 195              		.cfi_endproc
 196              	.LFE38:
 197              		.size	setTime, .-setTime
 198              		.section	.text.bleEventHandler,"ax",%progbits
 199              		.align	2
 200              		.global	bleEventHandler
ARM GAS  C:\Users\Tymek\AppData\Local\Temp\cc8hQ52T.s 			page 6


 201              		.code	16
 202              		.thumb_func
 203              		.type	bleEventHandler, %function
 204              	bleEventHandler:
 205              	.LFB40:
  86:main.c        **** 
  87:main.c        **** void readTime(){
  88:main.c        ****     // First tell to start at register 0
  89:main.c        ****     I2C_I2CMasterSendStart(I2C_ADDRESS, I2C_I2C_WRITE_XFER_MODE);
  90:main.c        ****     I2C_I2CMasterWriteByte(0);
  91:main.c        ****     I2C_I2CMasterSendRestart(I2C_ADDRESS, I2C_I2C_READ_XFER_MODE);
  92:main.c        ****     // Now actually read, starting at register 0
  93:main.c        ****     time[SECONDS]   = I2C_I2CMasterReadByte(I2C_I2C_ACK_DATA);
  94:main.c        ****     time[MINUTES]   = I2C_I2CMasterReadByte(I2C_I2C_ACK_DATA);
  95:main.c        ****     time[HOURS] = I2C_I2CMasterReadByte(I2C_I2C_NAK_DATA);
  96:main.c        ****     I2C_I2CMasterSendStop();
  97:main.c        ****     
  98:main.c        ****     // Convert read time to normal format
  99:main.c        ****     time[SECONDS] = (time[SECONDS] & 0x0F) + (((time[SECONDS] & 0x70) >> 4) * 10);
 100:main.c        ****     time[MINUTES] = (time[MINUTES] & 0x0F) + (((time[MINUTES] & 0x70) >> 4) * 10);
 101:main.c        ****     time[HOURS]   = (time[HOURS]   & 0x0F) + (((time[HOURS]   & 0x10) >> 4) * 10);
 102:main.c        **** 
 103:main.c        ****     updateCharacteristics(time, sizeof(time), CYBLE_SET_TIME_TIME_CHAR_HANDLE);
 104:main.c        **** }
 105:main.c        **** 
 106:main.c        **** void bleEventHandler(uint32 event, void * eventParam){
 206              		.loc 1 106 0
 207              		.cfi_startproc
 208              		@ args = 0, pretend = 0, frame = 8
 209              		@ frame_needed = 0, uses_anonymous_args = 0
 210              	.LVL21:
 211 0000 10B5     		push	{r4, lr}
 212              		.cfi_def_cfa_offset 8
 213              		.cfi_offset 4, -8
 214              		.cfi_offset 14, -4
 215 0002 82B0     		sub	sp, sp, #8
 216              		.cfi_def_cfa_offset 16
 107:main.c        ****     // Main Bluetooth event handler: handles connections and reads data
 108:main.c        ****     
 109:main.c        ****     CYBLE_GATTS_WRITE_REQ_PARAM_T *wrReqParam;
 110:main.c        ****     switch(event){
 217              		.loc 1 110 0
 218 0004 2828     		cmp	r0, #40
 219 0006 12D0     		beq	.L10
 220 0008 4C28     		cmp	r0, #76
 221 000a 14D0     		beq	.L11
 222 000c 0128     		cmp	r0, #1
 223 000e 59D1     		bne	.L8
 111:main.c        ****         case CYBLE_EVT_STACK_ON:
 112:main.c        ****         // BLE stack is on
 113:main.c        ****         
 114:main.c        ****         // From page 16 of the CYBLE-224110-00 datasheet:
 115:main.c        ****         // Enable the Skyworks SE2438T PA/LNA
 116:main.c        ****         CSD_Write(1); // PA/LNA Mode 3, both CSD and CPS have to be 1 for BLE to work correctly
 224              		.loc 1 116 0
 225 0010 FFF7FEFF 		bl	CSD_Write
 226              	.LVL22:
ARM GAS  C:\Users\Tymek\AppData\Local\Temp\cc8hQ52T.s 			page 7


 117:main.c        ****         CPS_Write(1); // ^
 227              		.loc 1 117 0
 228 0014 0120     		movs	r0, #1
 229 0016 FFF7FEFF 		bl	CPS_Write
 230              	.LVL23:
 118:main.c        ****         // Configure the Link Layer to automatically switch PA control pin P3[2] and LNA control pi
 119:main.c        ****         CY_SET_XTND_REG32((void CYFAR *)(CYREG_BLE_BLESS_RF_CONFIG), 0x0331);
 231              		.loc 1 119 0
 232 001a 2B4A     		ldr	r2, .L16
 233 001c 2B4B     		ldr	r3, .L16+4
 234 001e 1A60     		str	r2, [r3]
 120:main.c        ****         CY_SET_XTND_REG32((void CYFAR *)(CYREG_SRSS_TST_DDFT_CTRL), 0x80000302);
 235              		.loc 1 120 0
 236 0020 2B4A     		ldr	r2, .L16+8
 237 0022 2C4B     		ldr	r3, .L16+12
 238 0024 1A60     		str	r2, [r3]
 121:main.c        ****         
 122:main.c        ****         CyBle_GappStartAdvertisement(CYBLE_ADVERTISING_FAST);
 239              		.loc 1 122 0
 240 0026 0020     		movs	r0, #0
 241 0028 FFF7FEFF 		bl	CyBle_GappStartAdvertisement
 242              	.LVL24:
 123:main.c        ****         break;
 243              		.loc 1 123 0
 244 002c 4AE0     		b	.L8
 245              	.LVL25:
 246              	.L10:
 124:main.c        ****         
 125:main.c        ****         case CYBLE_EVT_GATT_CONNECT_IND:
 126:main.c        ****         // BLE connection
 127:main.c        ****         #ifdef DEBUG_MODE
 128:main.c        ****             UART_UartPutString("BT is connected\n\r");
 129:main.c        ****         #endif
 130:main.c        ****         break;
 131:main.c        ****         
 132:main.c        ****         case CYBLE_EVT_GAP_DEVICE_DISCONNECTED:
 133:main.c        ****         // BLE disconnection
 134:main.c        ****         #ifdef DEBUG_MODE
 135:main.c        ****             UART_UartPutString("BT is disconnected\n\r");
 136:main.c        ****         #endif
 137:main.c        ****         CyBle_GappStartAdvertisement(CYBLE_ADVERTISING_FAST);
 247              		.loc 1 137 0
 248 002e 0020     		movs	r0, #0
 249              	.LVL26:
 250 0030 FFF7FEFF 		bl	CyBle_GappStartAdvertisement
 251              	.LVL27:
 138:main.c        ****         break;
 252              		.loc 1 138 0
 253 0034 46E0     		b	.L8
 254              	.LVL28:
 255              	.L11:
 139:main.c        ****         
 140:main.c        ****         case CYBLE_EVT_GATTS_WRITE_REQ:
 141:main.c        ****         // Receiving data: parameter ‘eventParam’ contains the data written
 142:main.c        ****         wrReqParam = (CYBLE_GATTS_WRITE_REQ_PARAM_T *) eventParam;
 143:main.c        ****         
 144:main.c        ****         if(wrReqParam->handleValPair.attrHandle == CYBLE_SET_TIME_TIME_CHAR_HANDLE){
ARM GAS  C:\Users\Tymek\AppData\Local\Temp\cc8hQ52T.s 			page 8


 256              		.loc 1 144 0
 257 0036 8B89     		ldrh	r3, [r1, #12]
 258 0038 122B     		cmp	r3, #18
 259 003a 10D1     		bne	.L13
 260              	.LBB2:
 145:main.c        ****             // Receive time from Bluetooth in normal format
 146:main.c        ****             uint8 tempTime[3];
 147:main.c        ****             tempTime[HOURS]   = wrReqParam->handleValPair.value.val[0];
 261              		.loc 1 147 0
 262 003c 4B68     		ldr	r3, [r1, #4]
 263 003e 1A78     		ldrb	r2, [r3]
 264 0040 01AC     		add	r4, sp, #4
 265 0042 2270     		strb	r2, [r4]
 148:main.c        ****             tempTime[MINUTES] = wrReqParam->handleValPair.value.val[1];
 266              		.loc 1 148 0
 267 0044 5A78     		ldrb	r2, [r3, #1]
 268 0046 6270     		strb	r2, [r4, #1]
 149:main.c        ****             tempTime[SECONDS] = wrReqParam->handleValPair.value.val[2];
 269              		.loc 1 149 0
 270 0048 9B78     		ldrb	r3, [r3, #2]
 271 004a A370     		strb	r3, [r4, #2]
 150:main.c        ****             
 151:main.c        ****             updateCharacteristics(tempTime, sizeof(tempTime), CYBLE_SET_TIME_TIME_CHAR_HANDLE);
 272              		.loc 1 151 0
 273 004c 1222     		movs	r2, #18
 274 004e 0321     		movs	r1, #3
 275              	.LVL29:
 276 0050 2000     		movs	r0, r4
 277              	.LVL30:
 278 0052 FFF7FEFF 		bl	updateCharacteristics
 279              	.LVL31:
 152:main.c        ****             
 153:main.c        ****             #ifdef DEBUG_MODE
 154:main.c        ****                 char buf[20];
 155:main.c        ****                 sprintf(buf, "h:%d m:%d s:%d\n\r", tempTime[HOURS], tempTime[MINUTES], tempTime[SEC
 156:main.c        ****                 UART_UartPutString("Setting time to ");
 157:main.c        ****                 UART_UartPutString(buf);
 158:main.c        ****             #endif
 159:main.c        ****             
 160:main.c        ****             setTime(tempTime); // Send that time to RTC
 280              		.loc 1 160 0
 281 0056 2000     		movs	r0, r4
 282 0058 FFF7FEFF 		bl	setTime
 283              	.LVL32:
 284              	.LBE2:
 285 005c 2BE0     		b	.L14
 286              	.LVL33:
 287              	.L13:
 161:main.c        ****         }
 162:main.c        ****         
 163:main.c        ****         else if(wrReqParam->handleValPair.attrHandle == CYBLE_SET_COLOR_COLOR_CHAR_HANDLE){
 288              		.loc 1 163 0
 289 005e 162B     		cmp	r3, #22
 290 0060 29D1     		bne	.L14
 164:main.c        ****             // Receive lamp data: color + ON/OFF + brightness
 165:main.c        ****             setColor[0]     = wrReqParam->handleValPair.value.val[0]; //R
 291              		.loc 1 165 0
ARM GAS  C:\Users\Tymek\AppData\Local\Temp\cc8hQ52T.s 			page 9


 292 0062 4B68     		ldr	r3, [r1, #4]
 293 0064 1978     		ldrb	r1, [r3]
 294              	.LVL34:
 295 0066 1C4A     		ldr	r2, .L16+16
 296 0068 1170     		strb	r1, [r2]
 166:main.c        ****             setColor[1]     = wrReqParam->handleValPair.value.val[1]; //G
 297              		.loc 1 166 0
 298 006a 5978     		ldrb	r1, [r3, #1]
 299 006c 5170     		strb	r1, [r2, #1]
 167:main.c        ****             setColor[2]     = wrReqParam->handleValPair.value.val[2]; //B
 300              		.loc 1 167 0
 301 006e 9978     		ldrb	r1, [r3, #2]
 302 0070 9170     		strb	r1, [r2, #2]
 168:main.c        ****             lampState       = wrReqParam->handleValPair.value.val[3]; //Lamp On/Off
 303              		.loc 1 168 0
 304 0072 DA78     		ldrb	r2, [r3, #3]
 305 0074 1949     		ldr	r1, .L16+20
 306 0076 4A70     		strb	r2, [r1, #1]
 169:main.c        ****             brightness  = wrReqParam->handleValPair.value.val[4]; //Brightness (not used)
 307              		.loc 1 169 0
 308 0078 1B79     		ldrb	r3, [r3, #4]
 309 007a 8B70     		strb	r3, [r1, #2]
 170:main.c        ****             
 171:main.c        ****             if(lampState == 22){ // 0x16=d22 this is the bootloader start command
 310              		.loc 1 171 0
 311 007c 162A     		cmp	r2, #22
 312 007e 06D1     		bne	.L15
 313              	.LBB3:
 172:main.c        ****                 #ifdef DEBUG_MODE
 173:main.c        ****                     UART_UartPutString("Entering OTA update mode\n\r");
 174:main.c        ****                 #endif
 175:main.c        ****                 // Enter bootloader mode
 176:main.c        ****                 Bootloadable_SetActiveApplication(0);
 314              		.loc 1 176 0
 315 0080 0020     		movs	r0, #0
 316              	.LVL35:
 317 0082 FFF7FEFF 		bl	Bootloadable_SetActiveApplication
 318              	.LVL36:
 177:main.c        ****                 Bootloadable_Load();
 319              		.loc 1 177 0
 320 0086 FFF7FEFF 		bl	Bootloadable_Load
 321              	.LVL37:
 178:main.c        ****                 CySoftwareReset();
 322              		.loc 1 178 0
 323 008a FFF7FEFF 		bl	CySoftwareReset
 324              	.LVL38:
 325              	.L15:
 326              	.LBE3:
 179:main.c        ****             }
 180:main.c        ****             
 181:main.c        ****             // Convert to correct 32 bit format (0x00BBRRGG)
 182:main.c        ****             setColorFull = (setColor[1] | (setColor[0] << 8) | (setColor[2] << 16));
 327              		.loc 1 182 0
 328 008e 124A     		ldr	r2, .L16+16
 329 0090 5178     		ldrb	r1, [r2, #1]
 330 0092 1378     		ldrb	r3, [r2]
 331 0094 1B02     		lsls	r3, r3, #8
ARM GAS  C:\Users\Tymek\AppData\Local\Temp\cc8hQ52T.s 			page 10


 332 0096 0B43     		orrs	r3, r1
 333 0098 9278     		ldrb	r2, [r2, #2]
 334 009a 1204     		lsls	r2, r2, #16
 335 009c 1343     		orrs	r3, r2
 336 009e 104A     		ldr	r2, .L16+24
 337 00a0 1360     		str	r3, [r2]
 183:main.c        ****             colorUpdated = TRUE;
 338              		.loc 1 183 0
 339 00a2 0E4B     		ldr	r3, .L16+20
 340 00a4 0122     		movs	r2, #1
 341 00a6 DA70     		strb	r2, [r3, #3]
 184:main.c        ****             
 185:main.c        ****             states[0] = lampState;
 342              		.loc 1 185 0
 343 00a8 0E48     		ldr	r0, .L16+28
 344 00aa 5B78     		ldrb	r3, [r3, #1]
 345 00ac 0370     		strb	r3, [r0]
 186:main.c        ****             updateCharacteristics(states, sizeof(states), CYBLE_SET_COLOR_COLOR_CHAR_HANDLE);
 346              		.loc 1 186 0
 347 00ae 1532     		adds	r2, r2, #21
 348 00b0 0521     		movs	r1, #5
 349 00b2 FFF7FEFF 		bl	updateCharacteristics
 350              	.LVL39:
 351              	.L14:
 187:main.c        ****             
 188:main.c        ****             #ifdef DEBUG_MODE
 189:main.c        ****                 char buf[21];
 190:main.c        ****                 sprintf(buf, "%d:%d:%d:%d:%d\n\r",
 191:main.c        ****                         setColor[0], setColor[1], setColor[2], lampState, brightness);
 192:main.c        ****                 UART_UartPutString("Color+state+brig: ");
 193:main.c        ****                 UART_UartPutString(buf);
 194:main.c        ****             #endif
 195:main.c        ****         }
 196:main.c        ****         // Send response
 197:main.c        ****         CyBle_GattsWriteRsp(cyBle_connHandle);
 352              		.loc 1 197 0
 353 00b6 0C4A     		ldr	r2, .L16+32
 354 00b8 1378     		ldrb	r3, [r2]
 355 00ba 5078     		ldrb	r0, [r2, #1]
 356 00bc 0002     		lsls	r0, r0, #8
 357 00be 1843     		orrs	r0, r3
 358 00c0 FFF7FEFF 		bl	CyBle_GattsWriteRsp
 359              	.LVL40:
 360              	.L8:
 198:main.c        ****         break;
 199:main.c        ****         
 200:main.c        ****         default:
 201:main.c        ****         break;
 202:main.c        ****     }
 203:main.c        **** }
 361              		.loc 1 203 0
 362 00c4 02B0     		add	sp, sp, #8
 363              		@ sp needed
 364 00c6 10BD     		pop	{r4, pc}
 365              	.L17:
 366              		.align	2
 367              	.L16:
ARM GAS  C:\Users\Tymek\AppData\Local\Temp\cc8hQ52T.s 			page 11


 368 00c8 31030000 		.word	817
 369 00cc 60F02E40 		.word	1076818016
 370 00d0 02030080 		.word	-2147482878
 371 00d4 08000340 		.word	1073938440
 372 00d8 00000000 		.word	setColor
 373 00dc 00000000 		.word	.LANCHOR0
 374 00e0 00000000 		.word	.LANCHOR1
 375 00e4 00000000 		.word	states
 376 00e8 00000000 		.word	cyBle_connHandle
 377              		.cfi_endproc
 378              	.LFE40:
 379              		.size	bleEventHandler, .-bleEventHandler
 380              		.section	.text.readTime,"ax",%progbits
 381              		.align	2
 382              		.global	readTime
 383              		.code	16
 384              		.thumb_func
 385              		.type	readTime, %function
 386              	readTime:
 387              	.LFB39:
  87:main.c        ****     // First tell to start at register 0
 388              		.loc 1 87 0
 389              		.cfi_startproc
 390              		@ args = 0, pretend = 0, frame = 0
 391              		@ frame_needed = 0, uses_anonymous_args = 0
 392 0000 70B5     		push	{r4, r5, r6, lr}
 393              		.cfi_def_cfa_offset 16
 394              		.cfi_offset 4, -16
 395              		.cfi_offset 5, -12
 396              		.cfi_offset 6, -8
 397              		.cfi_offset 14, -4
  89:main.c        ****     I2C_I2CMasterWriteByte(0);
 398              		.loc 1 89 0
 399 0002 0021     		movs	r1, #0
 400 0004 6820     		movs	r0, #104
 401 0006 FFF7FEFF 		bl	I2C_I2CMasterSendStart
 402              	.LVL41:
  90:main.c        ****     I2C_I2CMasterSendRestart(I2C_ADDRESS, I2C_I2C_READ_XFER_MODE);
 403              		.loc 1 90 0
 404 000a 0020     		movs	r0, #0
 405 000c FFF7FEFF 		bl	I2C_I2CMasterWriteByte
 406              	.LVL42:
  91:main.c        ****     // Now actually read, starting at register 0
 407              		.loc 1 91 0
 408 0010 0121     		movs	r1, #1
 409 0012 6820     		movs	r0, #104
 410 0014 FFF7FEFF 		bl	I2C_I2CMasterSendRestart
 411              	.LVL43:
  93:main.c        ****     time[MINUTES]   = I2C_I2CMasterReadByte(I2C_I2C_ACK_DATA);
 412              		.loc 1 93 0
 413 0018 0020     		movs	r0, #0
 414 001a FFF7FEFF 		bl	I2C_I2CMasterReadByte
 415              	.LVL44:
 416 001e 184C     		ldr	r4, .L19
 417 0020 A070     		strb	r0, [r4, #2]
  94:main.c        ****     time[HOURS] = I2C_I2CMasterReadByte(I2C_I2C_NAK_DATA);
 418              		.loc 1 94 0
ARM GAS  C:\Users\Tymek\AppData\Local\Temp\cc8hQ52T.s 			page 12


 419 0022 0020     		movs	r0, #0
 420 0024 FFF7FEFF 		bl	I2C_I2CMasterReadByte
 421              	.LVL45:
 422 0028 6070     		strb	r0, [r4, #1]
  95:main.c        ****     I2C_I2CMasterSendStop();
 423              		.loc 1 95 0
 424 002a 0120     		movs	r0, #1
 425 002c FFF7FEFF 		bl	I2C_I2CMasterReadByte
 426              	.LVL46:
 427 0030 2070     		strb	r0, [r4]
  96:main.c        ****     
 428              		.loc 1 96 0
 429 0032 FFF7FEFF 		bl	I2C_I2CMasterSendStop
 430              	.LVL47:
  99:main.c        ****     time[MINUTES] = (time[MINUTES] & 0x0F) + (((time[MINUTES] & 0x70) >> 4) * 10);
 431              		.loc 1 99 0
 432 0036 A278     		ldrb	r2, [r4, #2]
 433 0038 1111     		asrs	r1, r2, #4
 434 003a 0725     		movs	r5, #7
 435 003c 2940     		ands	r1, r5
 436 003e 8800     		lsls	r0, r1, #2
 437 0040 0918     		adds	r1, r1, r0
 438 0042 4B00     		lsls	r3, r1, #1
 439 0044 0F20     		movs	r0, #15
 440 0046 0240     		ands	r2, r0
 441 0048 9A18     		adds	r2, r3, r2
 442 004a A270     		strb	r2, [r4, #2]
 100:main.c        ****     time[HOURS]   = (time[HOURS]   & 0x0F) + (((time[HOURS]   & 0x10) >> 4) * 10);
 443              		.loc 1 100 0
 444 004c 6278     		ldrb	r2, [r4, #1]
 445 004e 1311     		asrs	r3, r2, #4
 446 0050 2B40     		ands	r3, r5
 447 0052 9900     		lsls	r1, r3, #2
 448 0054 5B18     		adds	r3, r3, r1
 449 0056 5900     		lsls	r1, r3, #1
 450 0058 0240     		ands	r2, r0
 451 005a 8A18     		adds	r2, r1, r2
 452 005c 6270     		strb	r2, [r4, #1]
 101:main.c        **** 
 453              		.loc 1 101 0
 454 005e 2378     		ldrb	r3, [r4]
 455 0060 1A11     		asrs	r2, r3, #4
 456 0062 0121     		movs	r1, #1
 457 0064 0A40     		ands	r2, r1
 458 0066 9100     		lsls	r1, r2, #2
 459 0068 5218     		adds	r2, r2, r1
 460 006a 5100     		lsls	r1, r2, #1
 461 006c 0340     		ands	r3, r0
 462 006e CB18     		adds	r3, r1, r3
 463 0070 2370     		strb	r3, [r4]
 103:main.c        **** }
 464              		.loc 1 103 0
 465 0072 1222     		movs	r2, #18
 466 0074 0321     		movs	r1, #3
 467 0076 2000     		movs	r0, r4
 468 0078 FFF7FEFF 		bl	updateCharacteristics
 469              	.LVL48:
ARM GAS  C:\Users\Tymek\AppData\Local\Temp\cc8hQ52T.s 			page 13


 104:main.c        **** 
 470              		.loc 1 104 0
 471              		@ sp needed
 472 007c 70BD     		pop	{r4, r5, r6, pc}
 473              	.L20:
 474 007e C046     		.align	2
 475              	.L19:
 476 0080 00000000 		.word	time
 477              		.cfi_endproc
 478              	.LFE39:
 479              		.size	readTime, .-readTime
 480              		.section	.text.initRTC,"ax",%progbits
 481              		.align	2
 482              		.global	initRTC
 483              		.code	16
 484              		.thumb_func
 485              		.type	initRTC, %function
 486              	initRTC:
 487              	.LFB41:
 204:main.c        **** 
 205:main.c        **** void initRTC(){
 488              		.loc 1 205 0
 489              		.cfi_startproc
 490              		@ args = 0, pretend = 0, frame = 0
 491              		@ frame_needed = 0, uses_anonymous_args = 0
 492 0000 10B5     		push	{r4, lr}
 493              		.cfi_def_cfa_offset 8
 494              		.cfi_offset 4, -8
 495              		.cfi_offset 14, -4
 206:main.c        ****     // SQW output at 1Hz + one time read
 207:main.c        ****     I2C_I2CMasterSendStart(I2C_ADDRESS, I2C_I2C_WRITE_XFER_MODE);
 496              		.loc 1 207 0
 497 0002 0021     		movs	r1, #0
 498 0004 6820     		movs	r0, #104
 499 0006 FFF7FEFF 		bl	I2C_I2CMasterSendStart
 500              	.LVL49:
 208:main.c        ****     I2C_I2CMasterWriteByte(0x0E);
 501              		.loc 1 208 0
 502 000a 0E20     		movs	r0, #14
 503 000c FFF7FEFF 		bl	I2C_I2CMasterWriteByte
 504              	.LVL50:
 209:main.c        ****     I2C_I2CMasterWriteByte(0);
 505              		.loc 1 209 0
 506 0010 0020     		movs	r0, #0
 507 0012 FFF7FEFF 		bl	I2C_I2CMasterWriteByte
 508              	.LVL51:
 210:main.c        ****     I2C_I2CMasterSendStop();
 509              		.loc 1 210 0
 510 0016 FFF7FEFF 		bl	I2C_I2CMasterSendStop
 511              	.LVL52:
 211:main.c        ****     readTime();
 512              		.loc 1 211 0
 513 001a FFF7FEFF 		bl	readTime
 514              	.LVL53:
 212:main.c        **** }
 515              		.loc 1 212 0
 516              		@ sp needed
ARM GAS  C:\Users\Tymek\AppData\Local\Temp\cc8hQ52T.s 			page 14


 517 001e 10BD     		pop	{r4, pc}
 518              		.cfi_endproc
 519              	.LFE41:
 520              		.size	initRTC, .-initRTC
 521              		.section	.text.startTemp,"ax",%progbits
 522              		.align	2
 523              		.global	startTemp
 524              		.code	16
 525              		.thumb_func
 526              		.type	startTemp, %function
 527              	startTemp:
 528              	.LFB42:
 213:main.c        **** 
 214:main.c        **** void startTemp(){
 529              		.loc 1 214 0
 530              		.cfi_startproc
 531              		@ args = 0, pretend = 0, frame = 0
 532              		@ frame_needed = 0, uses_anonymous_args = 0
 533 0000 70B5     		push	{r4, r5, r6, lr}
 534              		.cfi_def_cfa_offset 16
 535              		.cfi_offset 4, -16
 536              		.cfi_offset 5, -12
 537              		.cfi_offset 6, -8
 538              		.cfi_offset 14, -4
 215:main.c        ****     // Initiate a temperature reading on the DS3231
 216:main.c        ****     // First make sure that both bits CONV and BSY are 0,
 217:main.c        ****     // only then start a new reading
 218:main.c        **** 
 219:main.c        ****     // First read the status from registers 0x0E and 0x0F
 220:main.c        ****     I2C_I2CMasterSendStart(I2C_ADDRESS, I2C_I2C_WRITE_XFER_MODE);
 539              		.loc 1 220 0
 540 0002 0021     		movs	r1, #0
 541 0004 6820     		movs	r0, #104
 542 0006 FFF7FEFF 		bl	I2C_I2CMasterSendStart
 543              	.LVL54:
 221:main.c        ****     I2C_I2CMasterWriteByte(0x0E);
 544              		.loc 1 221 0
 545 000a 0E20     		movs	r0, #14
 546 000c FFF7FEFF 		bl	I2C_I2CMasterWriteByte
 547              	.LVL55:
 222:main.c        ****     I2C_I2CMasterSendRestart(I2C_ADDRESS, I2C_I2C_READ_XFER_MODE);
 548              		.loc 1 222 0
 549 0010 0121     		movs	r1, #1
 550 0012 6820     		movs	r0, #104
 551 0014 FFF7FEFF 		bl	I2C_I2CMasterSendRestart
 552              	.LVL56:
 223:main.c        ****     uint8 temp0E = I2C_I2CMasterReadByte(I2C_I2C_ACK_DATA);
 553              		.loc 1 223 0
 554 0018 0020     		movs	r0, #0
 555 001a FFF7FEFF 		bl	I2C_I2CMasterReadByte
 556              	.LVL57:
 557 001e 0400     		movs	r4, r0
 558              	.LVL58:
 224:main.c        ****     uint8 temp0F = I2C_I2CMasterReadByte(I2C_I2C_NAK_DATA);
 559              		.loc 1 224 0
 560 0020 0120     		movs	r0, #1
 561 0022 FFF7FEFF 		bl	I2C_I2CMasterReadByte
ARM GAS  C:\Users\Tymek\AppData\Local\Temp\cc8hQ52T.s 			page 15


 562              	.LVL59:
 563 0026 0500     		movs	r5, r0
 564              	.LVL60:
 225:main.c        ****     I2C_I2CMasterSendStop();
 565              		.loc 1 225 0
 566 0028 FFF7FEFF 		bl	I2C_I2CMasterSendStop
 567              	.LVL61:
 226:main.c        ****     if(!(temp0E & 0x20) && !(temp0F & 4)){
 568              		.loc 1 226 0
 569 002c A306     		lsls	r3, r4, #26
 570 002e 0DD4     		bmi	.L22
 571              		.loc 1 226 0 is_stmt 0 discriminator 1
 572 0030 6B07     		lsls	r3, r5, #29
 573 0032 0BD4     		bmi	.L22
 227:main.c        ****         // If no conversion is busy, start a fresh conversion
 228:main.c        ****         I2C_I2CMasterSendStart(I2C_ADDRESS, I2C_I2C_WRITE_XFER_MODE);
 574              		.loc 1 228 0 is_stmt 1
 575 0034 0021     		movs	r1, #0
 576 0036 6820     		movs	r0, #104
 577 0038 FFF7FEFF 		bl	I2C_I2CMasterSendStart
 578              	.LVL62:
 229:main.c        ****         I2C_I2CMasterWriteByte(0x0E);
 579              		.loc 1 229 0
 580 003c 0E20     		movs	r0, #14
 581 003e FFF7FEFF 		bl	I2C_I2CMasterWriteByte
 582              	.LVL63:
 230:main.c        ****         I2C_I2CMasterWriteByte(0x20); // 1 << 5 = 0x20, this is the CONV bit
 583              		.loc 1 230 0
 584 0042 2020     		movs	r0, #32
 585 0044 FFF7FEFF 		bl	I2C_I2CMasterWriteByte
 586              	.LVL64:
 231:main.c        ****         I2C_I2CMasterSendStop();
 587              		.loc 1 231 0
 588 0048 FFF7FEFF 		bl	I2C_I2CMasterSendStop
 589              	.LVL65:
 590              	.L22:
 232:main.c        ****     }
 233:main.c        **** }
 591              		.loc 1 233 0
 592              		@ sp needed
 593              	.LVL66:
 594              	.LVL67:
 595 004c 70BD     		pop	{r4, r5, r6, pc}
 596              		.cfi_endproc
 597              	.LFE42:
 598              		.size	startTemp, .-startTemp
 599 004e C046     		.section	.text.readTemp,"ax",%progbits
 600              		.align	2
 601              		.global	readTemp
 602              		.code	16
 603              		.thumb_func
 604              		.type	readTemp, %function
 605              	readTemp:
 606              	.LFB43:
 234:main.c        **** 
 235:main.c        **** void readTemp(){
 607              		.loc 1 235 0
ARM GAS  C:\Users\Tymek\AppData\Local\Temp\cc8hQ52T.s 			page 16


 608              		.cfi_startproc
 609              		@ args = 0, pretend = 0, frame = 0
 610              		@ frame_needed = 0, uses_anonymous_args = 0
 611 0000 70B5     		push	{r4, r5, r6, lr}
 612              		.cfi_def_cfa_offset 16
 613              		.cfi_offset 4, -16
 614              		.cfi_offset 5, -12
 615              		.cfi_offset 6, -8
 616              		.cfi_offset 14, -4
 236:main.c        ****     // Read the temperature from registers 0x11 and 0x11
 237:main.c        ****     I2C_I2CMasterSendStart(I2C_ADDRESS, I2C_I2C_WRITE_XFER_MODE);
 617              		.loc 1 237 0
 618 0002 0021     		movs	r1, #0
 619 0004 6820     		movs	r0, #104
 620 0006 FFF7FEFF 		bl	I2C_I2CMasterSendStart
 621              	.LVL68:
 238:main.c        ****     I2C_I2CMasterWriteByte(0x11);
 622              		.loc 1 238 0
 623 000a 1120     		movs	r0, #17
 624 000c FFF7FEFF 		bl	I2C_I2CMasterWriteByte
 625              	.LVL69:
 239:main.c        ****     I2C_I2CMasterSendRestart(I2C_ADDRESS, I2C_I2C_READ_XFER_MODE);
 626              		.loc 1 239 0
 627 0010 0121     		movs	r1, #1
 628 0012 6820     		movs	r0, #104
 629 0014 FFF7FEFF 		bl	I2C_I2CMasterSendRestart
 630              	.LVL70:
 240:main.c        ****     int8 tempMSB = I2C_I2CMasterReadByte(I2C_I2C_ACK_DATA);
 631              		.loc 1 240 0
 632 0018 0020     		movs	r0, #0
 633 001a FFF7FEFF 		bl	I2C_I2CMasterReadByte
 634              	.LVL71:
 635 001e 0500     		movs	r5, r0
 636              	.LVL72:
 241:main.c        ****     uint8 tempLSB = I2C_I2CMasterReadByte(I2C_I2C_NAK_DATA);
 637              		.loc 1 241 0
 638 0020 0120     		movs	r0, #1
 639 0022 FFF7FEFF 		bl	I2C_I2CMasterReadByte
 640              	.LVL73:
 641 0026 C4B2     		uxtb	r4, r0
 642              	.LVL74:
 242:main.c        ****     I2C_I2CMasterSendStop();
 643              		.loc 1 242 0
 644 0028 FFF7FEFF 		bl	I2C_I2CMasterSendStop
 645              	.LVL75:
 243:main.c        ****     #ifdef DEBUG_MODE
 244:main.c        ****         char buf[20];
 245:main.c        ****         float temp = (float)tempMSB + (float)tempLSB/256;
 246:main.c        ****         sprintf(buf, "Temp=%.2f*C\n\r", temp);
 247:main.c        ****         UART_UartPutString(buf);
 248:main.c        ****     #endif
 249:main.c        ****     states[3] = tempMSB;
 646              		.loc 1 249 0
 647 002c 014B     		ldr	r3, .L25
 648 002e DD70     		strb	r5, [r3, #3]
 250:main.c        ****     states[4] = tempLSB;
 649              		.loc 1 250 0
ARM GAS  C:\Users\Tymek\AppData\Local\Temp\cc8hQ52T.s 			page 17


 650 0030 1C71     		strb	r4, [r3, #4]
 251:main.c        **** }
 651              		.loc 1 251 0
 652              		@ sp needed
 653              	.LVL76:
 654              	.LVL77:
 655 0032 70BD     		pop	{r4, r5, r6, pc}
 656              	.L26:
 657              		.align	2
 658              	.L25:
 659 0034 00000000 		.word	states
 660              		.cfi_endproc
 661              	.LFE43:
 662              		.size	readTemp, .-readTemp
 663              		.section	.text.setDimLevel,"ax",%progbits
 664              		.align	2
 665              		.global	setDimLevel
 666              		.code	16
 667              		.thumb_func
 668              		.type	setDimLevel, %function
 669              	setDimLevel:
 670              	.LFB44:
 252:main.c        **** 
 253:main.c        **** void setDimLevel(_Bool dim){
 671              		.loc 1 253 0
 672              		.cfi_startproc
 673              		@ args = 0, pretend = 0, frame = 0
 674              		@ frame_needed = 0, uses_anonymous_args = 0
 675              	.LVL78:
 676 0000 10B5     		push	{r4, lr}
 677              		.cfi_def_cfa_offset 8
 678              		.cfi_offset 4, -8
 679              		.cfi_offset 14, -4
 680 0002 0400     		movs	r4, r0
 254:main.c        ****     /******************************************
 255:main.c        ****     0: No dimming
 256:main.c        ****     1: Dim to 50%
 257:main.c        ****     2: Dim to 25%
 258:main.c        ****     3: Dim to 12.5%
 259:main.c        ****     4: Dim to 6.3%
 260:main.c        ****     ******************************************/
 261:main.c        ****     
 262:main.c        ****     if(ADC_IsEndConversion(ADC_WAIT_FOR_RESULT))
 681              		.loc 1 262 0
 682 0004 0220     		movs	r0, #2
 683              	.LVL79:
 684 0006 FFF7FEFF 		bl	ADC_IsEndConversion
 685              	.LVL80:
 263:main.c        ****     /*no warnings pls*/;
 264:main.c        ****     
 265:main.c        ****     int16 adcResult = ADC_GetResult16(0); // Read adc data in 16 bit value
 686              		.loc 1 265 0
 687 000a 0020     		movs	r0, #0
 688 000c FFF7FEFF 		bl	ADC_GetResult16
 689              	.LVL81:
 266:main.c        ****     
 267:main.c        ****     #ifdef DEBUG_MODE
ARM GAS  C:\Users\Tymek\AppData\Local\Temp\cc8hQ52T.s 			page 18


 268:main.c        ****         char buf[16];
 269:main.c        ****         sprintf(buf, "ADC=%d\n\r", adcResult);
 270:main.c        ****         UART_UartPutString(buf);
 271:main.c        ****     #endif
 272:main.c        ****     
 273:main.c        ****     states[2] = adcResult & 0xFF;
 690              		.loc 1 273 0
 691 0010 124A     		ldr	r2, .L33
 692 0012 9070     		strb	r0, [r2, #2]
 274:main.c        ****     
 275:main.c        ****     if(dim){
 693              		.loc 1 275 0
 694 0014 002C     		cmp	r4, #0
 695 0016 20D0     		beq	.L27
 276:main.c        ****         itsDark = FALSE;
 696              		.loc 1 276 0
 697 0018 0021     		movs	r1, #0
 698 001a 114A     		ldr	r2, .L33+4
 699 001c 1171     		strb	r1, [r2, #4]
 277:main.c        ****         // Range: 0->127 (dark->light)
 278:main.c        ****         if(adcResult > 70)        ledStrip_Dim(0);
 700              		.loc 1 278 0
 701 001e 4628     		cmp	r0, #70
 702 0020 03DD     		ble	.L29
 703              		.loc 1 278 0 is_stmt 0 discriminator 1
 704 0022 0020     		movs	r0, #0
 705              	.LVL82:
 706 0024 FFF7FEFF 		bl	ledStrip_Dim
 707              	.LVL83:
 708 0028 17E0     		b	.L27
 709              	.LVL84:
 710              	.L29:
 279:main.c        ****         else if(adcResult > 60)   ledStrip_Dim(1);
 711              		.loc 1 279 0 is_stmt 1
 712 002a 3C28     		cmp	r0, #60
 713 002c 03DD     		ble	.L30
 714              		.loc 1 279 0 is_stmt 0 discriminator 1
 715 002e 0120     		movs	r0, #1
 716              	.LVL85:
 717 0030 FFF7FEFF 		bl	ledStrip_Dim
 718              	.LVL86:
 719 0034 11E0     		b	.L27
 720              	.LVL87:
 721              	.L30:
 280:main.c        ****         else if(adcResult > 40)   ledStrip_Dim(2);
 722              		.loc 1 280 0 is_stmt 1
 723 0036 2828     		cmp	r0, #40
 724 0038 03DD     		ble	.L31
 725              		.loc 1 280 0 is_stmt 0 discriminator 1
 726 003a 0220     		movs	r0, #2
 727              	.LVL88:
 728 003c FFF7FEFF 		bl	ledStrip_Dim
 729              	.LVL89:
 730 0040 0BE0     		b	.L27
 731              	.LVL90:
 732              	.L31:
 281:main.c        ****         else if(adcResult > 20)   ledStrip_Dim(3);
ARM GAS  C:\Users\Tymek\AppData\Local\Temp\cc8hQ52T.s 			page 19


 733              		.loc 1 281 0 is_stmt 1
 734 0042 1428     		cmp	r0, #20
 735 0044 03DD     		ble	.L32
 736              		.loc 1 281 0 is_stmt 0 discriminator 1
 737 0046 0320     		movs	r0, #3
 738              	.LVL91:
 739 0048 FFF7FEFF 		bl	ledStrip_Dim
 740              	.LVL92:
 741 004c 05E0     		b	.L27
 742              	.LVL93:
 743              	.L32:
 282:main.c        ****         else{                     
 283:main.c        ****             ledStrip_Dim(4);
 744              		.loc 1 283 0 is_stmt 1
 745 004e 0420     		movs	r0, #4
 746              	.LVL94:
 747 0050 FFF7FEFF 		bl	ledStrip_Dim
 748              	.LVL95:
 284:main.c        ****             itsDark = TRUE;
 749              		.loc 1 284 0
 750 0054 0122     		movs	r2, #1
 751 0056 024B     		ldr	r3, .L33+4
 752 0058 1A71     		strb	r2, [r3, #4]
 753              	.L27:
 285:main.c        ****         }
 286:main.c        ****     }
 287:main.c        **** }
 754              		.loc 1 287 0
 755              		@ sp needed
 756 005a 10BD     		pop	{r4, pc}
 757              	.L34:
 758              		.align	2
 759              	.L33:
 760 005c 00000000 		.word	states
 761 0060 00000000 		.word	.LANCHOR0
 762              		.cfi_endproc
 763              	.LFE44:
 764              		.size	setDimLevel, .-setDimLevel
 765              		.global	__aeabi_idivmod
 766              		.section	.text.updateClockFull,"ax",%progbits
 767              		.align	2
 768              		.global	updateClockFull
 769              		.code	16
 770              		.thumb_func
 771              		.type	updateClockFull, %function
 772              	updateClockFull:
 773              	.LFB45:
 288:main.c        **** 
 289:main.c        **** void updateClockFull(){
 774              		.loc 1 289 0
 775              		.cfi_startproc
 776              		@ args = 0, pretend = 0, frame = 0
 777              		@ frame_needed = 0, uses_anonymous_args = 0
 778 0000 70B5     		push	{r4, r5, r6, lr}
 779              		.cfi_def_cfa_offset 16
 780              		.cfi_offset 4, -16
 781              		.cfi_offset 5, -12
ARM GAS  C:\Users\Tymek\AppData\Local\Temp\cc8hQ52T.s 			page 20


 782              		.cfi_offset 6, -8
 783              		.cfi_offset 14, -4
 290:main.c        ****     // Update clock LEDs for full clock when somebody is in the room
 291:main.c        ****     
 292:main.c        ****     ledStrip_MemClear(0);
 784              		.loc 1 292 0
 785 0002 0020     		movs	r0, #0
 786 0004 FFF7FEFF 		bl	ledStrip_MemClear
 787              	.LVL96:
 293:main.c        ****     uint32 hrColor  = BLUE;
 294:main.c        ****     uint32 minColor = RED;
 295:main.c        ****     uint32 secColor = GREEN;
 296:main.c        ****     
 297:main.c        ****     // Hours
 298:main.c        ****     uint8 hourIndex = 44;
 299:main.c        ****     if(time[HOURS] != 0 && time[HOURS] != 12)       // Can be either 0 or 12, depending on AM/PM
 788              		.loc 1 299 0
 789 0008 384B     		ldr	r3, .L51
 790 000a 1D78     		ldrb	r5, [r3]
 791 000c 002D     		cmp	r5, #0
 792 000e 06D0     		beq	.L48
 793              		.loc 1 299 0 is_stmt 0 discriminator 1
 794 0010 0C2D     		cmp	r5, #12
 795 0012 06D0     		beq	.L49
 300:main.c        ****         hourIndex = 44 - time[HOURS]*4;             // Count down starting at 44, total LEDs 48
 796              		.loc 1 300 0 is_stmt 1
 797 0014 0B23     		movs	r3, #11
 798 0016 5D1B     		subs	r5, r3, r5
 799 0018 AD00     		lsls	r5, r5, #2
 800 001a EDB2     		uxtb	r5, r5
 801              	.LVL97:
 802 001c 02E0     		b	.L36
 803              	.LVL98:
 804              	.L48:
 298:main.c        ****     if(time[HOURS] != 0 && time[HOURS] != 12)       // Can be either 0 or 12, depending on AM/PM
 805              		.loc 1 298 0
 806 001e 2C25     		movs	r5, #44
 807 0020 00E0     		b	.L36
 808              	.L49:
 809 0022 2C25     		movs	r5, #44
 810              	.LVL99:
 811              	.L36:
 812              	.LBB4:
 301:main.c        ****     for(int i = 44; i >= hourIndex; i--){
 813              		.loc 1 301 0
 814 0024 2C24     		movs	r4, #44
 815 0026 06E0     		b	.L37
 816              	.LVL100:
 817              	.L38:
 302:main.c        ****         ledStrip_Pixel(i, 0, hrColor);              // Color all up to the correct hour-hand
 818              		.loc 1 302 0 discriminator 3
 819 0028 FF22     		movs	r2, #255
 820 002a 1204     		lsls	r2, r2, #16
 821 002c 0021     		movs	r1, #0
 822 002e 2000     		movs	r0, r4
 823 0030 FFF7FEFF 		bl	ledStrip_Pixel
 824              	.LVL101:
ARM GAS  C:\Users\Tymek\AppData\Local\Temp\cc8hQ52T.s 			page 21


 301:main.c        ****     for(int i = 44; i >= hourIndex; i--){
 825              		.loc 1 301 0 discriminator 3
 826 0034 013C     		subs	r4, r4, #1
 827              	.LVL102:
 828              	.L37:
 301:main.c        ****     for(int i = 44; i >= hourIndex; i--){
 829              		.loc 1 301 0 is_stmt 0 discriminator 1
 830 0036 AC42     		cmp	r4, r5
 831 0038 F6DA     		bge	.L38
 832              	.LBE4:
 303:main.c        ****     }
 304:main.c        ****     
 305:main.c        ****     // Minutes
 306:main.c        ****     uint8 minIndex = (60 - time[MINUTES] + 2) % 60; // Count down starting at 2, total LEDs 60
 833              		.loc 1 306 0 is_stmt 1
 834 003a 2C4B     		ldr	r3, .L51
 835 003c 5878     		ldrb	r0, [r3, #1]
 836 003e 3E23     		movs	r3, #62
 837 0040 181A     		subs	r0, r3, r0
 838 0042 3C21     		movs	r1, #60
 839 0044 FFF7FEFF 		bl	__aeabi_idivmod
 840              	.LVL103:
 841 0048 FF25     		movs	r5, #255
 842              	.LVL104:
 843 004a 0D40     		ands	r5, r1
 307:main.c        ****     switch(minIndex){
 844              		.loc 1 307 0
 845 004c 012D     		cmp	r5, #1
 846 004e 09D0     		beq	.L40
 847 0050 022D     		cmp	r5, #2
 848 0052 0DD0     		beq	.L41
 849 0054 002D     		cmp	r5, #0
 850 0056 12D1     		bne	.L50
 308:main.c        ****         case 0:                                     // Minute nr. 2
 309:main.c        ****             ledStrip_Pixel(0, 1, minColor);
 851              		.loc 1 309 0
 852 0058 FF22     		movs	r2, #255
 853 005a 1202     		lsls	r2, r2, #8
 854 005c 0121     		movs	r1, #1
 855              	.LVL105:
 856 005e 0020     		movs	r0, #0
 857 0060 FFF7FEFF 		bl	ledStrip_Pixel
 858              	.LVL106:
 859              	.L40:
 310:main.c        ****         //break;                                    // No break, if 2, should color the rest too
 311:main.c        ****         case 1:                                     // Minute nr. 1
 312:main.c        ****             ledStrip_Pixel(1, 1, minColor);
 860              		.loc 1 312 0
 861 0064 FF22     		movs	r2, #255
 862 0066 1202     		lsls	r2, r2, #8
 863 0068 0121     		movs	r1, #1
 864 006a 0120     		movs	r0, #1
 865 006c FFF7FEFF 		bl	ledStrip_Pixel
 866              	.LVL107:
 867              	.L41:
 313:main.c        ****         //break;                                    // Again no break, if 1, should color the rest 
 314:main.c        ****         case 2:                                     // Minute nr. 0/60
ARM GAS  C:\Users\Tymek\AppData\Local\Temp\cc8hQ52T.s 			page 22


 315:main.c        ****             ledStrip_Pixel(2, 1, minColor);
 868              		.loc 1 315 0
 869 0070 FF22     		movs	r2, #255
 870 0072 1202     		lsls	r2, r2, #8
 871 0074 0121     		movs	r1, #1
 872 0076 0220     		movs	r0, #2
 873 0078 FFF7FEFF 		bl	ledStrip_Pixel
 874              	.LVL108:
 316:main.c        ****         break;                                      // Break here, the rest is for minutes>2
 875              		.loc 1 316 0
 876 007c 1BE0     		b	.L43
 877              	.LVL109:
 878              	.L50:
 317:main.c        ****         default:
 318:main.c        ****             ledStrip_Pixel(0, 1, minColor);
 879              		.loc 1 318 0
 880 007e FF24     		movs	r4, #255
 881              	.LVL110:
 882 0080 2402     		lsls	r4, r4, #8
 883 0082 2200     		movs	r2, r4
 884 0084 0121     		movs	r1, #1
 885              	.LVL111:
 886 0086 0020     		movs	r0, #0
 887 0088 FFF7FEFF 		bl	ledStrip_Pixel
 888              	.LVL112:
 319:main.c        ****             ledStrip_Pixel(1, 1, minColor);
 889              		.loc 1 319 0
 890 008c 2200     		movs	r2, r4
 891 008e 0121     		movs	r1, #1
 892 0090 0120     		movs	r0, #1
 893 0092 FFF7FEFF 		bl	ledStrip_Pixel
 894              	.LVL113:
 320:main.c        ****             ledStrip_Pixel(2, 1, minColor);
 895              		.loc 1 320 0
 896 0096 2200     		movs	r2, r4
 897 0098 0121     		movs	r1, #1
 898 009a 0220     		movs	r0, #2
 899 009c FFF7FEFF 		bl	ledStrip_Pixel
 900              	.LVL114:
 901              	.LBB5:
 321:main.c        ****             for(int i = 59; i >= minIndex; i--){
 902              		.loc 1 321 0
 903 00a0 3B24     		movs	r4, #59
 904 00a2 06E0     		b	.L44
 905              	.LVL115:
 906              	.L45:
 322:main.c        ****                 ledStrip_Pixel(i, 1, minColor);     // Color all up to the correct minute-hand
 907              		.loc 1 322 0 discriminator 3
 908 00a4 FF22     		movs	r2, #255
 909 00a6 1202     		lsls	r2, r2, #8
 910 00a8 0121     		movs	r1, #1
 911 00aa 2000     		movs	r0, r4
 912 00ac FFF7FEFF 		bl	ledStrip_Pixel
 913              	.LVL116:
 321:main.c        ****             for(int i = 59; i >= minIndex; i--){
 914              		.loc 1 321 0 discriminator 3
 915 00b0 013C     		subs	r4, r4, #1
ARM GAS  C:\Users\Tymek\AppData\Local\Temp\cc8hQ52T.s 			page 23


 916              	.LVL117:
 917              	.L44:
 321:main.c        ****             for(int i = 59; i >= minIndex; i--){
 918              		.loc 1 321 0 is_stmt 0 discriminator 1
 919 00b2 AC42     		cmp	r4, r5
 920 00b4 F6DA     		bge	.L45
 921              	.LVL118:
 922              	.L43:
 923              	.LBE5:
 323:main.c        ****             }
 324:main.c        ****         break;
 325:main.c        ****     }
 326:main.c        ****     
 327:main.c        ****     // Seconds
 328:main.c        ****     uint8 secIndex = (60 - time[SECONDS] + 2) % 60; // Count down starting at 2, total LEDs 60
 924              		.loc 1 328 0 is_stmt 1
 925 00b6 0D4D     		ldr	r5, .L51
 926 00b8 AC78     		ldrb	r4, [r5, #2]
 927 00ba 3E20     		movs	r0, #62
 928 00bc 001B     		subs	r0, r0, r4
 929 00be 3C21     		movs	r1, #60
 930 00c0 FFF7FEFF 		bl	__aeabi_idivmod
 931              	.LVL119:
 329:main.c        ****     if(time[SECONDS] <= time[MINUTES]) ledStrip_Pixel(secIndex, 1, (minColor | secColor));
 932              		.loc 1 329 0
 933 00c4 6B78     		ldrb	r3, [r5, #1]
 934 00c6 9C42     		cmp	r4, r3
 935 00c8 06D8     		bhi	.L46
 936              		.loc 1 329 0 is_stmt 0 discriminator 1
 937 00ca FF20     		movs	r0, #255
 938 00cc 0840     		ands	r0, r1
 939 00ce 084A     		ldr	r2, .L51+4
 940 00d0 0121     		movs	r1, #1
 941              	.LVL120:
 942 00d2 FFF7FEFF 		bl	ledStrip_Pixel
 943              	.LVL121:
 944 00d6 05E0     		b	.L47
 945              	.LVL122:
 946              	.L46:
 330:main.c        ****     else ledStrip_Pixel(secIndex, 1, secColor);
 947              		.loc 1 330 0 is_stmt 1
 948 00d8 FF20     		movs	r0, #255
 949 00da 0840     		ands	r0, r1
 950 00dc FF22     		movs	r2, #255
 951 00de 0121     		movs	r1, #1
 952              	.LVL123:
 953 00e0 FFF7FEFF 		bl	ledStrip_Pixel
 954              	.LVL124:
 955              	.L47:
 331:main.c        **** 
 332:main.c        ****     ledStrip_Trigger(1);
 956              		.loc 1 332 0
 957 00e4 0120     		movs	r0, #1
 958 00e6 FFF7FEFF 		bl	ledStrip_Trigger
 959              	.LVL125:
 333:main.c        **** }
 960              		.loc 1 333 0
ARM GAS  C:\Users\Tymek\AppData\Local\Temp\cc8hQ52T.s 			page 24


 961              		@ sp needed
 962 00ea 70BD     		pop	{r4, r5, r6, pc}
 963              	.L52:
 964              		.align	2
 965              	.L51:
 966 00ec 00000000 		.word	time
 967 00f0 FFFF0000 		.word	65535
 968              		.cfi_endproc
 969              	.LFE45:
 970              		.size	updateClockFull, .-updateClockFull
 971              		.section	.text.updateClockEco,"ax",%progbits
 972              		.align	2
 973              		.global	updateClockEco
 974              		.code	16
 975              		.thumb_func
 976              		.type	updateClockEco, %function
 977              	updateClockEco:
 978              	.LFB46:
 334:main.c        **** 
 335:main.c        **** void updateClockEco(){
 979              		.loc 1 335 0
 980              		.cfi_startproc
 981              		@ args = 0, pretend = 0, frame = 0
 982              		@ frame_needed = 0, uses_anonymous_args = 0
 983 0000 F8B5     		push	{r3, r4, r5, r6, r7, lr}
 984              		.cfi_def_cfa_offset 24
 985              		.cfi_offset 3, -24
 986              		.cfi_offset 4, -20
 987              		.cfi_offset 5, -16
 988              		.cfi_offset 6, -12
 989              		.cfi_offset 7, -8
 990              		.cfi_offset 14, -4
 336:main.c        ****     // Update clock LEDs for eco mode when there is nobody in the room
 337:main.c        ****     
 338:main.c        ****     ledStrip_MemClear(0);
 991              		.loc 1 338 0
 992 0002 0020     		movs	r0, #0
 993 0004 FFF7FEFF 		bl	ledStrip_MemClear
 994              	.LVL126:
 339:main.c        ****     uint32 hrColor  = GREEN;
 340:main.c        ****     uint32 minColor = BLUE;
 341:main.c        ****     uint32 secColor = RED;
 342:main.c        ****     
 343:main.c        ****     // Hours
 344:main.c        ****     uint8 hourIndex = 44;
 345:main.c        ****     if(time[HOURS] != 0 && time[HOURS] != 12)       // Can be either 0 or 12, depending on AM/PM
 995              		.loc 1 345 0
 996 0008 1D4B     		ldr	r3, .L59
 997 000a 1878     		ldrb	r0, [r3]
 998 000c 0028     		cmp	r0, #0
 999 000e 06D0     		beq	.L57
 1000              		.loc 1 345 0 is_stmt 0 discriminator 1
 1001 0010 0C28     		cmp	r0, #12
 1002 0012 06D0     		beq	.L58
 346:main.c        ****         hourIndex = 44 - time[HOURS]*4;             // Count down starting at 44, total LEDs 48
 1003              		.loc 1 346 0 is_stmt 1
 1004 0014 0B23     		movs	r3, #11
ARM GAS  C:\Users\Tymek\AppData\Local\Temp\cc8hQ52T.s 			page 25


 1005 0016 181A     		subs	r0, r3, r0
 1006 0018 8000     		lsls	r0, r0, #2
 1007 001a C0B2     		uxtb	r0, r0
 1008              	.LVL127:
 1009 001c 02E0     		b	.L54
 1010              	.LVL128:
 1011              	.L57:
 344:main.c        ****     if(time[HOURS] != 0 && time[HOURS] != 12)       // Can be either 0 or 12, depending on AM/PM
 1012              		.loc 1 344 0
 1013 001e 2C20     		movs	r0, #44
 1014 0020 00E0     		b	.L54
 1015              	.L58:
 1016 0022 2C20     		movs	r0, #44
 1017              	.LVL129:
 1018              	.L54:
 347:main.c        ****     ledStrip_Pixel(hourIndex, 0, hrColor);
 1019              		.loc 1 347 0
 1020 0024 FF22     		movs	r2, #255
 1021 0026 0021     		movs	r1, #0
 1022 0028 FFF7FEFF 		bl	ledStrip_Pixel
 1023              	.LVL130:
 348:main.c        ****     // Minutes, shift by 2 because of the physical alignment of LEDs
 349:main.c        ****     uint8 minIndex = (60 - time[MINUTES] + 2) % 60;
 1024              		.loc 1 349 0
 1025 002c 144E     		ldr	r6, .L59
 1026 002e 7778     		ldrb	r7, [r6, #1]
 1027 0030 3E24     		movs	r4, #62
 1028 0032 E01B     		subs	r0, r4, r7
 1029 0034 3C21     		movs	r1, #60
 1030 0036 FFF7FEFF 		bl	__aeabi_idivmod
 1031              	.LVL131:
 1032 003a 0D00     		movs	r5, r1
 1033              	.LVL132:
 350:main.c        ****     // Seconds, shift by 2 because of the physical alignment of LEDs
 351:main.c        ****     uint8 secIndex = (60 - time[SECONDS] + 2) % 60;
 1034              		.loc 1 351 0
 1035 003c B678     		ldrb	r6, [r6, #2]
 1036 003e A01B     		subs	r0, r4, r6
 1037 0040 3C21     		movs	r1, #60
 1038 0042 FFF7FEFF 		bl	__aeabi_idivmod
 1039              	.LVL133:
 1040 0046 0C00     		movs	r4, r1
 1041              	.LVL134:
 352:main.c        ****     if(time[SECONDS] == time[MINUTES]) ledStrip_Pixel(secIndex, 1, (minColor | secColor));
 1042              		.loc 1 352 0
 1043 0048 B742     		cmp	r7, r6
 1044 004a 06D1     		bne	.L55
 1045              		.loc 1 352 0 is_stmt 0 discriminator 1
 1046 004c FF20     		movs	r0, #255
 1047 004e 0840     		ands	r0, r1
 1048 0050 0C4A     		ldr	r2, .L59+4
 1049 0052 0121     		movs	r1, #1
 1050              	.LVL135:
 1051 0054 FFF7FEFF 		bl	ledStrip_Pixel
 1052              	.LVL136:
 1053 0058 0EE0     		b	.L56
 1054              	.LVL137:
ARM GAS  C:\Users\Tymek\AppData\Local\Temp\cc8hQ52T.s 			page 26


 1055              	.L55:
 353:main.c        ****     else{
 354:main.c        ****         ledStrip_Pixel(minIndex, 1, minColor);
 1056              		.loc 1 354 0 is_stmt 1
 1057 005a FF26     		movs	r6, #255
 1058 005c 2800     		movs	r0, r5
 1059 005e 3040     		ands	r0, r6
 1060 0060 FF22     		movs	r2, #255
 1061 0062 1204     		lsls	r2, r2, #16
 1062 0064 0121     		movs	r1, #1
 1063              	.LVL138:
 1064 0066 FFF7FEFF 		bl	ledStrip_Pixel
 1065              	.LVL139:
 355:main.c        ****         ledStrip_Pixel(secIndex, 1, secColor);
 1066              		.loc 1 355 0
 1067 006a 3000     		movs	r0, r6
 1068 006c 2040     		ands	r0, r4
 1069 006e FF22     		movs	r2, #255
 1070 0070 1202     		lsls	r2, r2, #8
 1071 0072 0121     		movs	r1, #1
 1072 0074 FFF7FEFF 		bl	ledStrip_Pixel
 1073              	.LVL140:
 1074              	.L56:
 356:main.c        ****     }
 357:main.c        ****     ledStrip_Trigger(1);
 1075              		.loc 1 357 0
 1076 0078 0120     		movs	r0, #1
 1077 007a FFF7FEFF 		bl	ledStrip_Trigger
 1078              	.LVL141:
 358:main.c        **** }
 1079              		.loc 1 358 0
 1080              		@ sp needed
 1081              	.LVL142:
 1082 007e F8BD     		pop	{r3, r4, r5, r6, r7, pc}
 1083              	.L60:
 1084              		.align	2
 1085              	.L59:
 1086 0080 00000000 		.word	time
 1087 0084 00FFFF00 		.word	16776960
 1088              		.cfi_endproc
 1089              	.LFE46:
 1090              		.size	updateClockEco, .-updateClockEco
 1091              		.section	.text.updateClock,"ax",%progbits
 1092              		.align	2
 1093              		.global	updateClock
 1094              		.code	16
 1095              		.thumb_func
 1096              		.type	updateClock, %function
 1097              	updateClock:
 1098              	.LFB47:
 359:main.c        **** 
 360:main.c        **** void updateClock(){
 1099              		.loc 1 360 0
 1100              		.cfi_startproc
 1101              		@ args = 0, pretend = 0, frame = 0
 1102              		@ frame_needed = 0, uses_anonymous_args = 0
 1103 0000 10B5     		push	{r4, lr}
ARM GAS  C:\Users\Tymek\AppData\Local\Temp\cc8hQ52T.s 			page 27


 1104              		.cfi_def_cfa_offset 8
 1105              		.cfi_offset 4, -8
 1106              		.cfi_offset 14, -4
 361:main.c        ****     
 362:main.c        ****     if(pirPin_Read()){
 1107              		.loc 1 362 0
 1108 0002 FFF7FEFF 		bl	pirPin_Read
 1109              	.LVL143:
 1110 0006 0028     		cmp	r0, #0
 1111 0008 0CD0     		beq	.L62
 363:main.c        ****         #ifdef DEBUG_MODE
 364:main.c        ****             UART_UartPutString("PIR On\n\r");
 365:main.c        ****         #endif
 366:main.c        ****         states[1] = 1;
 1112              		.loc 1 366 0
 1113 000a 0122     		movs	r2, #1
 1114 000c 084B     		ldr	r3, .L65
 1115 000e 5A70     		strb	r2, [r3, #1]
 367:main.c        ****         if(itsDark) updateClockEco();
 1116              		.loc 1 367 0
 1117 0010 084B     		ldr	r3, .L65+4
 1118 0012 1B79     		ldrb	r3, [r3, #4]
 1119 0014 002B     		cmp	r3, #0
 1120 0016 02D0     		beq	.L63
 1121              		.loc 1 367 0 is_stmt 0 discriminator 1
 1122 0018 FFF7FEFF 		bl	updateClockEco
 1123              	.LVL144:
 1124 001c 07E0     		b	.L61
 1125              	.L63:
 368:main.c        ****         else updateClockFull();
 1126              		.loc 1 368 0 is_stmt 1
 1127 001e FFF7FEFF 		bl	updateClockFull
 1128              	.LVL145:
 1129 0022 04E0     		b	.L61
 1130              	.L62:
 369:main.c        ****     }
 370:main.c        ****     else{
 371:main.c        ****         #ifdef DEBUG_MODE
 372:main.c        ****             UART_UartPutString("PIR Off\n\r");
 373:main.c        ****         #endif
 374:main.c        ****         states[1] = 0;
 1131              		.loc 1 374 0
 1132 0024 0022     		movs	r2, #0
 1133 0026 024B     		ldr	r3, .L65
 1134 0028 5A70     		strb	r2, [r3, #1]
 375:main.c        ****         updateClockEco();
 1135              		.loc 1 375 0
 1136 002a FFF7FEFF 		bl	updateClockEco
 1137              	.LVL146:
 1138              	.L61:
 376:main.c        ****     }
 377:main.c        **** }
 1139              		.loc 1 377 0
 1140              		@ sp needed
 1141 002e 10BD     		pop	{r4, pc}
 1142              	.L66:
 1143              		.align	2
ARM GAS  C:\Users\Tymek\AppData\Local\Temp\cc8hQ52T.s 			page 28


 1144              	.L65:
 1145 0030 00000000 		.word	states
 1146 0034 00000000 		.word	.LANCHOR0
 1147              		.cfi_endproc
 1148              	.LFE47:
 1149              		.size	updateClock, .-updateClock
 1150              		.section	.text.initialization,"ax",%progbits
 1151              		.align	2
 1152              		.global	initialization
 1153              		.code	16
 1154              		.thumb_func
 1155              		.type	initialization, %function
 1156              	initialization:
 1157              	.LFB48:
 378:main.c        **** 
 379:main.c        **** void initialization(){
 1158              		.loc 1 379 0
 1159              		.cfi_startproc
 1160              		@ args = 0, pretend = 0, frame = 0
 1161              		@ frame_needed = 0, uses_anonymous_args = 0
 1162 0000 10B5     		push	{r4, lr}
 1163              		.cfi_def_cfa_offset 8
 1164              		.cfi_offset 4, -8
 1165              		.cfi_offset 14, -4
 380:main.c        ****     sqwPin_isr_StartEx(sqwPin_isr_Handler);
 1166              		.loc 1 380 0
 1167 0002 1548     		ldr	r0, .L69
 1168 0004 FFF7FEFF 		bl	sqwPin_isr_StartEx
 1169              	.LVL147:
 381:main.c        ****     #ifdef DEBUG_MODE
 382:main.c        ****         UART_Start();
 383:main.c        ****         UART_UartPutString("Start\n\r");
 384:main.c        ****     #endif
 385:main.c        ****     // Internal pullup resistors for I2C pins
 386:main.c        ****     I2C_scl_SetDriveMode(I2C_scl_DM_RES_UP);
 1170              		.loc 1 386 0
 1171 0008 0220     		movs	r0, #2
 1172 000a FFF7FEFF 		bl	I2C_scl_SetDriveMode
 1173              	.LVL148:
 387:main.c        ****     I2C_sda_SetDriveMode(I2C_sda_DM_RES_UP);
 1174              		.loc 1 387 0
 1175 000e 0220     		movs	r0, #2
 1176 0010 FFF7FEFF 		bl	I2C_sda_SetDriveMode
 1177              	.LVL149:
 388:main.c        ****     I2C_Start();
 1178              		.loc 1 388 0
 1179 0014 FFF7FEFF 		bl	I2C_Start
 1180              	.LVL150:
 389:main.c        ****     CyBle_Start(bleEventHandler);
 1181              		.loc 1 389 0
 1182 0018 1048     		ldr	r0, .L69+4
 1183 001a FFF7FEFF 		bl	CyBle_Start
 1184              	.LVL151:
 390:main.c        ****     ledStrip_Start();
 1185              		.loc 1 390 0
 1186 001e FFF7FEFF 		bl	ledStrip_Start
 1187              	.LVL152:
ARM GAS  C:\Users\Tymek\AppData\Local\Temp\cc8hQ52T.s 			page 29


 391:main.c        ****     initRTC();
 1188              		.loc 1 391 0
 1189 0022 FFF7FEFF 		bl	initRTC
 1190              	.LVL153:
 392:main.c        ****     states[0] = lampState;
 1191              		.loc 1 392 0
 1192 0026 0E48     		ldr	r0, .L69+8
 1193 0028 0E4B     		ldr	r3, .L69+12
 1194 002a 5B78     		ldrb	r3, [r3, #1]
 1195 002c 0370     		strb	r3, [r0]
 393:main.c        ****     updateCharacteristics(states, sizeof(states), CYBLE_SET_COLOR_COLOR_CHAR_HANDLE);
 1196              		.loc 1 393 0
 1197 002e 1622     		movs	r2, #22
 1198 0030 0521     		movs	r1, #5
 1199 0032 FFF7FEFF 		bl	updateCharacteristics
 1200              	.LVL154:
 394:main.c        ****     ADC_Start();
 1201              		.loc 1 394 0
 1202 0036 FFF7FEFF 		bl	ADC_Start
 1203              	.LVL155:
 395:main.c        ****     ADC_StartConvert();
 1204              		.loc 1 395 0
 1205 003a FFF7FEFF 		bl	ADC_StartConvert
 1206              	.LVL156:
 396:main.c        ****     if(ADC_IsEndConversion(ADC_WAIT_FOR_RESULT)) ADC_GetResult16(0); // First dummy read
 1207              		.loc 1 396 0
 1208 003e 0220     		movs	r0, #2
 1209 0040 FFF7FEFF 		bl	ADC_IsEndConversion
 1210              	.LVL157:
 1211 0044 0028     		cmp	r0, #0
 1212 0046 02D0     		beq	.L68
 1213              		.loc 1 396 0 is_stmt 0 discriminator 1
 1214 0048 0020     		movs	r0, #0
 1215 004a FFF7FEFF 		bl	ADC_GetResult16
 1216              	.LVL158:
 1217              	.L68:
 397:main.c        ****     ledStrip_Dim(0);
 1218              		.loc 1 397 0 is_stmt 1
 1219 004e 0020     		movs	r0, #0
 1220 0050 FFF7FEFF 		bl	ledStrip_Dim
 1221              	.LVL159:
 398:main.c        **** }
 1222              		.loc 1 398 0
 1223              		@ sp needed
 1224 0054 10BD     		pop	{r4, pc}
 1225              	.L70:
 1226 0056 C046     		.align	2
 1227              	.L69:
 1228 0058 00000000 		.word	sqwPin_isr_Handler
 1229 005c 00000000 		.word	bleEventHandler
 1230 0060 00000000 		.word	states
 1231 0064 00000000 		.word	.LANCHOR0
 1232              		.cfi_endproc
 1233              	.LFE48:
 1234              		.size	initialization, .-initialization
 1235              		.section	.text.main,"ax",%progbits
 1236              		.align	2
ARM GAS  C:\Users\Tymek\AppData\Local\Temp\cc8hQ52T.s 			page 30


 1237              		.global	main
 1238              		.code	16
 1239              		.thumb_func
 1240              		.type	main, %function
 1241              	main:
 1242              	.LFB49:
 399:main.c        **** 
 400:main.c        **** int main(void){
 1243              		.loc 1 400 0
 1244              		.cfi_startproc
 1245              		@ args = 0, pretend = 0, frame = 0
 1246              		@ frame_needed = 0, uses_anonymous_args = 0
 1247 0000 70B5     		push	{r4, r5, r6, lr}
 1248              		.cfi_def_cfa_offset 16
 1249              		.cfi_offset 4, -16
 1250              		.cfi_offset 5, -12
 1251              		.cfi_offset 6, -8
 1252              		.cfi_offset 14, -4
 401:main.c        ****     
 402:main.c        ****     // Needed for OTA update
 403:main.c        ****     #if !defined(__ARMCC_VERSION)
 404:main.c        ****         InitializeBootloaderSRAM();
 1253              		.loc 1 404 0
 1254 0002 FFF7FEFF 		bl	InitializeBootloaderSRAM
 1255              	.LVL160:
 405:main.c        ****     #endif
 406:main.c        ****     AfterImageUpdate();
 1256              		.loc 1 406 0
 1257 0006 FFF7FEFF 		bl	AfterImageUpdate
 1258              	.LVL161:
 407:main.c        ****     
 408:main.c        ****     // Enable global interrupts
 409:main.c        ****     CyGlobalIntEnable;
 1259              		.loc 1 409 0
 1260              		.syntax divided
 1261              	@ 409 "main.c" 1
 1262 000a 62B6     		CPSIE   i
 1263              	@ 0 "" 2
 410:main.c        ****     initialization();
 1264              		.loc 1 410 0
 1265              		.thumb
 1266              		.syntax unified
 1267 000c FFF7FEFF 		bl	initialization
 1268              	.LVL162:
 1269              	.L79:
 411:main.c        ****     
 412:main.c        ****     while(1){
 413:main.c        **** 
 414:main.c        ****         if(!lampState){ // Normal clock mode
 1270              		.loc 1 414 0
 1271 0010 2E4B     		ldr	r3, .L80
 1272 0012 5B78     		ldrb	r3, [r3, #1]
 1273 0014 002B     		cmp	r3, #0
 1274 0016 19D1     		bne	.L72
 415:main.c        ****             
 416:main.c        ****             if(sqwFired){ // Flag from RTC interrupt
 1275              		.loc 1 416 0
ARM GAS  C:\Users\Tymek\AppData\Local\Temp\cc8hQ52T.s 			page 31


 1276 0018 2C4B     		ldr	r3, .L80
 1277 001a 1B78     		ldrb	r3, [r3]
 1278 001c 002B     		cmp	r3, #0
 1279 001e 52D0     		beq	.L73
 417:main.c        ****                 #ifdef TEMP_ENABLE
 418:main.c        ****                     startTemp();        // Start a temperature reading
 1280              		.loc 1 418 0
 1281 0020 FFF7FEFF 		bl	startTemp
 1282              	.LVL163:
 419:main.c        ****                 #endif
 420:main.c        ****                 ADC_StartConvert();     // Start reading of light from LDR
 1283              		.loc 1 420 0
 1284 0024 FFF7FEFF 		bl	ADC_StartConvert
 1285              	.LVL164:
 421:main.c        ****                 readTime();             // Read current time
 1286              		.loc 1 421 0
 1287 0028 FFF7FEFF 		bl	readTime
 1288              	.LVL165:
 422:main.c        ****                 #ifdef DEBUG_MODE
 423:main.c        ****                     char buf[20];
 424:main.c        ****                     sprintf(buf, "h:%d m:%d s:%d\n\r", time[HOURS], time[MINUTES], time[SECONDS]);
 425:main.c        ****                     UART_UartPutString(buf);
 426:main.c        ****                 #endif
 427:main.c        ****                 setDimLevel(1);         // Set LED brightness from LDR
 1289              		.loc 1 427 0
 1290 002c 0120     		movs	r0, #1
 1291 002e FFF7FEFF 		bl	setDimLevel
 1292              	.LVL166:
 428:main.c        ****                 #ifdef TEMP_ENABLE
 429:main.c        ****                     readTemp();         // Read the temperature from DS3231
 1293              		.loc 1 429 0
 1294 0032 FFF7FEFF 		bl	readTemp
 1295              	.LVL167:
 430:main.c        ****                 #endif
 431:main.c        ****                 updateClock();          // Refresh LEDs with new time
 1296              		.loc 1 431 0
 1297 0036 FFF7FEFF 		bl	updateClock
 1298              	.LVL168:
 432:main.c        ****                 updateCharacteristics(states, sizeof(states), CYBLE_SET_COLOR_COLOR_CHAR_HANDLE);
 1299              		.loc 1 432 0
 1300 003a 1622     		movs	r2, #22
 1301 003c 0521     		movs	r1, #5
 1302 003e 2448     		ldr	r0, .L80+4
 1303 0040 FFF7FEFF 		bl	updateCharacteristics
 1304              	.LVL169:
 433:main.c        ****                 sqwFired = FALSE;
 1305              		.loc 1 433 0
 1306 0044 0022     		movs	r2, #0
 1307 0046 214B     		ldr	r3, .L80
 1308 0048 1A70     		strb	r2, [r3]
 1309 004a 3CE0     		b	.L73
 1310              	.L72:
 434:main.c        ****             }
 435:main.c        ****         }
 436:main.c        ****         else{ // Lamp mode
 437:main.c        **** 
 438:main.c        ****             if(colorUpdated){
ARM GAS  C:\Users\Tymek\AppData\Local\Temp\cc8hQ52T.s 			page 32


 1311              		.loc 1 438 0
 1312 004c 1F4B     		ldr	r3, .L80
 1313 004e DB78     		ldrb	r3, [r3, #3]
 1314 0050 002B     		cmp	r3, #0
 1315 0052 18D0     		beq	.L74
 439:main.c        ****                 // If the color has been changed (via app), refresh the LEDs
 440:main.c        ****                 ledStrip_Dim(0);        // Brightness is included in the colors
 1316              		.loc 1 440 0
 1317 0054 0020     		movs	r0, #0
 1318 0056 FFF7FEFF 		bl	ledStrip_Dim
 1319              	.LVL170:
 1320              	.LBB6:
 441:main.c        ****                 
 442:main.c        ****                 for(int i = 0; i < 60; i++){
 1321              		.loc 1 442 0
 1322 005a 0024     		movs	r4, #0
 1323 005c 0BE0     		b	.L75
 1324              	.LVL171:
 1325              	.L76:
 443:main.c        ****                     ledStrip_Pixel(i, 0, setColorFull);
 1326              		.loc 1 443 0 discriminator 3
 1327 005e 1D4D     		ldr	r5, .L80+8
 1328 0060 2A68     		ldr	r2, [r5]
 1329 0062 0021     		movs	r1, #0
 1330 0064 2000     		movs	r0, r4
 1331 0066 FFF7FEFF 		bl	ledStrip_Pixel
 1332              	.LVL172:
 444:main.c        ****                     ledStrip_Pixel(i, 1, setColorFull);
 1333              		.loc 1 444 0 discriminator 3
 1334 006a 2A68     		ldr	r2, [r5]
 1335 006c 0121     		movs	r1, #1
 1336 006e 2000     		movs	r0, r4
 1337 0070 FFF7FEFF 		bl	ledStrip_Pixel
 1338              	.LVL173:
 442:main.c        ****                     ledStrip_Pixel(i, 0, setColorFull);
 1339              		.loc 1 442 0 discriminator 3
 1340 0074 0134     		adds	r4, r4, #1
 1341              	.LVL174:
 1342              	.L75:
 442:main.c        ****                     ledStrip_Pixel(i, 0, setColorFull);
 1343              		.loc 1 442 0 is_stmt 0 discriminator 1
 1344 0076 3B2C     		cmp	r4, #59
 1345 0078 F1DD     		ble	.L76
 1346              	.LBE6:
 445:main.c        ****                 }
 446:main.c        ****                 
 447:main.c        ****                 ledStrip_Trigger(1);
 1347              		.loc 1 447 0 is_stmt 1
 1348 007a 0120     		movs	r0, #1
 1349 007c FFF7FEFF 		bl	ledStrip_Trigger
 1350              	.LVL175:
 448:main.c        ****                 colorUpdated = FALSE;
 1351              		.loc 1 448 0
 1352 0080 0022     		movs	r2, #0
 1353 0082 124B     		ldr	r3, .L80
 1354 0084 DA70     		strb	r2, [r3, #3]
 1355              	.LVL176:
ARM GAS  C:\Users\Tymek\AppData\Local\Temp\cc8hQ52T.s 			page 33


 1356              	.L74:
 449:main.c        ****             }
 450:main.c        ****             if(sqwFired){               // Still run every second to update data
 1357              		.loc 1 450 0
 1358 0086 114B     		ldr	r3, .L80
 1359 0088 1B78     		ldrb	r3, [r3]
 1360 008a 002B     		cmp	r3, #0
 1361 008c 1BD0     		beq	.L73
 451:main.c        ****                 #ifdef TEMP_ENABLE
 452:main.c        ****                     startTemp();        // Start a temperature reading
 1362              		.loc 1 452 0
 1363 008e FFF7FEFF 		bl	startTemp
 1364              	.LVL177:
 453:main.c        ****                 #endif
 454:main.c        ****                 ADC_StartConvert();     // Start reading of light from LDR
 1365              		.loc 1 454 0
 1366 0092 FFF7FEFF 		bl	ADC_StartConvert
 1367              	.LVL178:
 455:main.c        ****                 setDimLevel(0);         // Set LED brightness from LDR
 1368              		.loc 1 455 0
 1369 0096 0020     		movs	r0, #0
 1370 0098 FFF7FEFF 		bl	setDimLevel
 1371              	.LVL179:
 456:main.c        ****                 #ifdef TEMP_ENABLE
 457:main.c        ****                     readTemp();         // Read the temperature from DS3231
 1372              		.loc 1 457 0
 1373 009c FFF7FEFF 		bl	readTemp
 1374              	.LVL180:
 458:main.c        ****                 #endif
 459:main.c        ****                 if(pirPin_Read()) states[1] = 1;
 1375              		.loc 1 459 0
 1376 00a0 FFF7FEFF 		bl	pirPin_Read
 1377              	.LVL181:
 1378 00a4 0028     		cmp	r0, #0
 1379 00a6 03D0     		beq	.L77
 1380              		.loc 1 459 0 is_stmt 0 discriminator 1
 1381 00a8 0122     		movs	r2, #1
 1382 00aa 094B     		ldr	r3, .L80+4
 1383 00ac 5A70     		strb	r2, [r3, #1]
 1384 00ae 02E0     		b	.L78
 1385              	.L77:
 460:main.c        ****                 else states[1] = 0;
 1386              		.loc 1 460 0 is_stmt 1
 1387 00b0 0022     		movs	r2, #0
 1388 00b2 074B     		ldr	r3, .L80+4
 1389 00b4 5A70     		strb	r2, [r3, #1]
 1390              	.L78:
 461:main.c        ****                 updateCharacteristics(states, sizeof(states), CYBLE_SET_COLOR_COLOR_CHAR_HANDLE);
 1391              		.loc 1 461 0
 1392 00b6 1622     		movs	r2, #22
 1393 00b8 0521     		movs	r1, #5
 1394 00ba 0548     		ldr	r0, .L80+4
 1395 00bc FFF7FEFF 		bl	updateCharacteristics
 1396              	.LVL182:
 462:main.c        ****                 sqwFired = FALSE;
 1397              		.loc 1 462 0
 1398 00c0 0022     		movs	r2, #0
ARM GAS  C:\Users\Tymek\AppData\Local\Temp\cc8hQ52T.s 			page 34


 1399 00c2 024B     		ldr	r3, .L80
 1400 00c4 1A70     		strb	r2, [r3]
 1401              	.L73:
 463:main.c        ****             }
 464:main.c        ****         }
 465:main.c        ****         CyBle_ProcessEvents(); // Process BT
 1402              		.loc 1 465 0
 1403 00c6 FFF7FEFF 		bl	CyBle_ProcessEvents
 1404              	.LVL183:
 466:main.c        ****     }
 1405              		.loc 1 466 0
 1406 00ca A1E7     		b	.L79
 1407              	.L81:
 1408              		.align	2
 1409              	.L80:
 1410 00cc 00000000 		.word	.LANCHOR0
 1411 00d0 00000000 		.word	states
 1412 00d4 00000000 		.word	.LANCHOR1
 1413              		.cfi_endproc
 1414              	.LFE49:
 1415              		.size	main, .-main
 1416              		.comm	states,5,4
 1417              		.global	sqwFired
 1418              		.global	itsDark
 1419              		.global	colorUpdated
 1420              		.global	brightness
 1421              		.global	lampState
 1422              		.global	setColorFull
 1423              		.comm	setColor,3,4
 1424              		.comm	time,3,4
 1425              		.data
 1426              		.align	2
 1427              		.set	.LANCHOR1,. + 0
 1428              		.type	setColorFull, %object
 1429              		.size	setColorFull, 4
 1430              	setColorFull:
 1431 0000 00FF0000 		.word	65280
 1432              		.bss
 1433              		.set	.LANCHOR0,. + 0
 1434              		.type	sqwFired, %object
 1435              		.size	sqwFired, 1
 1436              	sqwFired:
 1437 0000 00       		.space	1
 1438              		.type	lampState, %object
 1439              		.size	lampState, 1
 1440              	lampState:
 1441 0001 00       		.space	1
 1442              		.type	brightness, %object
 1443              		.size	brightness, 1
 1444              	brightness:
 1445 0002 00       		.space	1
 1446              		.type	colorUpdated, %object
 1447              		.size	colorUpdated, 1
 1448              	colorUpdated:
 1449 0003 00       		.space	1
 1450              		.type	itsDark, %object
 1451              		.size	itsDark, 1
ARM GAS  C:\Users\Tymek\AppData\Local\Temp\cc8hQ52T.s 			page 35


 1452              	itsDark:
 1453 0004 00       		.space	1
 1454              		.text
 1455              	.Letext0:
 1456              		.file 2 "Generated_Source\\PSoC4/cytypes.h"
 1457              		.file 3 "Generated_Source\\PSoC4/BLE_StackGatt.h"
 1458              		.file 4 "Generated_Source\\PSoC4/BLE_StackGattServer.h"
 1459              		.file 5 "Generated_Source\\PSoC4/BLE_eventHandler.h"
 1460              		.file 6 "Generated_Source\\PSoC4/sqwPin.h"
 1461              		.file 7 "Generated_Source\\PSoC4/BLE_StackGattDb.h"
 1462              		.file 8 "Generated_Source\\PSoC4/I2C_I2C.h"
 1463              		.file 9 "Generated_Source\\PSoC4/Bootloadable.h"
 1464              		.file 10 "Generated_Source\\PSoC4/CyLib.h"
 1465              		.file 11 "Generated_Source\\PSoC4/CSD.h"
 1466              		.file 12 "Generated_Source\\PSoC4/CPS.h"
 1467              		.file 13 "Generated_Source\\PSoC4/BLE.h"
 1468              		.file 14 "Generated_Source\\PSoC4/ADC.h"
 1469              		.file 15 "Generated_Source\\PSoC4/ledStrip.h"
 1470              		.file 16 "Generated_Source\\PSoC4/pirPin.h"
 1471              		.file 17 "Generated_Source\\PSoC4/sqwPin_isr.h"
 1472              		.file 18 "Generated_Source\\PSoC4/I2C_scl.h"
 1473              		.file 19 "Generated_Source\\PSoC4/I2C_sda.h"
 1474              		.file 20 "Generated_Source\\PSoC4/I2C.h"
 1475              		.file 21 "Generated_Source\\PSoC4/BLE_Stack.h"