ARM GAS  C:\Users\Tymek\AppData\Local\Temp\cc29dC3T.s 			page 1


   1              		.syntax unified
   2              		.cpu cortex-m0
   3              		.fpu softvfp
   4              		.eabi_attribute 20, 1
   5              		.eabi_attribute 21, 1
   6              		.eabi_attribute 23, 3
   7              		.eabi_attribute 24, 1
   8              		.eabi_attribute 25, 1
   9              		.eabi_attribute 26, 1
  10              		.eabi_attribute 30, 1
  11              		.eabi_attribute 34, 0
  12              		.eabi_attribute 18, 4
  13              		.thumb
  14              		.syntax unified
  15              		.file	"ota_mandatory.c"
  16              		.text
  17              	.Ltext0:
  18              		.cfi_sections	.debug_frame
  19              		.section	.text.Bootloader_Start_c,"ax",%progbits
  20              		.align	2
  21              		.global	Bootloader_Start_c
  22              		.code	16
  23              		.thumb_func
  24              		.type	Bootloader_Start_c, %function
  25              	Bootloader_Start_c:
  26              	.LFB36:
  27              		.file 1 "ota_mandatory.c"
   1:ota_mandatory.c **** /*******************************************************************************
   2:ota_mandatory.c **** * File Name: ota_mandatory.c
   3:ota_mandatory.c **** *
   4:ota_mandatory.c **** * Version: 1.20
   5:ota_mandatory.c **** *
   6:ota_mandatory.c **** * Description:
   7:ota_mandatory.c **** *  Provides an API that implement core functionality of OTA.
   8:ota_mandatory.c **** *
   9:ota_mandatory.c **** * Hardware Dependency:
  10:ota_mandatory.c **** *  CY8CKIT-042 BLE
  11:ota_mandatory.c **** *
  12:ota_mandatory.c **** ********************************************************************************
  13:ota_mandatory.c **** * Copyright 2014-2016, Cypress Semiconductor Corporation. All rights reserved.
  14:ota_mandatory.c **** * This software is owned by Cypress Semiconductor Corporation and is protected
  15:ota_mandatory.c **** * by and subject to worldwide patent and copyright laws and treaties.
  16:ota_mandatory.c **** * Therefore, you may use this software only as provided in the license agreement
  17:ota_mandatory.c **** * accompanying the software package from which you obtained this software.
  18:ota_mandatory.c **** * CYPRESS AND ITS SUPPLIERS MAKE NO WARRANTY OF ANY KIND, EXPRESS OR IMPLIED,
  19:ota_mandatory.c **** * WITH REGARD TO THIS SOFTWARE, INCLUDING, BUT NOT LIMITED TO, NONINFRINGEMENT,
  20:ota_mandatory.c **** * IMPLIED WARRANTIES OF MERCHANTABILITY AND FITNESS FOR A PARTICULAR PURPOSE.
  21:ota_mandatory.c **** *******************************************************************************/
  22:ota_mandatory.c **** #include "cytypes.h"
  23:ota_mandatory.c **** #include "ota_mandatory.h"
  24:ota_mandatory.c **** 
  25:ota_mandatory.c **** 
  26:ota_mandatory.c **** #if CYDEV_FLASH_SIZE != 0x00040000u
  27:ota_mandatory.c ****  #error "This design is specifically targeted to parts with 256k of flash. Please change project de
  28:ota_mandatory.c ****  silicon that has 256K Flash array. For example CY8C4248LQI-BL483."
  29:ota_mandatory.c **** #endif
  30:ota_mandatory.c **** 
ARM GAS  C:\Users\Tymek\AppData\Local\Temp\cc29dC3T.s 			page 2


  31:ota_mandatory.c **** #if defined(__ARMCC_VERSION)
  32:ota_mandatory.c ****     
  33:ota_mandatory.c **** #include <cytypes.h>
  34:ota_mandatory.c **** 
  35:ota_mandatory.c **** extern void Bootloader___main(void);
  36:ota_mandatory.c **** void InitializeBootloaderSRAM(void);
  37:ota_mandatory.c **** extern int main(void);
  38:ota_mandatory.c **** extern int $Super$$main(void);
  39:ota_mandatory.c **** extern void initialize_psoc(void);
  40:ota_mandatory.c **** #endif /*__ARMCC_VERSION*/
  41:ota_mandatory.c **** 
  42:ota_mandatory.c **** 
  43:ota_mandatory.c **** #if defined(__ARMCC_VERSION)
  44:ota_mandatory.c ****     /*******************************************************************************
  45:ota_mandatory.c ****     * Following code implements re-initialization of separate RAM segment containing
  46:ota_mandatory.c ****     * data that is required for BLE Stack operation.
  47:ota_mandatory.c ****     * This code is used in case of MDK compiler.
  48:ota_mandatory.c ****     *******************************************************************************/
  49:ota_mandatory.c ****     __attribute__ ((section(".bootloaderruntype"), zero_init))
  50:ota_mandatory.c ****     volatile uint32 CyReturnToBootloaddableAddress;
  51:ota_mandatory.c ****     __attribute__ ((section(".bootloaderruntype"), zero_init))
  52:ota_mandatory.c ****     extern volatile uint8 appType; 
  53:ota_mandatory.c ****     extern void Bootloader__main(void);
  54:ota_mandatory.c ****     void InitializeBootloaderSRAM(void);
  55:ota_mandatory.c ****     extern int main(void);
  56:ota_mandatory.c ****     extern int $Super$$main(void);
  57:ota_mandatory.c ****     extern void initialize_psoc(void);
  58:ota_mandatory.c **** 
  59:ota_mandatory.c ****     /*******************************************************************************
  60:ota_mandatory.c ****     * Function Name: _platform_post_lib_init
  61:ota_mandatory.c ****     ********************************************************************************
  62:ota_mandatory.c ****     *
  63:ota_mandatory.c ****     * Summary:
  64:ota_mandatory.c ****     *   This function is called by MDK compiler startup code.
  65:ota_mandatory.c ****     *
  66:ota_mandatory.c ****     * Parameters:
  67:ota_mandatory.c ****     *   None
  68:ota_mandatory.c ****     *
  69:ota_mandatory.c ****     *******************************************************************************/
  70:ota_mandatory.c ****     void _platform_post_lib_init()
  71:ota_mandatory.c ****     {
  72:ota_mandatory.c ****         initialize_psoc();
  73:ota_mandatory.c ****         InitializeBootloaderSRAM();
  74:ota_mandatory.c ****     }
  75:ota_mandatory.c **** #elif defined (__GNUC__)
  76:ota_mandatory.c ****     /*******************************************************************************
  77:ota_mandatory.c ****     * Following code implements re-initialization of separate RAM segment containing
  78:ota_mandatory.c ****     * data that is required for BLE Stack operation.
  79:ota_mandatory.c ****     * This code is used in case of GCC compiler
  80:ota_mandatory.c ****     *******************************************************************************/
  81:ota_mandatory.c ****     extern void Bootloader___libc_init_array(void);
  82:ota_mandatory.c ****     typedef unsigned char __cy_byte_align8 __attribute ((aligned (8)));
  83:ota_mandatory.c ****     struct __cy_region
  84:ota_mandatory.c ****     {
  85:ota_mandatory.c ****         __cy_byte_align8 *init; /* Initial contents of this region.  */
  86:ota_mandatory.c ****         __cy_byte_align8 *data; /* Start address of region.  */
  87:ota_mandatory.c ****         size_t init_size;       /* Size of initial data.  */
ARM GAS  C:\Users\Tymek\AppData\Local\Temp\cc29dC3T.s 			page 3


  88:ota_mandatory.c ****         size_t zero_size;       /* Additional size to be zeroed.  */
  89:ota_mandatory.c ****     };
  90:ota_mandatory.c ****     extern const struct __cy_region Bootloader___cy_regions[];
  91:ota_mandatory.c ****     extern const char Bootloader___cy_region_num __attribute__((weak));
  92:ota_mandatory.c **** #define Bootloader___cy_region_num ((size_t)&Bootloader___cy_region_num)
  93:ota_mandatory.c ****     
  94:ota_mandatory.c **** 
  95:ota_mandatory.c ****     /*******************************************************************************
  96:ota_mandatory.c ****     * Function Name: Bootloader_Start_c
  97:ota_mandatory.c ****     ********************************************************************************
  98:ota_mandatory.c ****     *
  99:ota_mandatory.c ****     * Summary:
 100:ota_mandatory.c ****     *   This function initializes bootloader RAM .bss section. It is required for 
 101:ota_mandatory.c ****     *   BLE Stack operation.
 102:ota_mandatory.c ****     *
 103:ota_mandatory.c ****     * Parameters:
 104:ota_mandatory.c ****     *   None
 105:ota_mandatory.c ****     *
 106:ota_mandatory.c ****     *******************************************************************************/
 107:ota_mandatory.c ****     void Bootloader_Start_c(void)
 108:ota_mandatory.c ****     {
  28              		.loc 1 108 0
  29              		.cfi_startproc
  30              		@ args = 0, pretend = 0, frame = 0
  31              		@ frame_needed = 0, uses_anonymous_args = 0
  32 0000 70B5     		push	{r4, r5, r6, lr}
  33              		.cfi_def_cfa_offset 16
  34              		.cfi_offset 4, -16
  35              		.cfi_offset 5, -12
  36              		.cfi_offset 6, -8
  37              		.cfi_offset 14, -4
  38              	.LVL0:
 109:ota_mandatory.c ****     unsigned regions = Bootloader___cy_region_num;
 110:ota_mandatory.c ****     const struct __cy_region *rptr = Bootloader___cy_regions;
 111:ota_mandatory.c **** 
 112:ota_mandatory.c ****         /* Initialize memory */
 113:ota_mandatory.c ****         for (regions = Bootloader___cy_region_num; regions != 0u; regions--)
  39              		.loc 1 113 0
  40 0002 0D4E     		ldr	r6, .L8
  41              	.LVL1:
 110:ota_mandatory.c **** 
  42              		.loc 1 110 0
  43 0004 0D4D     		ldr	r5, .L8+4
  44              		.loc 1 113 0
  45 0006 13E0     		b	.L2
  46              	.LVL2:
  47              	.L7:
  48              	.LBB2:
 114:ota_mandatory.c ****         {
 115:ota_mandatory.c ****             uint32 *src = (uint32 *)rptr->init;
  49              		.loc 1 115 0
  50 0008 2968     		ldr	r1, [r5]
  51              	.LVL3:
 116:ota_mandatory.c ****             uint32 *dst = (uint32 *)rptr->data;
  52              		.loc 1 116 0
  53 000a 6B68     		ldr	r3, [r5, #4]
  54              	.LVL4:
ARM GAS  C:\Users\Tymek\AppData\Local\Temp\cc29dC3T.s 			page 4


 117:ota_mandatory.c ****             unsigned limit = rptr->init_size;
  55              		.loc 1 117 0
  56 000c AC68     		ldr	r4, [r5, #8]
  57              	.LVL5:
 118:ota_mandatory.c ****             unsigned count;
 119:ota_mandatory.c **** 
 120:ota_mandatory.c ****             for (count = 0u; count != limit; count += sizeof (uint32))
  58              		.loc 1 120 0
  59 000e 0022     		movs	r2, #0
  60 0010 02E0     		b	.L3
  61              	.LVL6:
  62              	.L4:
 121:ota_mandatory.c ****             {
 122:ota_mandatory.c ****                 *dst = *src;
  63              		.loc 1 122 0 discriminator 3
  64 0012 01C9     		ldmia	r1!, {r0}
  65              	.LVL7:
  66 0014 01C3     		stmia	r3!, {r0}
  67              	.LVL8:
 120:ota_mandatory.c ****             {
  68              		.loc 1 120 0 discriminator 3
  69 0016 0432     		adds	r2, r2, #4
  70              	.LVL9:
  71              	.L3:
 120:ota_mandatory.c ****             {
  72              		.loc 1 120 0 is_stmt 0 discriminator 1
  73 0018 A242     		cmp	r2, r4
  74 001a FAD1     		bne	.L4
 123:ota_mandatory.c ****                 dst++;
 124:ota_mandatory.c ****                 src++;
 125:ota_mandatory.c ****             }
 126:ota_mandatory.c ****             limit = rptr->zero_size;
  75              		.loc 1 126 0 is_stmt 1
  76 001c E868     		ldr	r0, [r5, #12]
  77              	.LVL10:
 127:ota_mandatory.c ****             for (count = 0u; count != limit; count += sizeof (uint32))
  78              		.loc 1 127 0
  79 001e 0022     		movs	r2, #0
  80 0020 02E0     		b	.L5
  81              	.LVL11:
  82              	.L6:
 128:ota_mandatory.c ****             {
 129:ota_mandatory.c ****                 *dst = 0u;
  83              		.loc 1 129 0 discriminator 3
  84 0022 0021     		movs	r1, #0
  85 0024 02C3     		stmia	r3!, {r1}
  86              	.LVL12:
 127:ota_mandatory.c ****             for (count = 0u; count != limit; count += sizeof (uint32))
  87              		.loc 1 127 0 discriminator 3
  88 0026 0432     		adds	r2, r2, #4
  89              	.LVL13:
  90              	.L5:
 127:ota_mandatory.c ****             for (count = 0u; count != limit; count += sizeof (uint32))
  91              		.loc 1 127 0 is_stmt 0 discriminator 1
  92 0028 8242     		cmp	r2, r0
  93 002a FAD1     		bne	.L6
 130:ota_mandatory.c ****                 dst++;
ARM GAS  C:\Users\Tymek\AppData\Local\Temp\cc29dC3T.s 			page 5


 131:ota_mandatory.c ****             }
 132:ota_mandatory.c **** 
 133:ota_mandatory.c ****             rptr++;
  94              		.loc 1 133 0 is_stmt 1 discriminator 2
  95 002c 1035     		adds	r5, r5, #16
  96              	.LVL14:
  97              	.LBE2:
 113:ota_mandatory.c ****         {
  98              		.loc 1 113 0 discriminator 2
  99 002e 013E     		subs	r6, r6, #1
 100              	.LVL15:
 101              	.L2:
 113:ota_mandatory.c ****         {
 102              		.loc 1 113 0 is_stmt 0 discriminator 1
 103 0030 002E     		cmp	r6, #0
 104 0032 E9D1     		bne	.L7
 134:ota_mandatory.c ****         }
 135:ota_mandatory.c **** 
 136:ota_mandatory.c ****         /* Invoke static objects constructors using Bootloader__libc_init_array() function call her
 137:ota_mandatory.c ****          * if they are needed.
 138:ota_mandatory.c ****          */
 139:ota_mandatory.c **** }   
 105              		.loc 1 139 0 is_stmt 1
 106              		@ sp needed
 107              	.LVL16:
 108              	.LVL17:
 109 0034 70BD     		pop	{r4, r5, r6, pc}
 110              	.L9:
 111 0036 C046     		.align	2
 112              	.L8:
 113 0038 00000000 		.word	Bootloader___cy_region_num
 114 003c 00000000 		.word	Bootloader___cy_regions
 115              		.cfi_endproc
 116              	.LFE36:
 117              		.size	Bootloader_Start_c, .-Bootloader_Start_c
 118              		.section	.text.InitializeBootloaderSRAM,"ax",%progbits
 119              		.align	2
 120              		.global	InitializeBootloaderSRAM
 121              		.code	16
 122              		.thumb_func
 123              		.type	InitializeBootloaderSRAM, %function
 124              	InitializeBootloaderSRAM:
 125              	.LFB37:
 140:ota_mandatory.c **** #elif defined (__ICCARM__)
 141:ota_mandatory.c ****     /*******************************************************************************
 142:ota_mandatory.c ****     * Following code implements re-initialization of separate RAM segment containing
 143:ota_mandatory.c ****     * data that is required for BLE Stack operation.
 144:ota_mandatory.c ****     * This code is used in case of IAR compiler.
 145:ota_mandatory.c ****     *******************************************************************************/
 146:ota_mandatory.c ****     extern void Bootloader___iar_data_init3(void);
 147:ota_mandatory.c **** #endif  /* (__ARMCC_VERSION) */
 148:ota_mandatory.c **** 
 149:ota_mandatory.c **** 
 150:ota_mandatory.c **** /*******************************************************************************
 151:ota_mandatory.c **** * Function Name: Bootloader_Start_c
 152:ota_mandatory.c **** ********************************************************************************
 153:ota_mandatory.c **** *
ARM GAS  C:\Users\Tymek\AppData\Local\Temp\cc29dC3T.s 			page 6


 154:ota_mandatory.c **** * Summary:
 155:ota_mandatory.c **** *   This function triggers initialization of bootloader RAM .bss section.
 156:ota_mandatory.c **** *   It is required for BLE Stack operation. This function should be called from
 157:ota_mandatory.c **** *   main() prior BLE component start.
 158:ota_mandatory.c **** *
 159:ota_mandatory.c **** * Parameters:
 160:ota_mandatory.c **** *   None
 161:ota_mandatory.c **** *
 162:ota_mandatory.c **** *******************************************************************************/
 163:ota_mandatory.c **** void InitializeBootloaderSRAM()
 164:ota_mandatory.c **** {
 126              		.loc 1 164 0
 127              		.cfi_startproc
 128              		@ args = 0, pretend = 0, frame = 0
 129              		@ frame_needed = 0, uses_anonymous_args = 0
 130 0000 10B5     		push	{r4, lr}
 131              		.cfi_def_cfa_offset 8
 132              		.cfi_offset 4, -8
 133              		.cfi_offset 14, -4
 165:ota_mandatory.c **** #if defined(__ARMCC_VERSION)
 166:ota_mandatory.c ****      CyReturnToBootloaddableAddress = (uint32)$Super$$main;
 167:ota_mandatory.c ****      Bootloader___main();
 168:ota_mandatory.c **** #elif defined (__GNUC__)
 169:ota_mandatory.c ****     Bootloader_Start_c();
 134              		.loc 1 169 0
 135 0002 FFF7FEFF 		bl	Bootloader_Start_c
 136              	.LVL18:
 170:ota_mandatory.c **** #elif defined (__ICCARM__)
 171:ota_mandatory.c ****     Bootloader___iar_data_init3();
 172:ota_mandatory.c **** #endif /* defined(__ARMCC_VERSION) */
 173:ota_mandatory.c **** }
 137              		.loc 1 173 0
 138              		@ sp needed
 139 0006 10BD     		pop	{r4, pc}
 140              		.cfi_endproc
 141              	.LFE37:
 142              		.size	InitializeBootloaderSRAM, .-InitializeBootloaderSRAM
 143              		.section	.text.Bootloadable_WriteFlashByte,"ax",%progbits
 144              		.align	2
 145              		.global	Bootloadable_WriteFlashByte
 146              		.code	16
 147              		.thumb_func
 148              		.type	Bootloadable_WriteFlashByte, %function
 149              	Bootloadable_WriteFlashByte:
 150              	.LFB38:
 174:ota_mandatory.c **** 
 175:ota_mandatory.c **** 
 176:ota_mandatory.c **** /*******************************************************************************
 177:ota_mandatory.c **** * Function Name: Bootloadable_WriteFlashByte
 178:ota_mandatory.c **** ********************************************************************************
 179:ota_mandatory.c **** *
 180:ota_mandatory.c **** * Summary:
 181:ota_mandatory.c **** *   This API writes to flash the specified data.
 182:ota_mandatory.c **** *
 183:ota_mandatory.c **** * Parameters:
 184:ota_mandatory.c **** *    address    - The address in flash.
 185:ota_mandatory.c **** *    inputValue - One-byte data.
ARM GAS  C:\Users\Tymek\AppData\Local\Temp\cc29dC3T.s 			page 7


 186:ota_mandatory.c **** *
 187:ota_mandatory.c **** * Return:
 188:ota_mandatory.c **** *   A status of the writing to flash procedure.
 189:ota_mandatory.c **** *
 190:ota_mandatory.c **** *******************************************************************************/
 191:ota_mandatory.c **** cystatus Bootloadable_WriteFlashByte(const uint32 address, const uint8 inputValue)
 192:ota_mandatory.c **** {
 151              		.loc 1 192 0
 152              		.cfi_startproc
 153              		@ args = 0, pretend = 0, frame = 256
 154              		@ frame_needed = 0, uses_anonymous_args = 0
 155              	.LVL19:
 156 0000 70B5     		push	{r4, r5, r6, lr}
 157              		.cfi_def_cfa_offset 16
 158              		.cfi_offset 4, -16
 159              		.cfi_offset 5, -12
 160              		.cfi_offset 6, -8
 161              		.cfi_offset 14, -4
 162 0002 C0B0     		sub	sp, sp, #256
 163              		.cfi_def_cfa_offset 272
 164 0004 0500     		movs	r5, r0
 165              	.LVL20:
 193:ota_mandatory.c ****     cystatus result = CYRET_SUCCESS;
 194:ota_mandatory.c ****     uint32 flsAddr = address - CYDEV_FLASH_BASE;
 195:ota_mandatory.c ****     uint8  rowData[CYDEV_FLS_ROW_SIZE];
 196:ota_mandatory.c **** 
 197:ota_mandatory.c ****     uint16 rowNum = ( uint16 )(flsAddr / CYDEV_FLS_ROW_SIZE);
 166              		.loc 1 197 0
 167 0006 000A     		lsrs	r0, r0, #8
 168              	.LVL21:
 198:ota_mandatory.c **** 
 199:ota_mandatory.c ****     uint32 baseAddr = address - (address % CYDEV_FLS_ROW_SIZE);
 169              		.loc 1 199 0
 170 0008 FF23     		movs	r3, #255
 171 000a 2C00     		movs	r4, r5
 172 000c 9C43     		bics	r4, r3
 173              	.LVL22:
 200:ota_mandatory.c ****     uint16 idx;
 201:ota_mandatory.c **** 
 202:ota_mandatory.c ****     for(idx = 0u; idx < CYDEV_FLS_ROW_SIZE; idx++)
 174              		.loc 1 202 0
 175 000e 0023     		movs	r3, #0
 176 0010 04E0     		b	.L12
 177              	.LVL23:
 178              	.L13:
 203:ota_mandatory.c ****     {
 204:ota_mandatory.c ****         rowData[idx] = (uint8)Bootloadable_GET_CODE_DATA(baseAddr + idx);
 179              		.loc 1 204 0 discriminator 3
 180 0012 1A5D     		ldrb	r2, [r3, r4]
 181 0014 6E46     		mov	r6, sp
 182 0016 F254     		strb	r2, [r6, r3]
 202:ota_mandatory.c ****     {
 183              		.loc 1 202 0 discriminator 3
 184 0018 0133     		adds	r3, r3, #1
 185              	.LVL24:
 186 001a 9BB2     		uxth	r3, r3
 187              	.LVL25:
ARM GAS  C:\Users\Tymek\AppData\Local\Temp\cc29dC3T.s 			page 8


 188              	.L12:
 202:ota_mandatory.c ****     {
 189              		.loc 1 202 0 is_stmt 0 discriminator 1
 190 001c FF2B     		cmp	r3, #255
 191 001e F8D9     		bls	.L13
 205:ota_mandatory.c ****     }
 206:ota_mandatory.c **** 
 207:ota_mandatory.c ****     rowData[address % CYDEV_FLS_ROW_SIZE] = inputValue;
 192              		.loc 1 207 0 is_stmt 1
 193 0020 FF23     		movs	r3, #255
 194              	.LVL26:
 195 0022 1D40     		ands	r5, r3
 196              	.LVL27:
 197 0024 6B46     		mov	r3, sp
 198 0026 5955     		strb	r1, [r3, r5]
 208:ota_mandatory.c **** 
 209:ota_mandatory.c ****     result = CySysFlashWriteRow((uint32) rowNum, rowData);
 199              		.loc 1 209 0
 200 0028 0004     		lsls	r0, r0, #16
 201              	.LVL28:
 202 002a 000C     		lsrs	r0, r0, #16
 203 002c 6946     		mov	r1, sp
 204              	.LVL29:
 205 002e FFF7FEFF 		bl	CySysFlashWriteRow
 206              	.LVL30:
 210:ota_mandatory.c **** 
 211:ota_mandatory.c ****     return (result);
 212:ota_mandatory.c **** }
 207              		.loc 1 212 0
 208 0032 40B0     		add	sp, sp, #256
 209              		@ sp needed
 210              	.LVL31:
 211 0034 70BD     		pop	{r4, r5, r6, pc}
 212              		.cfi_endproc
 213              	.LFE38:
 214              		.size	Bootloadable_WriteFlashByte, .-Bootloadable_WriteFlashByte
 215 0036 C046     		.section	.text.Bootloadable_SetActiveApplication,"ax",%progbits
 216              		.align	2
 217              		.global	Bootloadable_SetActiveApplication
 218              		.code	16
 219              		.thumb_func
 220              		.type	Bootloadable_SetActiveApplication, %function
 221              	Bootloadable_SetActiveApplication:
 222              	.LFB39:
 213:ota_mandatory.c **** 
 214:ota_mandatory.c **** 
 215:ota_mandatory.c **** /*******************************************************************************
 216:ota_mandatory.c **** * Function Name: Bootloadable_SetActiveApplication
 217:ota_mandatory.c **** ****************************************************************************//**
 218:ota_mandatory.c **** *
 219:ota_mandatory.c **** * Summary:
 220:ota_mandatory.c **** *   Sets the application which will be loaded after a next reset event.          
 221:ota_mandatory.c **** *   This API sets in the Flash (metadata section) the given active application 
 222:ota_mandatory.c **** *   number.
 223:ota_mandatory.c **** *          
 224:ota_mandatory.c **** *   NOTE The active application number is not set directly, but the boolean 
 225:ota_mandatory.c **** *   mark instead means that the application is active or not for the relative 
ARM GAS  C:\Users\Tymek\AppData\Local\Temp\cc29dC3T.s 			page 9


 226:ota_mandatory.c **** *   metadata. Both metadata sections are updated. For example, if the second 
 227:ota_mandatory.c **** *   application is to be set active, then in the metadata section for the first 
 228:ota_mandatory.c **** *   application there will be a "0" written, which means that it is not active, and 
 229:ota_mandatory.c **** *   for the second metadata section there will be a "1" written, which means that it is 
 230:ota_mandatory.c **** *   active. 
 231:ota_mandatory.c **** *
 232:ota_mandatory.c **** *   NOTE Intended for the combination project type ONLY!
 233:ota_mandatory.c **** *
 234:ota_mandatory.c **** * Parameters:
 235:ota_mandatory.c **** *   appId:
 236:ota_mandatory.c **** *       The active application number to be written to flash (metadata section) 
 237:ota_mandatory.c **** *       NOTE Possible values are:
 238:ota_mandatory.c **** *       0 - for the first application
 239:ota_mandatory.c **** *       1 - for the second application.
 240:ota_mandatory.c **** *       Any other number is considered invalid. 
 241:ota_mandatory.c **** *
 242:ota_mandatory.c **** * Return:
 243:ota_mandatory.c **** *   A status of writing to flash operation.
 244:ota_mandatory.c **** *       CYRET_SUCCESS - Returned if appId was successfully changed. 
 245:ota_mandatory.c **** *       CYRET_BAD_PARAM - Returned if the parameter appID passed to the
 246:ota_mandatory.c **** *                function has the same value as the active application ID. 
 247:ota_mandatory.c **** *
 248:ota_mandatory.c **** *******************************************************************************/
 249:ota_mandatory.c **** cystatus Bootloadable_SetActiveApplication(uint8 appId)
 250:ota_mandatory.c **** {
 223              		.loc 1 250 0
 224              		.cfi_startproc
 225              		@ args = 0, pretend = 0, frame = 0
 226              		@ frame_needed = 0, uses_anonymous_args = 0
 227              	.LVL32:
 228 0000 70B5     		push	{r4, r5, r6, lr}
 229              		.cfi_def_cfa_offset 16
 230              		.cfi_offset 4, -16
 231              		.cfi_offset 5, -12
 232              		.cfi_offset 6, -8
 233              		.cfi_offset 14, -4
 234 0002 0600     		movs	r6, r0
 235              	.LVL33:
 251:ota_mandatory.c ****     cystatus result = CYRET_SUCCESS;
 252:ota_mandatory.c **** 
 253:ota_mandatory.c ****     uint8 CYDATA idx;
 254:ota_mandatory.c ****     
 255:ota_mandatory.c ****     /* If invalid application number */
 256:ota_mandatory.c ****     if (appId > Bootloadable_MD_BTLDB_ACTIVE_1)
 236              		.loc 1 256 0
 237 0004 0128     		cmp	r0, #1
 238 0006 1DD8     		bhi	.L18
 257:ota_mandatory.c ****     {
 258:ota_mandatory.c ****         result = CYRET_BAD_PARAM;
 259:ota_mandatory.c ****     }
 260:ota_mandatory.c ****     else
 261:ota_mandatory.c ****     {
 262:ota_mandatory.c ****         /* If appID has the same value as active application ID */
 263:ota_mandatory.c ****         if (1u == Bootloadable_GET_CODE_DATA(Bootloadable_MD_BTLDB_ACTIVE_OFFSET(appId)))
 239              		.loc 1 263 0
 240 0008 0206     		lsls	r2, r0, #24
 241 000a 121A     		subs	r2, r2, r0
ARM GAS  C:\Users\Tymek\AppData\Local\Temp\cc29dC3T.s 			page 10


 242 000c 1302     		lsls	r3, r2, #8
 243 000e 104A     		ldr	r2, .L20
 244 0010 9446     		mov	ip, r2
 245 0012 6344     		add	r3, r3, ip
 246 0014 1B78     		ldrb	r3, [r3]
 247 0016 012B     		cmp	r3, #1
 248 0018 16D0     		beq	.L19
 249 001a 0024     		movs	r4, #0
 250 001c 0025     		movs	r5, #0
 251 001e 0EE0     		b	.L16
 252              	.LVL34:
 253              	.L17:
 264:ota_mandatory.c ****         {
 265:ota_mandatory.c ****             result = CYRET_BAD_PARAM;
 266:ota_mandatory.c ****         }
 267:ota_mandatory.c ****         else
 268:ota_mandatory.c ****         {
 269:ota_mandatory.c ****             /* Updating metadata section */
 270:ota_mandatory.c ****             for(idx = 0u; idx < Bootloadable_MAX_NUM_OF_BTLDB; idx++)
 271:ota_mandatory.c ****             {
 272:ota_mandatory.c ****                 result |= Bootloadable_WriteFlashByte((uint32) Bootloadable_MD_BTLDB_ACTIVE_OFFSET(
 254              		.loc 1 272 0 discriminator 3
 255 0020 A11B     		subs	r1, r4, r6
 256 0022 4B42     		rsbs	r3, r1, #0
 257 0024 5941     		adcs	r1, r1, r3
 258 0026 C9B2     		uxtb	r1, r1
 259 0028 2306     		lsls	r3, r4, #24
 260 002a 1B1B     		subs	r3, r3, r4
 261 002c 1802     		lsls	r0, r3, #8
 262 002e 084B     		ldr	r3, .L20
 263 0030 9C46     		mov	ip, r3
 264 0032 6044     		add	r0, r0, ip
 265 0034 FFF7FEFF 		bl	Bootloadable_WriteFlashByte
 266              	.LVL35:
 267 0038 0543     		orrs	r5, r0
 268              	.LVL36:
 270:ota_mandatory.c ****             {
 269              		.loc 1 270 0 discriminator 3
 270 003a 0134     		adds	r4, r4, #1
 271              	.LVL37:
 272 003c E4B2     		uxtb	r4, r4
 273              	.LVL38:
 274              	.L16:
 270:ota_mandatory.c ****             {
 275              		.loc 1 270 0 is_stmt 0 discriminator 1
 276 003e 002C     		cmp	r4, #0
 277 0040 EED0     		beq	.L17
 278 0042 02E0     		b	.L15
 279              	.LVL39:
 280              	.L18:
 258:ota_mandatory.c ****     }
 281              		.loc 1 258 0 is_stmt 1
 282 0044 0125     		movs	r5, #1
 283 0046 00E0     		b	.L15
 284              	.L19:
 265:ota_mandatory.c ****         }
 285              		.loc 1 265 0
ARM GAS  C:\Users\Tymek\AppData\Local\Temp\cc29dC3T.s 			page 11


 286 0048 0125     		movs	r5, #1
 287              	.LVL40:
 288              	.L15:
 273:ota_mandatory.c ****                                                                                             (uint8)
 274:ota_mandatory.c ****             }
 275:ota_mandatory.c ****         }
 276:ota_mandatory.c ****     }
 277:ota_mandatory.c ****     
 278:ota_mandatory.c ****     return (result);
 279:ota_mandatory.c **** }
 289              		.loc 1 279 0
 290 004a 2800     		movs	r0, r5
 291              		@ sp needed
 292              	.LVL41:
 293 004c 70BD     		pop	{r4, r5, r6, pc}
 294              	.L21:
 295 004e C046     		.align	2
 296              	.L20:
 297 0050 D0FF0300 		.word	262096
 298              		.cfi_endproc
 299              	.LFE39:
 300              		.size	Bootloadable_SetActiveApplication, .-Bootloadable_SetActiveApplication
 301              		.section	.text.Clear_ROM_Array,"ax",%progbits
 302              		.align	2
 303              		.global	Clear_ROM_Array
 304              		.code	16
 305              		.thumb_func
 306              		.type	Clear_ROM_Array, %function
 307              	Clear_ROM_Array:
 308              	.LFB41:
 280:ota_mandatory.c **** 
 281:ota_mandatory.c **** 
 282:ota_mandatory.c **** 
 283:ota_mandatory.c **** /*******************************************************************************
 284:ota_mandatory.c **** * Function Name: AfterImageUpdate
 285:ota_mandatory.c **** ********************************************************************************
 286:ota_mandatory.c **** *
 287:ota_mandatory.c **** * Summary:
 288:ota_mandatory.c **** *   This function checks if Self Project Image has been Updated and is running
 289:ota_mandatory.c **** *   for the first time. If so, and if Bonding data is used then it verifies
 290:ota_mandatory.c **** *   bonding data and erases bonding data if it is not valid
 291:ota_mandatory.c **** *
 292:ota_mandatory.c **** * Parameters:
 293:ota_mandatory.c **** *   None
 294:ota_mandatory.c **** *
 295:ota_mandatory.c **** * Return:
 296:ota_mandatory.c **** *   None
 297:ota_mandatory.c **** *
 298:ota_mandatory.c **** *******************************************************************************/
 299:ota_mandatory.c **** void AfterImageUpdate(void)
 300:ota_mandatory.c **** {
 301:ota_mandatory.c ****     #if ((CYBLE_GAP_ROLE_PERIPHERAL || CYBLE_GAP_ROLE_CENTRAL) && (CYBLE_BONDING_REQUIREMENT == CYB
 302:ota_mandatory.c ****         CYBLE_GAP_BONDED_DEV_ADDR_LIST_T bondedDevList;
 303:ota_mandatory.c ****     
 304:ota_mandatory.c ****         #if (PRINT_BOUNDING_DATA == YES)
 305:ota_mandatory.c ****             uint32 i;
 306:ota_mandatory.c ****             uint32 j;
ARM GAS  C:\Users\Tymek\AppData\Local\Temp\cc29dC3T.s 			page 12


 307:ota_mandatory.c ****         #endif
 308:ota_mandatory.c ****     #endif /* ((CYBLE_GAP_ROLE_PERIPHERAL || CYBLE_GAP_ROLE_CENTRAL) && (CYBLE_BONDING_REQUIREMENT 
 309:ota_mandatory.c ****         
 310:ota_mandatory.c ****     if (0u == (uint32) CY_GET_XTND_REG8((volatile uint8 *)UPDATE_FLAG_OFFSET))
 311:ota_mandatory.c ****     {
 312:ota_mandatory.c ****         //DBG_PRINT_TEXT("Application project was updated. ");
 313:ota_mandatory.c ****         
 314:ota_mandatory.c ****         #if ((CYBLE_GAP_ROLE_PERIPHERAL || CYBLE_GAP_ROLE_CENTRAL) && (CYBLE_BONDING_REQUIREMENT ==
 315:ota_mandatory.c ****             if (CYBLE_GATT_DB_CCCD_COUNT == (uint32) CY_GET_XTND_REG8((volatile uint8 *)STACK_UPDAT
 316:ota_mandatory.c ****             {
 317:ota_mandatory.c ****                 //DBG_PRINT_TEXT("CCCD number has not changed.\r\n");
 318:ota_mandatory.c ****             }
 319:ota_mandatory.c ****             else
 320:ota_mandatory.c ****             {
 321:ota_mandatory.c ****                 //DBG_PRINT_TEXT("CCCD number has changed.\r\n");
 322:ota_mandatory.c ****                 //DBG_PRINT_TEXT("Erasing bounding data...");
 323:ota_mandatory.c ****                 
 324:ota_mandatory.c ****                 CyBle_GapGetBondedDevicesList(&bondedDevList);
 325:ota_mandatory.c ****                 
 326:ota_mandatory.c ****                 /* Clean bounded device list. */
 327:ota_mandatory.c ****                 Clear_ROM_Array((uint8 *)&cyBle_flashStorage, sizeof(cyBle_flashStorage));
 328:ota_mandatory.c ****                 
 329:ota_mandatory.c ****                 Bootloadable_SetFlashByte(STACK_UPDATE_FLAG_OFFSET, CYBLE_GATT_DB_CCCD_COUNT);
 330:ota_mandatory.c ****             }
 331:ota_mandatory.c ****         #endif /* ((CYBLE_GAP_ROLE_PERIPHERAL || CYBLE_GAP_ROLE_CENTRAL) && (CYBLE_BONDING_REQUIREM
 332:ota_mandatory.c ****         
 333:ota_mandatory.c ****         Bootloadable_SetFlashByte(UPDATE_FLAG_OFFSET, 1u);
 334:ota_mandatory.c ****         
 335:ota_mandatory.c ****         //DBG_PRINT_TEXT("\r\n");
 336:ota_mandatory.c ****         //DBG_PRINT_TEXT("\r\n");
 337:ota_mandatory.c ****     }
 338:ota_mandatory.c ****     
 339:ota_mandatory.c ****     #if ((CYBLE_GAP_ROLE_PERIPHERAL || CYBLE_GAP_ROLE_CENTRAL) && (CYBLE_BONDING_REQUIREMENT == CYB
 340:ota_mandatory.c ****         #if (PRINT_BOUNDING_DATA == YES)
 341:ota_mandatory.c ****             /* Print bounding data if it was enabled in options.h */
 342:ota_mandatory.c ****             if (CYBLE_GATT_DB_CCCD_COUNT > 0u)
 343:ota_mandatory.c ****             {
 344:ota_mandatory.c ****                 //DBG_PRINT_TEXT("CCCD array(s):\r\n");
 345:ota_mandatory.c ****                 for (i = 0u; i <= CYBLE_GAP_MAX_BONDED_DEVICE; i++)
 346:ota_mandatory.c ****                 {
 347:ota_mandatory.c ****                     //DBG_PRINTF("%lu: ", i);
 348:ota_mandatory.c ****                     for (j = 0u; j < CYBLE_GATT_DB_CCCD_COUNT; j++)
 349:ota_mandatory.c ****                     {
 350:ota_mandatory.c ****                         //DBG_PRINTF("0x%02x ", cyBle_flashStorage.attValuesCCCDFlashMemory[i][j]);
 351:ota_mandatory.c ****                     }
 352:ota_mandatory.c ****                     //DBG_PRINT_TEXT("\r\n");
 353:ota_mandatory.c ****                 }
 354:ota_mandatory.c ****             }
 355:ota_mandatory.c ****             
 356:ota_mandatory.c ****             //DBG_PRINT_TEXT("\r\nBounding array:\r\n");
 357:ota_mandatory.c ****             j = 0u;
 358:ota_mandatory.c ****             for (i = 0u; i < sizeof(cyBle_flashStorage.stackFlashptr); i++)
 359:ota_mandatory.c ****             {
 360:ota_mandatory.c ****                 if (j < LENGHT_OF_UART_ROW)
 361:ota_mandatory.c ****                 {
 362:ota_mandatory.c ****                     //DBG_PRINTF("0x%02x ", cyBle_flashStorage.stackFlashptr[i]);
 363:ota_mandatory.c ****                     j++;
ARM GAS  C:\Users\Tymek\AppData\Local\Temp\cc29dC3T.s 			page 13


 364:ota_mandatory.c ****                 }
 365:ota_mandatory.c ****                 else
 366:ota_mandatory.c ****                 {
 367:ota_mandatory.c ****                     //DBG_PRINTF("0x%02x\r\n", cyBle_flashStorage.stackFlashptr[i]);
 368:ota_mandatory.c ****                     j = 0u;
 369:ota_mandatory.c ****                 }
 370:ota_mandatory.c ****             }
 371:ota_mandatory.c ****             //DBG_PRINT_TEXT("\r\n");
 372:ota_mandatory.c ****             //DBG_PRINT_TEXT("\r\n");
 373:ota_mandatory.c ****         #endif /* (PRINT_BOUNDING_DATA == YES) */
 374:ota_mandatory.c ****     #endif /* ((CYBLE_GAP_ROLE_PERIPHERAL || CYBLE_GAP_ROLE_CENTRAL) && (CYBLE_BONDING_REQUIREMENT 
 375:ota_mandatory.c **** }
 376:ota_mandatory.c **** 
 377:ota_mandatory.c **** #if ((CYBLE_GAP_ROLE_PERIPHERAL || CYBLE_GAP_ROLE_CENTRAL) && (CYBLE_BONDING_REQUIREMENT == CYBLE_B
 378:ota_mandatory.c **** /*******************************************************************************
 379:ota_mandatory.c **** * Function Name: Clear_ROM_Array
 380:ota_mandatory.c **** ********************************************************************************
 381:ota_mandatory.c **** *
 382:ota_mandatory.c **** * Summary:
 383:ota_mandatory.c **** *   Clears specified area in ROM.
 384:ota_mandatory.c **** *
 385:ota_mandatory.c **** * Parameters:
 386:ota_mandatory.c **** *   const uint8 eepromPtr[]:
 387:ota_mandatory.c **** *        Pointer to ROM to be cleared
 388:ota_mandatory.c **** *   uint32 byteCount:
 389:ota_mandatory.c **** *        Size of area to be cleared in bytes
 390:ota_mandatory.c **** *
 391:ota_mandatory.c **** * Return:
 392:ota_mandatory.c **** *   CYRET_UNKNOWN - On failure operation.
 393:ota_mandatory.c **** *   CYRET_SUCCESS - Operation successfully completed.
 394:ota_mandatory.c **** *
 395:ota_mandatory.c **** *******************************************************************************/
 396:ota_mandatory.c **** cystatus Clear_ROM_Array(const uint8 eepromPtr[], uint32 byteCount)
 397:ota_mandatory.c **** {
 309              		.loc 1 397 0
 310              		.cfi_startproc
 311              		@ args = 0, pretend = 0, frame = 256
 312              		@ frame_needed = 0, uses_anonymous_args = 0
 313              	.LVL42:
 314 0000 F0B5     		push	{r4, r5, r6, r7, lr}
 315              		.cfi_def_cfa_offset 20
 316              		.cfi_offset 4, -20
 317              		.cfi_offset 5, -16
 318              		.cfi_offset 6, -12
 319              		.cfi_offset 7, -8
 320              		.cfi_offset 14, -4
 321 0002 4746     		mov	r7, r8
 322 0004 80B4     		push	{r7}
 323              		.cfi_def_cfa_offset 24
 324              		.cfi_offset 8, -24
 325 0006 C0B0     		sub	sp, sp, #256
 326              		.cfi_def_cfa_offset 280
 327 0008 0F00     		movs	r7, r1
 398:ota_mandatory.c ****     uint8 writeBuffer[CY_FLASH_SIZEOF_ROW];
 399:ota_mandatory.c ****     uint32 rowId;
 400:ota_mandatory.c ****     uint32 dstIndex;
 401:ota_mandatory.c ****     uint32 srcIndex;
ARM GAS  C:\Users\Tymek\AppData\Local\Temp\cc29dC3T.s 			page 14


 402:ota_mandatory.c ****     cystatus rc;
 403:ota_mandatory.c ****     uint32 dataOffset;
 404:ota_mandatory.c ****     uint32 byteOffset;
 405:ota_mandatory.c ****     
 406:ota_mandatory.c ****     dataOffset = (uint32)eepromPtr;
 328              		.loc 1 406 0
 329 000a 0600     		movs	r6, r0
 330              	.LVL43:
 407:ota_mandatory.c ****     
 408:ota_mandatory.c ****     if (((uint32)eepromPtr + byteCount) < (CYDEV_FLASH_BASE+CYDEV_FLASH_SIZE))
 331              		.loc 1 408 0
 332 000c 4218     		adds	r2, r0, r1
 333 000e 184B     		ldr	r3, .L33
 334 0010 9A42     		cmp	r2, r3
 335 0012 23D8     		bhi	.L30
 409:ota_mandatory.c ****     {
 410:ota_mandatory.c ****         rowId = (dataOffset / CY_FLASH_SIZEOF_ROW);
 336              		.loc 1 410 0
 337 0014 030A     		lsrs	r3, r0, #8
 338 0016 9846     		mov	r8, r3
 339              	.LVL44:
 411:ota_mandatory.c ****         byteOffset = (CY_FLASH_SIZEOF_ROW * rowId);
 340              		.loc 1 411 0
 341 0018 1C02     		lsls	r4, r3, #8
 342              	.LVL45:
 412:ota_mandatory.c ****         srcIndex = 0u;
 413:ota_mandatory.c **** 
 414:ota_mandatory.c ****         rc = CYRET_SUCCESS;
 343              		.loc 1 414 0
 344 001a 0020     		movs	r0, #0
 345              	.LVL46:
 412:ota_mandatory.c ****         srcIndex = 0u;
 346              		.loc 1 412 0
 347 001c 0025     		movs	r5, #0
 415:ota_mandatory.c **** 
 416:ota_mandatory.c ****         while ((srcIndex < byteCount) && (CYRET_SUCCESS == rc))
 348              		.loc 1 416 0
 349 001e 18E0     		b	.L24
 350              	.LVL47:
 351              	.L27:
 417:ota_mandatory.c ****         {
 418:ota_mandatory.c ****             /* Fill only needed data with zeros. */
 419:ota_mandatory.c ****             for (dstIndex = 0u; dstIndex < CY_FLASH_SIZEOF_ROW; dstIndex++)
 420:ota_mandatory.c ****             {
 421:ota_mandatory.c ****                 if ((byteOffset >= dataOffset) && (srcIndex < byteCount))
 352              		.loc 1 421 0
 353 0020 B442     		cmp	r4, r6
 354 0022 06D3     		bcc	.L25
 355              		.loc 1 421 0 is_stmt 0 discriminator 1
 356 0024 BD42     		cmp	r5, r7
 357 0026 04D2     		bcs	.L25
 422:ota_mandatory.c ****                 {
 423:ota_mandatory.c ****                     writeBuffer[dstIndex] = 0x00;
 358              		.loc 1 423 0 is_stmt 1
 359 0028 0022     		movs	r2, #0
 360 002a 6946     		mov	r1, sp
 361 002c CA54     		strb	r2, [r1, r3]
ARM GAS  C:\Users\Tymek\AppData\Local\Temp\cc29dC3T.s 			page 15


 424:ota_mandatory.c ****                     srcIndex++;
 362              		.loc 1 424 0
 363 002e 0135     		adds	r5, r5, #1
 364              	.LVL48:
 365 0030 02E0     		b	.L26
 366              	.L25:
 425:ota_mandatory.c ****                 }
 426:ota_mandatory.c ****                 else
 427:ota_mandatory.c ****                 {
 428:ota_mandatory.c ****                     writeBuffer[dstIndex] = CY_GET_XTND_REG8(CYDEV_FLASH_BASE + byteOffset);
 367              		.loc 1 428 0
 368 0032 2278     		ldrb	r2, [r4]
 369 0034 6946     		mov	r1, sp
 370 0036 CA54     		strb	r2, [r1, r3]
 371              	.L26:
 429:ota_mandatory.c ****                 }
 430:ota_mandatory.c ****                 byteOffset++;
 372              		.loc 1 430 0 discriminator 2
 373 0038 0134     		adds	r4, r4, #1
 374              	.LVL49:
 419:ota_mandatory.c ****             {
 375              		.loc 1 419 0 discriminator 2
 376 003a 0133     		adds	r3, r3, #1
 377              	.LVL50:
 378 003c 00E0     		b	.L28
 379              	.LVL51:
 380              	.L31:
 381 003e 0023     		movs	r3, #0
 382              	.L28:
 383              	.LVL52:
 419:ota_mandatory.c ****             {
 384              		.loc 1 419 0 is_stmt 0 discriminator 1
 385 0040 FF2B     		cmp	r3, #255
 386 0042 EDD9     		bls	.L27
 431:ota_mandatory.c ****             }
 432:ota_mandatory.c **** 
 433:ota_mandatory.c ****             rc = CySysFlashWriteRow(rowId, writeBuffer);
 387              		.loc 1 433 0 is_stmt 1
 388 0044 6946     		mov	r1, sp
 389 0046 4046     		mov	r0, r8
 390              	.LVL53:
 391 0048 FFF7FEFF 		bl	CySysFlashWriteRow
 392              	.LVL54:
 434:ota_mandatory.c ****             
 435:ota_mandatory.c ****             /* Go to the next row */
 436:ota_mandatory.c ****             rowId++;
 393              		.loc 1 436 0
 394 004c 0123     		movs	r3, #1
 395 004e 9C46     		mov	ip, r3
 396 0050 E044     		add	r8, r8, ip
 397              	.LVL55:
 398              	.L24:
 416:ota_mandatory.c ****         {
 399              		.loc 1 416 0
 400 0052 BD42     		cmp	r5, r7
 401 0054 03D2     		bcs	.L23
 416:ota_mandatory.c ****         {
ARM GAS  C:\Users\Tymek\AppData\Local\Temp\cc29dC3T.s 			page 16


 402              		.loc 1 416 0 is_stmt 0 discriminator 1
 403 0056 0028     		cmp	r0, #0
 404 0058 F1D0     		beq	.L31
 405 005a 00E0     		b	.L23
 406              	.LVL56:
 407              	.L30:
 437:ota_mandatory.c ****         }
 438:ota_mandatory.c ****     }
 439:ota_mandatory.c ****     else
 440:ota_mandatory.c ****     {
 441:ota_mandatory.c ****         rc = CYRET_BAD_PARAM;
 408              		.loc 1 441 0 is_stmt 1
 409 005c 0120     		movs	r0, #1
 410              	.LVL57:
 411              	.L23:
 442:ota_mandatory.c ****     }
 443:ota_mandatory.c ****     
 444:ota_mandatory.c ****     /* Mask return codes from flash, if they are not supported */
 445:ota_mandatory.c ****     if ((CYRET_SUCCESS != rc) && (CYRET_BAD_PARAM != rc))
 412              		.loc 1 445 0
 413 005e 0128     		cmp	r0, #1
 414 0060 01D9     		bls	.L29
 446:ota_mandatory.c ****     {
 447:ota_mandatory.c ****         rc = CYRET_UNKNOWN;
 415              		.loc 1 447 0
 416 0062 0120     		movs	r0, #1
 417              	.LVL58:
 418 0064 4042     		rsbs	r0, r0, #0
 419              	.L29:
 420              	.LVL59:
 448:ota_mandatory.c ****     }
 449:ota_mandatory.c ****     
 450:ota_mandatory.c ****     return (rc);
 451:ota_mandatory.c **** }
 421              		.loc 1 451 0
 422 0066 40B0     		add	sp, sp, #256
 423              		@ sp needed
 424              	.LVL60:
 425              	.LVL61:
 426 0068 04BC     		pop	{r2}
 427 006a 9046     		mov	r8, r2
 428 006c F0BD     		pop	{r4, r5, r6, r7, pc}
 429              	.L34:
 430 006e C046     		.align	2
 431              	.L33:
 432 0070 FFFF0300 		.word	262143
 433              		.cfi_endproc
 434              	.LFE41:
 435              		.size	Clear_ROM_Array, .-Clear_ROM_Array
 436              		.section	.text.AfterImageUpdate,"ax",%progbits
 437              		.align	2
 438              		.global	AfterImageUpdate
 439              		.code	16
 440              		.thumb_func
 441              		.type	AfterImageUpdate, %function
 442              	AfterImageUpdate:
 443              	.LFB40:
ARM GAS  C:\Users\Tymek\AppData\Local\Temp\cc29dC3T.s 			page 17


 300:ota_mandatory.c ****     #if ((CYBLE_GAP_ROLE_PERIPHERAL || CYBLE_GAP_ROLE_CENTRAL) && (CYBLE_BONDING_REQUIREMENT == CYB
 444              		.loc 1 300 0
 445              		.cfi_startproc
 446              		@ args = 0, pretend = 0, frame = 32
 447              		@ frame_needed = 0, uses_anonymous_args = 0
 448 0000 00B5     		push	{lr}
 449              		.cfi_def_cfa_offset 4
 450              		.cfi_offset 14, -4
 451 0002 89B0     		sub	sp, sp, #36
 452              		.cfi_def_cfa_offset 40
 310:ota_mandatory.c ****     {
 453              		.loc 1 310 0
 454 0004 0C4B     		ldr	r3, .L38
 455 0006 1B78     		ldrb	r3, [r3]
 456 0008 002B     		cmp	r3, #0
 457 000a 12D1     		bne	.L35
 315:ota_mandatory.c ****             {
 458              		.loc 1 315 0
 459 000c 0B4B     		ldr	r3, .L38+4
 460 000e 1B78     		ldrb	r3, [r3]
 461 0010 022B     		cmp	r3, #2
 462 0012 0AD0     		beq	.L37
 324:ota_mandatory.c ****                 
 463              		.loc 1 324 0
 464 0014 6846     		mov	r0, sp
 465 0016 FFF7FEFF 		bl	CyBle_GapGetBondedDevicesList
 466              	.LVL62:
 327:ota_mandatory.c ****                 
 467              		.loc 1 327 0
 468 001a 0949     		ldr	r1, .L38+8
 469 001c 0948     		ldr	r0, .L38+12
 470 001e FFF7FEFF 		bl	Clear_ROM_Array
 471              	.LVL63:
 329:ota_mandatory.c ****             }
 472              		.loc 1 329 0
 473 0022 0221     		movs	r1, #2
 474 0024 0548     		ldr	r0, .L38+4
 475 0026 FFF7FEFF 		bl	Bootloadable_SetFlashByte
 476              	.LVL64:
 477              	.L37:
 333:ota_mandatory.c ****         
 478              		.loc 1 333 0
 479 002a 0121     		movs	r1, #1
 480 002c 0248     		ldr	r0, .L38
 481 002e FFF7FEFF 		bl	Bootloadable_SetFlashByte
 482              	.LVL65:
 483              	.L35:
 375:ota_mandatory.c **** 
 484              		.loc 1 375 0
 485 0032 09B0     		add	sp, sp, #36
 486              		@ sp needed
 487 0034 00BD     		pop	{pc}
 488              	.L39:
 489 0036 C046     		.align	2
 490              	.L38:
 491 0038 14FE0300 		.word	261652
 492 003c 14FF0300 		.word	261908
ARM GAS  C:\Users\Tymek\AppData\Local\Temp\cc29dC3T.s 			page 18


 493 0040 85020000 		.word	645
 494 0044 00000000 		.word	cyBle_flashStorage
 495              		.cfi_endproc
 496              	.LFE40:
 497              		.size	AfterImageUpdate, .-AfterImageUpdate
 498              		.weak	Bootloader___cy_region_num
 499              		.text
 500              	.Letext0:
 501              		.file 2 "Generated_Source\\PSoC4/cytypes.h"
 502              		.file 3 "d:\\apps\\cypress psoc creator\\psoc creator\\4.1\\psoc creator\\import\\gnu\\arm\\5.4.1\
 503              		.file 4 "Generated_Source\\PSoC4/BLE_Stack.h"
 504              		.file 5 "Generated_Source\\PSoC4/BLE_StackGap.h"
 505              		.file 6 "Generated_Source\\PSoC4/BLE_gatt.h"
 506              		.file 7 "Generated_Source\\PSoC4/CyFlash.h"
 507              		.file 8 "Generated_Source\\PSoC4/Bootloadable.h"