ARM GAS  C:\Users\Tymek\AppData\Local\Temp\cccYgUSA.s 			page 1


   1              		.syntax unified
   2              		.cpu cortex-m0
   3              		.fpu softvfp
   4              		.eabi_attribute 20, 1
   5              		.eabi_attribute 21, 1
   6              		.eabi_attribute 23, 3
   7              		.eabi_attribute 24, 1
   8              		.eabi_attribute 25, 1
   9              		.eabi_attribute 26, 1
  10              		.eabi_attribute 30, 1
  11              		.eabi_attribute 34, 0
  12              		.eabi_attribute 18, 4
  13              		.thumb
  14              		.syntax unified
  15              		.file	"UART_UART.c"
  16              		.text
  17              	.Ltext0:
  18              		.cfi_sections	.debug_frame
  19              		.section	.text.UART_UartInit,"ax",%progbits
  20              		.align	2
  21              		.global	UART_UartInit
  22              		.code	16
  23              		.thumb_func
  24              		.type	UART_UartInit, %function
  25              	UART_UartInit:
  26              	.LFB2:
  27              		.file 1 "Generated_Source\\PSoC4\\UART_UART.c"
   1:Generated_Source\PSoC4/UART_UART.c **** /***************************************************************************//**
   2:Generated_Source\PSoC4/UART_UART.c **** * \file UART_UART.c
   3:Generated_Source\PSoC4/UART_UART.c **** * \version 3.20
   4:Generated_Source\PSoC4/UART_UART.c **** *
   5:Generated_Source\PSoC4/UART_UART.c **** * \brief
   6:Generated_Source\PSoC4/UART_UART.c **** *  This file provides the source code to the API for the SCB Component in
   7:Generated_Source\PSoC4/UART_UART.c **** *  UART mode.
   8:Generated_Source\PSoC4/UART_UART.c **** *
   9:Generated_Source\PSoC4/UART_UART.c **** * Note:
  10:Generated_Source\PSoC4/UART_UART.c **** *
  11:Generated_Source\PSoC4/UART_UART.c **** *******************************************************************************
  12:Generated_Source\PSoC4/UART_UART.c **** * \copyright
  13:Generated_Source\PSoC4/UART_UART.c **** * Copyright 2013-2016, Cypress Semiconductor Corporation.  All rights reserved.
  14:Generated_Source\PSoC4/UART_UART.c **** * You may use this file only in accordance with the license, terms, conditions,
  15:Generated_Source\PSoC4/UART_UART.c **** * disclaimers, and limitations in the end user license agreement accompanying
  16:Generated_Source\PSoC4/UART_UART.c **** * the software package with which this file was provided.
  17:Generated_Source\PSoC4/UART_UART.c **** *******************************************************************************/
  18:Generated_Source\PSoC4/UART_UART.c **** 
  19:Generated_Source\PSoC4/UART_UART.c **** #include "UART_PVT.h"
  20:Generated_Source\PSoC4/UART_UART.c **** #include "UART_SPI_UART_PVT.h"
  21:Generated_Source\PSoC4/UART_UART.c **** #include "cyapicallbacks.h"
  22:Generated_Source\PSoC4/UART_UART.c **** 
  23:Generated_Source\PSoC4/UART_UART.c **** #if (UART_UART_WAKE_ENABLE_CONST && UART_UART_RX_WAKEUP_IRQ)
  24:Generated_Source\PSoC4/UART_UART.c ****     /**
  25:Generated_Source\PSoC4/UART_UART.c ****     * \addtogroup group_globals
  26:Generated_Source\PSoC4/UART_UART.c ****     * \{
  27:Generated_Source\PSoC4/UART_UART.c ****     */
  28:Generated_Source\PSoC4/UART_UART.c ****     /** This global variable determines whether to enable Skip Start
  29:Generated_Source\PSoC4/UART_UART.c ****     * functionality when UART_Sleep() function is called:
  30:Generated_Source\PSoC4/UART_UART.c ****     * 0 – disable, other values – enable. Default value is 1.
ARM GAS  C:\Users\Tymek\AppData\Local\Temp\cccYgUSA.s 			page 2


  31:Generated_Source\PSoC4/UART_UART.c ****     * It is only available when Enable wakeup from Deep Sleep Mode is enabled.
  32:Generated_Source\PSoC4/UART_UART.c ****     */
  33:Generated_Source\PSoC4/UART_UART.c ****     uint8 UART_skipStart = 1u;
  34:Generated_Source\PSoC4/UART_UART.c ****     /** \} globals */
  35:Generated_Source\PSoC4/UART_UART.c **** #endif /* (UART_UART_WAKE_ENABLE_CONST && UART_UART_RX_WAKEUP_IRQ) */
  36:Generated_Source\PSoC4/UART_UART.c **** 
  37:Generated_Source\PSoC4/UART_UART.c **** #if(UART_SCB_MODE_UNCONFIG_CONST_CFG)
  38:Generated_Source\PSoC4/UART_UART.c **** 
  39:Generated_Source\PSoC4/UART_UART.c ****     /***************************************
  40:Generated_Source\PSoC4/UART_UART.c ****     *  Configuration Structure Initialization
  41:Generated_Source\PSoC4/UART_UART.c ****     ***************************************/
  42:Generated_Source\PSoC4/UART_UART.c **** 
  43:Generated_Source\PSoC4/UART_UART.c ****     const UART_UART_INIT_STRUCT UART_configUart =
  44:Generated_Source\PSoC4/UART_UART.c ****     {
  45:Generated_Source\PSoC4/UART_UART.c ****         UART_UART_SUB_MODE,
  46:Generated_Source\PSoC4/UART_UART.c ****         UART_UART_DIRECTION,
  47:Generated_Source\PSoC4/UART_UART.c ****         UART_UART_DATA_BITS_NUM,
  48:Generated_Source\PSoC4/UART_UART.c ****         UART_UART_PARITY_TYPE,
  49:Generated_Source\PSoC4/UART_UART.c ****         UART_UART_STOP_BITS_NUM,
  50:Generated_Source\PSoC4/UART_UART.c ****         UART_UART_OVS_FACTOR,
  51:Generated_Source\PSoC4/UART_UART.c ****         UART_UART_IRDA_LOW_POWER,
  52:Generated_Source\PSoC4/UART_UART.c ****         UART_UART_MEDIAN_FILTER_ENABLE,
  53:Generated_Source\PSoC4/UART_UART.c ****         UART_UART_RETRY_ON_NACK,
  54:Generated_Source\PSoC4/UART_UART.c ****         UART_UART_IRDA_POLARITY,
  55:Generated_Source\PSoC4/UART_UART.c ****         UART_UART_DROP_ON_PARITY_ERR,
  56:Generated_Source\PSoC4/UART_UART.c ****         UART_UART_DROP_ON_FRAME_ERR,
  57:Generated_Source\PSoC4/UART_UART.c ****         UART_UART_WAKE_ENABLE,
  58:Generated_Source\PSoC4/UART_UART.c ****         0u,
  59:Generated_Source\PSoC4/UART_UART.c ****         NULL,
  60:Generated_Source\PSoC4/UART_UART.c ****         0u,
  61:Generated_Source\PSoC4/UART_UART.c ****         NULL,
  62:Generated_Source\PSoC4/UART_UART.c ****         UART_UART_MP_MODE_ENABLE,
  63:Generated_Source\PSoC4/UART_UART.c ****         UART_UART_MP_ACCEPT_ADDRESS,
  64:Generated_Source\PSoC4/UART_UART.c ****         UART_UART_MP_RX_ADDRESS,
  65:Generated_Source\PSoC4/UART_UART.c ****         UART_UART_MP_RX_ADDRESS_MASK,
  66:Generated_Source\PSoC4/UART_UART.c ****         (uint32) UART_SCB_IRQ_INTERNAL,
  67:Generated_Source\PSoC4/UART_UART.c ****         UART_UART_INTR_RX_MASK,
  68:Generated_Source\PSoC4/UART_UART.c ****         UART_UART_RX_TRIGGER_LEVEL,
  69:Generated_Source\PSoC4/UART_UART.c ****         UART_UART_INTR_TX_MASK,
  70:Generated_Source\PSoC4/UART_UART.c ****         UART_UART_TX_TRIGGER_LEVEL,
  71:Generated_Source\PSoC4/UART_UART.c ****         (uint8) UART_UART_BYTE_MODE_ENABLE,
  72:Generated_Source\PSoC4/UART_UART.c ****         (uint8) UART_UART_CTS_ENABLE,
  73:Generated_Source\PSoC4/UART_UART.c ****         (uint8) UART_UART_CTS_POLARITY,
  74:Generated_Source\PSoC4/UART_UART.c ****         (uint8) UART_UART_RTS_POLARITY,
  75:Generated_Source\PSoC4/UART_UART.c ****         (uint8) UART_UART_RTS_FIFO_LEVEL
  76:Generated_Source\PSoC4/UART_UART.c ****     };
  77:Generated_Source\PSoC4/UART_UART.c **** 
  78:Generated_Source\PSoC4/UART_UART.c **** 
  79:Generated_Source\PSoC4/UART_UART.c ****     /*******************************************************************************
  80:Generated_Source\PSoC4/UART_UART.c ****     * Function Name: UART_UartInit
  81:Generated_Source\PSoC4/UART_UART.c ****     ****************************************************************************//**
  82:Generated_Source\PSoC4/UART_UART.c ****     *
  83:Generated_Source\PSoC4/UART_UART.c ****     *  Configures the UART for UART operation.
  84:Generated_Source\PSoC4/UART_UART.c ****     *
  85:Generated_Source\PSoC4/UART_UART.c ****     *  This function is intended specifically to be used when the UART
  86:Generated_Source\PSoC4/UART_UART.c ****     *  configuration is set to “Unconfigured UART” in the customizer.
  87:Generated_Source\PSoC4/UART_UART.c ****     *  After initializing the UART in UART mode using this function,
ARM GAS  C:\Users\Tymek\AppData\Local\Temp\cccYgUSA.s 			page 3


  88:Generated_Source\PSoC4/UART_UART.c ****     *  the component can be enabled using the UART_Start() or
  89:Generated_Source\PSoC4/UART_UART.c ****     * UART_Enable() function.
  90:Generated_Source\PSoC4/UART_UART.c ****     *  This function uses a pointer to a structure that provides the configuration
  91:Generated_Source\PSoC4/UART_UART.c ****     *  settings. This structure contains the same information that would otherwise
  92:Generated_Source\PSoC4/UART_UART.c ****     *  be provided by the customizer settings.
  93:Generated_Source\PSoC4/UART_UART.c ****     *
  94:Generated_Source\PSoC4/UART_UART.c ****     *  \param config: pointer to a structure that contains the following list of
  95:Generated_Source\PSoC4/UART_UART.c ****     *   fields. These fields match the selections available in the customizer.
  96:Generated_Source\PSoC4/UART_UART.c ****     *   Refer to the customizer for further description of the settings.
  97:Generated_Source\PSoC4/UART_UART.c ****     *
  98:Generated_Source\PSoC4/UART_UART.c ****     *******************************************************************************/
  99:Generated_Source\PSoC4/UART_UART.c ****     void UART_UartInit(const UART_UART_INIT_STRUCT *config)
 100:Generated_Source\PSoC4/UART_UART.c ****     {
 101:Generated_Source\PSoC4/UART_UART.c ****         uint32 pinsConfig;
 102:Generated_Source\PSoC4/UART_UART.c **** 
 103:Generated_Source\PSoC4/UART_UART.c ****         if (NULL == config)
 104:Generated_Source\PSoC4/UART_UART.c ****         {
 105:Generated_Source\PSoC4/UART_UART.c ****             CYASSERT(0u != 0u); /* Halt execution due to bad function parameter */
 106:Generated_Source\PSoC4/UART_UART.c ****         }
 107:Generated_Source\PSoC4/UART_UART.c ****         else
 108:Generated_Source\PSoC4/UART_UART.c ****         {
 109:Generated_Source\PSoC4/UART_UART.c ****             /* Get direction to configure UART pins: TX, RX or TX+RX */
 110:Generated_Source\PSoC4/UART_UART.c ****             pinsConfig  = config->direction;
 111:Generated_Source\PSoC4/UART_UART.c **** 
 112:Generated_Source\PSoC4/UART_UART.c ****         #if !(UART_CY_SCBIP_V0 || UART_CY_SCBIP_V1)
 113:Generated_Source\PSoC4/UART_UART.c ****             /* Add RTS and CTS pins to configure */
 114:Generated_Source\PSoC4/UART_UART.c ****             pinsConfig |= (0u != config->rtsRxFifoLevel) ? (UART_UART_RTS_PIN_ENABLE) : (0u);
 115:Generated_Source\PSoC4/UART_UART.c ****             pinsConfig |= (0u != config->enableCts)      ? (UART_UART_CTS_PIN_ENABLE) : (0u);
 116:Generated_Source\PSoC4/UART_UART.c ****         #endif /* !(UART_CY_SCBIP_V0 || UART_CY_SCBIP_V1) */
 117:Generated_Source\PSoC4/UART_UART.c **** 
 118:Generated_Source\PSoC4/UART_UART.c ****             /* Configure pins */
 119:Generated_Source\PSoC4/UART_UART.c ****             UART_SetPins(UART_SCB_MODE_UART, config->mode, pinsConfig);
 120:Generated_Source\PSoC4/UART_UART.c **** 
 121:Generated_Source\PSoC4/UART_UART.c ****             /* Store internal configuration */
 122:Generated_Source\PSoC4/UART_UART.c ****             UART_scbMode       = (uint8) UART_SCB_MODE_UART;
 123:Generated_Source\PSoC4/UART_UART.c ****             UART_scbEnableWake = (uint8) config->enableWake;
 124:Generated_Source\PSoC4/UART_UART.c ****             UART_scbEnableIntr = (uint8) config->enableInterrupt;
 125:Generated_Source\PSoC4/UART_UART.c **** 
 126:Generated_Source\PSoC4/UART_UART.c ****             /* Set RX direction internal variables */
 127:Generated_Source\PSoC4/UART_UART.c ****             UART_rxBuffer      =         config->rxBuffer;
 128:Generated_Source\PSoC4/UART_UART.c ****             UART_rxDataBits    = (uint8) config->dataBits;
 129:Generated_Source\PSoC4/UART_UART.c ****             UART_rxBufferSize  = (uint8) config->rxBufferSize;
 130:Generated_Source\PSoC4/UART_UART.c **** 
 131:Generated_Source\PSoC4/UART_UART.c ****             /* Set TX direction internal variables */
 132:Generated_Source\PSoC4/UART_UART.c ****             UART_txBuffer      =         config->txBuffer;
 133:Generated_Source\PSoC4/UART_UART.c ****             UART_txDataBits    = (uint8) config->dataBits;
 134:Generated_Source\PSoC4/UART_UART.c ****             UART_txBufferSize  = (uint8) config->txBufferSize;
 135:Generated_Source\PSoC4/UART_UART.c **** 
 136:Generated_Source\PSoC4/UART_UART.c ****             /* Configure UART interface */
 137:Generated_Source\PSoC4/UART_UART.c ****             if(UART_UART_MODE_IRDA == config->mode)
 138:Generated_Source\PSoC4/UART_UART.c ****             {
 139:Generated_Source\PSoC4/UART_UART.c ****                 /* OVS settings: IrDA */
 140:Generated_Source\PSoC4/UART_UART.c ****                 UART_CTRL_REG  = ((0u != config->enableIrdaLowPower) ?
 141:Generated_Source\PSoC4/UART_UART.c ****                                                 (UART_UART_GET_CTRL_OVS_IRDA_LP(config->oversample)
 142:Generated_Source\PSoC4/UART_UART.c ****                                                 (UART_CTRL_OVS_IRDA_OVS16));
 143:Generated_Source\PSoC4/UART_UART.c ****             }
 144:Generated_Source\PSoC4/UART_UART.c ****             else
ARM GAS  C:\Users\Tymek\AppData\Local\Temp\cccYgUSA.s 			page 4


 145:Generated_Source\PSoC4/UART_UART.c ****             {
 146:Generated_Source\PSoC4/UART_UART.c ****                 /* OVS settings: UART and SmartCard */
 147:Generated_Source\PSoC4/UART_UART.c ****                 UART_CTRL_REG  = UART_GET_CTRL_OVS(config->oversample);
 148:Generated_Source\PSoC4/UART_UART.c ****             }
 149:Generated_Source\PSoC4/UART_UART.c **** 
 150:Generated_Source\PSoC4/UART_UART.c ****             UART_CTRL_REG     |= UART_GET_CTRL_BYTE_MODE  (config->enableByteMode)      |
 151:Generated_Source\PSoC4/UART_UART.c ****                                              UART_GET_CTRL_ADDR_ACCEPT(config->multiprocAcceptAddr)
 152:Generated_Source\PSoC4/UART_UART.c ****                                              UART_CTRL_UART;
 153:Generated_Source\PSoC4/UART_UART.c **** 
 154:Generated_Source\PSoC4/UART_UART.c ****             /* Configure sub-mode: UART, SmartCard or IrDA */
 155:Generated_Source\PSoC4/UART_UART.c ****             UART_UART_CTRL_REG = UART_GET_UART_CTRL_MODE(config->mode);
 156:Generated_Source\PSoC4/UART_UART.c **** 
 157:Generated_Source\PSoC4/UART_UART.c ****             /* Configure RX direction */
 158:Generated_Source\PSoC4/UART_UART.c ****             UART_UART_RX_CTRL_REG = UART_GET_UART_RX_CTRL_MODE(config->stopBits)              |
 159:Generated_Source\PSoC4/UART_UART.c ****                                         UART_GET_UART_RX_CTRL_POLARITY(config->enableInvertedRx)   
 160:Generated_Source\PSoC4/UART_UART.c ****                                         UART_GET_UART_RX_CTRL_MP_MODE(config->enableMultiproc)     
 161:Generated_Source\PSoC4/UART_UART.c ****                                         UART_GET_UART_RX_CTRL_DROP_ON_PARITY_ERR(config->dropOnPari
 162:Generated_Source\PSoC4/UART_UART.c ****                                         UART_GET_UART_RX_CTRL_DROP_ON_FRAME_ERR(config->dropOnFrame
 163:Generated_Source\PSoC4/UART_UART.c **** 
 164:Generated_Source\PSoC4/UART_UART.c ****             if(UART_UART_PARITY_NONE != config->parity)
 165:Generated_Source\PSoC4/UART_UART.c ****             {
 166:Generated_Source\PSoC4/UART_UART.c ****                UART_UART_RX_CTRL_REG |= UART_GET_UART_RX_CTRL_PARITY(config->parity) |
 167:Generated_Source\PSoC4/UART_UART.c ****                                                     UART_UART_RX_CTRL_PARITY_ENABLED;
 168:Generated_Source\PSoC4/UART_UART.c ****             }
 169:Generated_Source\PSoC4/UART_UART.c **** 
 170:Generated_Source\PSoC4/UART_UART.c ****             UART_RX_CTRL_REG      = UART_GET_RX_CTRL_DATA_WIDTH(config->dataBits)       |
 171:Generated_Source\PSoC4/UART_UART.c ****                                                 UART_GET_RX_CTRL_MEDIAN(config->enableMedianFilter)
 172:Generated_Source\PSoC4/UART_UART.c ****                                                 UART_GET_UART_RX_CTRL_ENABLED(config->direction);
 173:Generated_Source\PSoC4/UART_UART.c **** 
 174:Generated_Source\PSoC4/UART_UART.c ****             UART_RX_FIFO_CTRL_REG = UART_GET_RX_FIFO_CTRL_TRIGGER_LEVEL(config->rxTriggerLevel);
 175:Generated_Source\PSoC4/UART_UART.c **** 
 176:Generated_Source\PSoC4/UART_UART.c ****             /* Configure MP address */
 177:Generated_Source\PSoC4/UART_UART.c ****             UART_RX_MATCH_REG     = UART_GET_RX_MATCH_ADDR(config->multiprocAddr) |
 178:Generated_Source\PSoC4/UART_UART.c ****                                                 UART_GET_RX_MATCH_MASK(config->multiprocAddrMask);
 179:Generated_Source\PSoC4/UART_UART.c **** 
 180:Generated_Source\PSoC4/UART_UART.c ****             /* Configure RX direction */
 181:Generated_Source\PSoC4/UART_UART.c ****             UART_UART_TX_CTRL_REG = UART_GET_UART_TX_CTRL_MODE(config->stopBits) |
 182:Generated_Source\PSoC4/UART_UART.c ****                                                 UART_GET_UART_TX_CTRL_RETRY_NACK(config->enableRetr
 183:Generated_Source\PSoC4/UART_UART.c **** 
 184:Generated_Source\PSoC4/UART_UART.c ****             if(UART_UART_PARITY_NONE != config->parity)
 185:Generated_Source\PSoC4/UART_UART.c ****             {
 186:Generated_Source\PSoC4/UART_UART.c ****                UART_UART_TX_CTRL_REG |= UART_GET_UART_TX_CTRL_PARITY(config->parity) |
 187:Generated_Source\PSoC4/UART_UART.c ****                                                     UART_UART_TX_CTRL_PARITY_ENABLED;
 188:Generated_Source\PSoC4/UART_UART.c ****             }
 189:Generated_Source\PSoC4/UART_UART.c **** 
 190:Generated_Source\PSoC4/UART_UART.c ****             UART_TX_CTRL_REG      = UART_GET_TX_CTRL_DATA_WIDTH(config->dataBits)    |
 191:Generated_Source\PSoC4/UART_UART.c ****                                                 UART_GET_UART_TX_CTRL_ENABLED(config->direction);
 192:Generated_Source\PSoC4/UART_UART.c **** 
 193:Generated_Source\PSoC4/UART_UART.c ****             UART_TX_FIFO_CTRL_REG = UART_GET_TX_FIFO_CTRL_TRIGGER_LEVEL(config->txTriggerLevel);
 194:Generated_Source\PSoC4/UART_UART.c **** 
 195:Generated_Source\PSoC4/UART_UART.c ****         #if !(UART_CY_SCBIP_V0 || UART_CY_SCBIP_V1)
 196:Generated_Source\PSoC4/UART_UART.c ****             UART_UART_FLOW_CTRL_REG = UART_GET_UART_FLOW_CTRL_CTS_ENABLE(config->enableCts) | \
 197:Generated_Source\PSoC4/UART_UART.c ****                                             UART_GET_UART_FLOW_CTRL_CTS_POLARITY (config->ctsPolari
 198:Generated_Source\PSoC4/UART_UART.c ****                                             UART_GET_UART_FLOW_CTRL_RTS_POLARITY (config->rtsPolari
 199:Generated_Source\PSoC4/UART_UART.c ****                                             UART_GET_UART_FLOW_CTRL_TRIGGER_LEVEL(config->rtsRxFifo
 200:Generated_Source\PSoC4/UART_UART.c ****         #endif /* !(UART_CY_SCBIP_V0 || UART_CY_SCBIP_V1) */
 201:Generated_Source\PSoC4/UART_UART.c **** 
ARM GAS  C:\Users\Tymek\AppData\Local\Temp\cccYgUSA.s 			page 5


 202:Generated_Source\PSoC4/UART_UART.c ****             /* Configure interrupt with UART handler but do not enable it */
 203:Generated_Source\PSoC4/UART_UART.c ****             CyIntDisable    (UART_ISR_NUMBER);
 204:Generated_Source\PSoC4/UART_UART.c ****             CyIntSetPriority(UART_ISR_NUMBER, UART_ISR_PRIORITY);
 205:Generated_Source\PSoC4/UART_UART.c ****             (void) CyIntSetVector(UART_ISR_NUMBER, &UART_SPI_UART_ISR);
 206:Generated_Source\PSoC4/UART_UART.c **** 
 207:Generated_Source\PSoC4/UART_UART.c ****             /* Configure WAKE interrupt */
 208:Generated_Source\PSoC4/UART_UART.c ****         #if(UART_UART_RX_WAKEUP_IRQ)
 209:Generated_Source\PSoC4/UART_UART.c ****             CyIntDisable    (UART_RX_WAKE_ISR_NUMBER);
 210:Generated_Source\PSoC4/UART_UART.c ****             CyIntSetPriority(UART_RX_WAKE_ISR_NUMBER, UART_RX_WAKE_ISR_PRIORITY);
 211:Generated_Source\PSoC4/UART_UART.c ****             (void) CyIntSetVector(UART_RX_WAKE_ISR_NUMBER, &UART_UART_WAKEUP_ISR);
 212:Generated_Source\PSoC4/UART_UART.c ****         #endif /* (UART_UART_RX_WAKEUP_IRQ) */
 213:Generated_Source\PSoC4/UART_UART.c **** 
 214:Generated_Source\PSoC4/UART_UART.c ****             /* Configure interrupt sources */
 215:Generated_Source\PSoC4/UART_UART.c ****             UART_INTR_I2C_EC_MASK_REG = UART_NO_INTR_SOURCES;
 216:Generated_Source\PSoC4/UART_UART.c ****             UART_INTR_SPI_EC_MASK_REG = UART_NO_INTR_SOURCES;
 217:Generated_Source\PSoC4/UART_UART.c ****             UART_INTR_SLAVE_MASK_REG  = UART_NO_INTR_SOURCES;
 218:Generated_Source\PSoC4/UART_UART.c ****             UART_INTR_MASTER_MASK_REG = UART_NO_INTR_SOURCES;
 219:Generated_Source\PSoC4/UART_UART.c ****             UART_INTR_RX_MASK_REG     = config->rxInterruptMask;
 220:Generated_Source\PSoC4/UART_UART.c ****             UART_INTR_TX_MASK_REG     = config->txInterruptMask;
 221:Generated_Source\PSoC4/UART_UART.c ****         
 222:Generated_Source\PSoC4/UART_UART.c ****             /* Configure TX interrupt sources to restore. */
 223:Generated_Source\PSoC4/UART_UART.c ****             UART_IntrTxMask = LO16(UART_INTR_TX_MASK_REG);
 224:Generated_Source\PSoC4/UART_UART.c **** 
 225:Generated_Source\PSoC4/UART_UART.c ****             /* Clear RX buffer indexes */
 226:Generated_Source\PSoC4/UART_UART.c ****             UART_rxBufferHead     = 0u;
 227:Generated_Source\PSoC4/UART_UART.c ****             UART_rxBufferTail     = 0u;
 228:Generated_Source\PSoC4/UART_UART.c ****             UART_rxBufferOverflow = 0u;
 229:Generated_Source\PSoC4/UART_UART.c **** 
 230:Generated_Source\PSoC4/UART_UART.c ****             /* Clear TX buffer indexes */
 231:Generated_Source\PSoC4/UART_UART.c ****             UART_txBufferHead = 0u;
 232:Generated_Source\PSoC4/UART_UART.c ****             UART_txBufferTail = 0u;
 233:Generated_Source\PSoC4/UART_UART.c ****         }
 234:Generated_Source\PSoC4/UART_UART.c ****     }
 235:Generated_Source\PSoC4/UART_UART.c **** 
 236:Generated_Source\PSoC4/UART_UART.c **** #else
 237:Generated_Source\PSoC4/UART_UART.c **** 
 238:Generated_Source\PSoC4/UART_UART.c ****     /*******************************************************************************
 239:Generated_Source\PSoC4/UART_UART.c ****     * Function Name: UART_UartInit
 240:Generated_Source\PSoC4/UART_UART.c ****     ****************************************************************************//**
 241:Generated_Source\PSoC4/UART_UART.c ****     *
 242:Generated_Source\PSoC4/UART_UART.c ****     *  Configures the SCB for the UART operation.
 243:Generated_Source\PSoC4/UART_UART.c ****     *
 244:Generated_Source\PSoC4/UART_UART.c ****     *******************************************************************************/
 245:Generated_Source\PSoC4/UART_UART.c ****     void UART_UartInit(void)
 246:Generated_Source\PSoC4/UART_UART.c ****     {
  28              		.loc 1 246 0
  29              		.cfi_startproc
  30              		@ args = 0, pretend = 0, frame = 0
  31              		@ frame_needed = 0, uses_anonymous_args = 0
  32              		@ link register save eliminated.
 247:Generated_Source\PSoC4/UART_UART.c ****         /* Configure UART interface */
 248:Generated_Source\PSoC4/UART_UART.c ****         UART_CTRL_REG = UART_UART_DEFAULT_CTRL;
  33              		.loc 1 248 0
  34 0000 144A     		ldr	r2, .L2
  35 0002 154B     		ldr	r3, .L2+4
  36 0004 1A60     		str	r2, [r3]
 249:Generated_Source\PSoC4/UART_UART.c **** 
ARM GAS  C:\Users\Tymek\AppData\Local\Temp\cccYgUSA.s 			page 6


 250:Generated_Source\PSoC4/UART_UART.c ****         /* Configure sub-mode: UART, SmartCard or IrDA */
 251:Generated_Source\PSoC4/UART_UART.c ****         UART_UART_CTRL_REG = UART_UART_DEFAULT_UART_CTRL;
  37              		.loc 1 251 0
  38 0006 0023     		movs	r3, #0
  39 0008 144A     		ldr	r2, .L2+8
  40 000a 1360     		str	r3, [r2]
 252:Generated_Source\PSoC4/UART_UART.c **** 
 253:Generated_Source\PSoC4/UART_UART.c ****         /* Configure RX direction */
 254:Generated_Source\PSoC4/UART_UART.c ****         UART_UART_RX_CTRL_REG = UART_UART_DEFAULT_UART_RX_CTRL;
  41              		.loc 1 254 0
  42 000c 0122     		movs	r2, #1
  43 000e 1449     		ldr	r1, .L2+12
  44 0010 0A60     		str	r2, [r1]
 255:Generated_Source\PSoC4/UART_UART.c ****         UART_RX_CTRL_REG      = UART_UART_DEFAULT_RX_CTRL;
  45              		.loc 1 255 0
  46 0012 0721     		movs	r1, #7
  47 0014 1348     		ldr	r0, .L2+16
  48 0016 0160     		str	r1, [r0]
 256:Generated_Source\PSoC4/UART_UART.c ****         UART_RX_FIFO_CTRL_REG = UART_UART_DEFAULT_RX_FIFO_CTRL;
  49              		.loc 1 256 0
  50 0018 1348     		ldr	r0, .L2+20
  51 001a 0160     		str	r1, [r0]
 257:Generated_Source\PSoC4/UART_UART.c ****         UART_RX_MATCH_REG     = UART_UART_DEFAULT_RX_MATCH_REG;
  52              		.loc 1 257 0
  53 001c 1349     		ldr	r1, .L2+24
  54 001e 0B60     		str	r3, [r1]
 258:Generated_Source\PSoC4/UART_UART.c **** 
 259:Generated_Source\PSoC4/UART_UART.c ****         /* Configure TX direction */
 260:Generated_Source\PSoC4/UART_UART.c ****         UART_UART_TX_CTRL_REG = UART_UART_DEFAULT_UART_TX_CTRL;
  55              		.loc 1 260 0
  56 0020 1349     		ldr	r1, .L2+28
  57 0022 0A60     		str	r2, [r1]
 261:Generated_Source\PSoC4/UART_UART.c ****         UART_TX_CTRL_REG      = UART_UART_DEFAULT_TX_CTRL;
  58              		.loc 1 261 0
  59 0024 1349     		ldr	r1, .L2+32
  60 0026 144A     		ldr	r2, .L2+36
  61 0028 1160     		str	r1, [r2]
 262:Generated_Source\PSoC4/UART_UART.c ****         UART_TX_FIFO_CTRL_REG = UART_UART_DEFAULT_TX_FIFO_CTRL;
  62              		.loc 1 262 0
  63 002a 144A     		ldr	r2, .L2+40
  64 002c 1360     		str	r3, [r2]
 263:Generated_Source\PSoC4/UART_UART.c **** 
 264:Generated_Source\PSoC4/UART_UART.c ****     #if !(UART_CY_SCBIP_V0 || UART_CY_SCBIP_V1)
 265:Generated_Source\PSoC4/UART_UART.c ****         UART_UART_FLOW_CTRL_REG = UART_UART_DEFAULT_FLOW_CTRL;
  65              		.loc 1 265 0
  66 002e 0421     		movs	r1, #4
  67 0030 134A     		ldr	r2, .L2+44
  68 0032 1160     		str	r1, [r2]
 266:Generated_Source\PSoC4/UART_UART.c ****     #endif /* !(UART_CY_SCBIP_V0 || UART_CY_SCBIP_V1) */
 267:Generated_Source\PSoC4/UART_UART.c **** 
 268:Generated_Source\PSoC4/UART_UART.c ****         /* Configure interrupt with UART handler but do not enable it */
 269:Generated_Source\PSoC4/UART_UART.c ****     #if(UART_SCB_IRQ_INTERNAL)
 270:Generated_Source\PSoC4/UART_UART.c ****         CyIntDisable    (UART_ISR_NUMBER);
 271:Generated_Source\PSoC4/UART_UART.c ****         CyIntSetPriority(UART_ISR_NUMBER, UART_ISR_PRIORITY);
 272:Generated_Source\PSoC4/UART_UART.c ****         (void) CyIntSetVector(UART_ISR_NUMBER, &UART_SPI_UART_ISR);
 273:Generated_Source\PSoC4/UART_UART.c ****     #endif /* (UART_SCB_IRQ_INTERNAL) */
 274:Generated_Source\PSoC4/UART_UART.c **** 
ARM GAS  C:\Users\Tymek\AppData\Local\Temp\cccYgUSA.s 			page 7


 275:Generated_Source\PSoC4/UART_UART.c ****         /* Configure WAKE interrupt */
 276:Generated_Source\PSoC4/UART_UART.c ****     #if(UART_UART_RX_WAKEUP_IRQ)
 277:Generated_Source\PSoC4/UART_UART.c ****         CyIntDisable    (UART_RX_WAKE_ISR_NUMBER);
 278:Generated_Source\PSoC4/UART_UART.c ****         CyIntSetPriority(UART_RX_WAKE_ISR_NUMBER, UART_RX_WAKE_ISR_PRIORITY);
 279:Generated_Source\PSoC4/UART_UART.c ****         (void) CyIntSetVector(UART_RX_WAKE_ISR_NUMBER, &UART_UART_WAKEUP_ISR);
 280:Generated_Source\PSoC4/UART_UART.c ****     #endif /* (UART_UART_RX_WAKEUP_IRQ) */
 281:Generated_Source\PSoC4/UART_UART.c **** 
 282:Generated_Source\PSoC4/UART_UART.c ****         /* Configure interrupt sources */
 283:Generated_Source\PSoC4/UART_UART.c ****         UART_INTR_I2C_EC_MASK_REG = UART_UART_DEFAULT_INTR_I2C_EC_MASK;
  69              		.loc 1 283 0
  70 0034 134A     		ldr	r2, .L2+48
  71 0036 1360     		str	r3, [r2]
 284:Generated_Source\PSoC4/UART_UART.c ****         UART_INTR_SPI_EC_MASK_REG = UART_UART_DEFAULT_INTR_SPI_EC_MASK;
  72              		.loc 1 284 0
  73 0038 134A     		ldr	r2, .L2+52
  74 003a 1360     		str	r3, [r2]
 285:Generated_Source\PSoC4/UART_UART.c ****         UART_INTR_SLAVE_MASK_REG  = UART_UART_DEFAULT_INTR_SLAVE_MASK;
  75              		.loc 1 285 0
  76 003c 134A     		ldr	r2, .L2+56
  77 003e 1360     		str	r3, [r2]
 286:Generated_Source\PSoC4/UART_UART.c ****         UART_INTR_MASTER_MASK_REG = UART_UART_DEFAULT_INTR_MASTER_MASK;
  78              		.loc 1 286 0
  79 0040 134A     		ldr	r2, .L2+60
  80 0042 1360     		str	r3, [r2]
 287:Generated_Source\PSoC4/UART_UART.c ****         UART_INTR_RX_MASK_REG     = UART_UART_DEFAULT_INTR_RX_MASK;
  81              		.loc 1 287 0
  82 0044 134A     		ldr	r2, .L2+64
  83 0046 1360     		str	r3, [r2]
 288:Generated_Source\PSoC4/UART_UART.c ****         UART_INTR_TX_MASK_REG     = UART_UART_DEFAULT_INTR_TX_MASK;
  84              		.loc 1 288 0
  85 0048 134A     		ldr	r2, .L2+68
  86 004a 1360     		str	r3, [r2]
 289:Generated_Source\PSoC4/UART_UART.c ****     
 290:Generated_Source\PSoC4/UART_UART.c ****         /* Configure TX interrupt sources to restore. */
 291:Generated_Source\PSoC4/UART_UART.c ****         UART_IntrTxMask = LO16(UART_INTR_TX_MASK_REG);
  87              		.loc 1 291 0
  88 004c 1268     		ldr	r2, [r2]
  89 004e 134B     		ldr	r3, .L2+72
  90 0050 1A80     		strh	r2, [r3]
 292:Generated_Source\PSoC4/UART_UART.c **** 
 293:Generated_Source\PSoC4/UART_UART.c ****     #if(UART_INTERNAL_RX_SW_BUFFER_CONST)
 294:Generated_Source\PSoC4/UART_UART.c ****         UART_rxBufferHead     = 0u;
 295:Generated_Source\PSoC4/UART_UART.c ****         UART_rxBufferTail     = 0u;
 296:Generated_Source\PSoC4/UART_UART.c ****         UART_rxBufferOverflow = 0u;
 297:Generated_Source\PSoC4/UART_UART.c ****     #endif /* (UART_INTERNAL_RX_SW_BUFFER_CONST) */
 298:Generated_Source\PSoC4/UART_UART.c **** 
 299:Generated_Source\PSoC4/UART_UART.c ****     #if(UART_INTERNAL_TX_SW_BUFFER_CONST)
 300:Generated_Source\PSoC4/UART_UART.c ****         UART_txBufferHead = 0u;
 301:Generated_Source\PSoC4/UART_UART.c ****         UART_txBufferTail = 0u;
 302:Generated_Source\PSoC4/UART_UART.c ****     #endif /* (UART_INTERNAL_TX_SW_BUFFER_CONST) */
 303:Generated_Source\PSoC4/UART_UART.c ****     }
  91              		.loc 1 303 0
  92              		@ sp needed
  93 0052 7047     		bx	lr
  94              	.L3:
  95              		.align	2
  96              	.L2:
ARM GAS  C:\Users\Tymek\AppData\Local\Temp\cccYgUSA.s 			page 8


  97 0054 09000002 		.word	33554441
  98 0058 00002440 		.word	1076101120
  99 005c 40002440 		.word	1076101184
 100 0060 48002440 		.word	1076101192
 101 0064 00032440 		.word	1076101888
 102 0068 04032440 		.word	1076101892
 103 006c 10032440 		.word	1076101904
 104 0070 44002440 		.word	1076101188
 105 0074 07000080 		.word	-2147483641
 106 0078 00022440 		.word	1076101632
 107 007c 04022440 		.word	1076101636
 108 0080 50002440 		.word	1076101200
 109 0084 880E2440 		.word	1076104840
 110 0088 C80E2440 		.word	1076104904
 111 008c 480F2440 		.word	1076105032
 112 0090 080F2440 		.word	1076104968
 113 0094 C80F2440 		.word	1076105160
 114 0098 880F2440 		.word	1076105096
 115 009c 00000000 		.word	UART_IntrTxMask
 116              		.cfi_endproc
 117              	.LFE2:
 118              		.size	UART_UartInit, .-UART_UartInit
 119              		.section	.text.UART_UartPostEnable,"ax",%progbits
 120              		.align	2
 121              		.global	UART_UartPostEnable
 122              		.code	16
 123              		.thumb_func
 124              		.type	UART_UartPostEnable, %function
 125              	UART_UartPostEnable:
 126              	.LFB3:
 304:Generated_Source\PSoC4/UART_UART.c **** #endif /* (UART_SCB_MODE_UNCONFIG_CONST_CFG) */
 305:Generated_Source\PSoC4/UART_UART.c **** 
 306:Generated_Source\PSoC4/UART_UART.c **** 
 307:Generated_Source\PSoC4/UART_UART.c **** /*******************************************************************************
 308:Generated_Source\PSoC4/UART_UART.c **** * Function Name: UART_UartPostEnable
 309:Generated_Source\PSoC4/UART_UART.c **** ****************************************************************************//**
 310:Generated_Source\PSoC4/UART_UART.c **** *
 311:Generated_Source\PSoC4/UART_UART.c **** *  Restores HSIOM settings for the UART output pins (TX and/or RTS) to be
 312:Generated_Source\PSoC4/UART_UART.c **** *  controlled by the SCB UART.
 313:Generated_Source\PSoC4/UART_UART.c **** *
 314:Generated_Source\PSoC4/UART_UART.c **** *******************************************************************************/
 315:Generated_Source\PSoC4/UART_UART.c **** void UART_UartPostEnable(void)
 316:Generated_Source\PSoC4/UART_UART.c **** {
 127              		.loc 1 316 0
 128              		.cfi_startproc
 129              		@ args = 0, pretend = 0, frame = 0
 130              		@ frame_needed = 0, uses_anonymous_args = 0
 131              		@ link register save eliminated.
 317:Generated_Source\PSoC4/UART_UART.c **** #if (UART_SCB_MODE_UNCONFIG_CONST_CFG)
 318:Generated_Source\PSoC4/UART_UART.c ****     #if (UART_TX_SCL_MISO_PIN)
 319:Generated_Source\PSoC4/UART_UART.c ****         if (UART_CHECK_TX_SCL_MISO_PIN_USED)
 320:Generated_Source\PSoC4/UART_UART.c ****         {
 321:Generated_Source\PSoC4/UART_UART.c ****             /* Set SCB UART to drive the output pin */
 322:Generated_Source\PSoC4/UART_UART.c ****             UART_SET_HSIOM_SEL(UART_TX_SCL_MISO_HSIOM_REG, UART_TX_SCL_MISO_HSIOM_MASK,
 323:Generated_Source\PSoC4/UART_UART.c ****                                            UART_TX_SCL_MISO_HSIOM_POS, UART_TX_SCL_MISO_HSIOM_SEL_U
 324:Generated_Source\PSoC4/UART_UART.c ****         }
 325:Generated_Source\PSoC4/UART_UART.c ****     #endif /* (UART_TX_SCL_MISO_PIN_PIN) */
ARM GAS  C:\Users\Tymek\AppData\Local\Temp\cccYgUSA.s 			page 9


 326:Generated_Source\PSoC4/UART_UART.c **** 
 327:Generated_Source\PSoC4/UART_UART.c ****     #if !(UART_CY_SCBIP_V0 || UART_CY_SCBIP_V1)
 328:Generated_Source\PSoC4/UART_UART.c ****         #if (UART_RTS_SS0_PIN)
 329:Generated_Source\PSoC4/UART_UART.c ****             if (UART_CHECK_RTS_SS0_PIN_USED)
 330:Generated_Source\PSoC4/UART_UART.c ****             {
 331:Generated_Source\PSoC4/UART_UART.c ****                 /* Set SCB UART to drive the output pin */
 332:Generated_Source\PSoC4/UART_UART.c ****                 UART_SET_HSIOM_SEL(UART_RTS_SS0_HSIOM_REG, UART_RTS_SS0_HSIOM_MASK,
 333:Generated_Source\PSoC4/UART_UART.c ****                                                UART_RTS_SS0_HSIOM_POS, UART_RTS_SS0_HSIOM_SEL_UART)
 334:Generated_Source\PSoC4/UART_UART.c ****             }
 335:Generated_Source\PSoC4/UART_UART.c ****         #endif /* (UART_RTS_SS0_PIN) */
 336:Generated_Source\PSoC4/UART_UART.c ****     #endif /* !(UART_CY_SCBIP_V0 || UART_CY_SCBIP_V1) */
 337:Generated_Source\PSoC4/UART_UART.c **** 
 338:Generated_Source\PSoC4/UART_UART.c **** #else
 339:Generated_Source\PSoC4/UART_UART.c ****     #if (UART_UART_TX_PIN)
 340:Generated_Source\PSoC4/UART_UART.c ****          /* Set SCB UART to drive the output pin */
 341:Generated_Source\PSoC4/UART_UART.c ****         UART_SET_HSIOM_SEL(UART_TX_HSIOM_REG, UART_TX_HSIOM_MASK,
 132              		.loc 1 341 0
 133 0000 064A     		ldr	r2, .L5
 134 0002 1168     		ldr	r1, [r2]
 135 0004 064B     		ldr	r3, .L5+4
 136 0006 0B40     		ands	r3, r1
 137 0008 9021     		movs	r1, #144
 138 000a 0904     		lsls	r1, r1, #16
 139 000c 0B43     		orrs	r3, r1
 140 000e 1360     		str	r3, [r2]
 342:Generated_Source\PSoC4/UART_UART.c ****                                        UART_TX_HSIOM_POS, UART_TX_HSIOM_SEL_UART);
 343:Generated_Source\PSoC4/UART_UART.c ****     #endif /* (UART_UART_TX_PIN) */
 344:Generated_Source\PSoC4/UART_UART.c **** 
 345:Generated_Source\PSoC4/UART_UART.c ****     #if (UART_UART_RTS_PIN)
 346:Generated_Source\PSoC4/UART_UART.c ****         /* Set SCB UART to drive the output pin */
 347:Generated_Source\PSoC4/UART_UART.c ****         UART_SET_HSIOM_SEL(UART_RTS_HSIOM_REG, UART_RTS_HSIOM_MASK,
 348:Generated_Source\PSoC4/UART_UART.c ****                                        UART_RTS_HSIOM_POS, UART_RTS_HSIOM_SEL_UART);
 349:Generated_Source\PSoC4/UART_UART.c ****     #endif /* (UART_UART_RTS_PIN) */
 350:Generated_Source\PSoC4/UART_UART.c **** #endif /* (UART_SCB_MODE_UNCONFIG_CONST_CFG) */
 351:Generated_Source\PSoC4/UART_UART.c **** 
 352:Generated_Source\PSoC4/UART_UART.c ****     /* Restore TX interrupt sources. */
 353:Generated_Source\PSoC4/UART_UART.c ****     UART_SetTxInterruptMode(UART_IntrTxMask);
 141              		.loc 1 353 0
 142 0010 044B     		ldr	r3, .L5+8
 143 0012 1A88     		ldrh	r2, [r3]
 144 0014 044B     		ldr	r3, .L5+12
 145 0016 1A60     		str	r2, [r3]
 354:Generated_Source\PSoC4/UART_UART.c **** }
 146              		.loc 1 354 0
 147              		@ sp needed
 148 0018 7047     		bx	lr
 149              	.L6:
 150 001a C046     		.align	2
 151              	.L5:
 152 001c 00000240 		.word	1073872896
 153 0020 FFFF0FFF 		.word	-15728641
 154 0024 00000000 		.word	UART_IntrTxMask
 155 0028 880F2440 		.word	1076105096
 156              		.cfi_endproc
 157              	.LFE3:
 158              		.size	UART_UartPostEnable, .-UART_UartPostEnable
 159              		.section	.text.UART_UartStop,"ax",%progbits
ARM GAS  C:\Users\Tymek\AppData\Local\Temp\cccYgUSA.s 			page 10


 160              		.align	2
 161              		.global	UART_UartStop
 162              		.code	16
 163              		.thumb_func
 164              		.type	UART_UartStop, %function
 165              	UART_UartStop:
 166              	.LFB4:
 355:Generated_Source\PSoC4/UART_UART.c **** 
 356:Generated_Source\PSoC4/UART_UART.c **** 
 357:Generated_Source\PSoC4/UART_UART.c **** /*******************************************************************************
 358:Generated_Source\PSoC4/UART_UART.c **** * Function Name: UART_UartStop
 359:Generated_Source\PSoC4/UART_UART.c **** ****************************************************************************//**
 360:Generated_Source\PSoC4/UART_UART.c **** *
 361:Generated_Source\PSoC4/UART_UART.c **** *  Changes the HSIOM settings for the UART output pins (TX and/or RTS) to keep
 362:Generated_Source\PSoC4/UART_UART.c **** *  them inactive after the block is disabled. The output pins are controlled by
 363:Generated_Source\PSoC4/UART_UART.c **** *  the GPIO data register. Also, the function disables the skip start feature
 364:Generated_Source\PSoC4/UART_UART.c **** *  to not cause it to trigger after the component is enabled.
 365:Generated_Source\PSoC4/UART_UART.c **** *
 366:Generated_Source\PSoC4/UART_UART.c **** *******************************************************************************/
 367:Generated_Source\PSoC4/UART_UART.c **** void UART_UartStop(void)
 368:Generated_Source\PSoC4/UART_UART.c **** {
 167              		.loc 1 368 0
 168              		.cfi_startproc
 169              		@ args = 0, pretend = 0, frame = 0
 170              		@ frame_needed = 0, uses_anonymous_args = 0
 171              		@ link register save eliminated.
 369:Generated_Source\PSoC4/UART_UART.c **** #if(UART_SCB_MODE_UNCONFIG_CONST_CFG)
 370:Generated_Source\PSoC4/UART_UART.c ****     #if (UART_TX_SCL_MISO_PIN)
 371:Generated_Source\PSoC4/UART_UART.c ****         if (UART_CHECK_TX_SCL_MISO_PIN_USED)
 372:Generated_Source\PSoC4/UART_UART.c ****         {
 373:Generated_Source\PSoC4/UART_UART.c ****             /* Set GPIO to drive output pin */
 374:Generated_Source\PSoC4/UART_UART.c ****             UART_SET_HSIOM_SEL(UART_TX_SCL_MISO_HSIOM_REG, UART_TX_SCL_MISO_HSIOM_MASK,
 375:Generated_Source\PSoC4/UART_UART.c ****                                            UART_TX_SCL_MISO_HSIOM_POS, UART_TX_SCL_MISO_HSIOM_SEL_G
 376:Generated_Source\PSoC4/UART_UART.c ****         }
 377:Generated_Source\PSoC4/UART_UART.c ****     #endif /* (UART_TX_SCL_MISO_PIN_PIN) */
 378:Generated_Source\PSoC4/UART_UART.c **** 
 379:Generated_Source\PSoC4/UART_UART.c ****     #if !(UART_CY_SCBIP_V0 || UART_CY_SCBIP_V1)
 380:Generated_Source\PSoC4/UART_UART.c ****         #if (UART_RTS_SS0_PIN)
 381:Generated_Source\PSoC4/UART_UART.c ****             if (UART_CHECK_RTS_SS0_PIN_USED)
 382:Generated_Source\PSoC4/UART_UART.c ****             {
 383:Generated_Source\PSoC4/UART_UART.c ****                 /* Set output pin state after block is disabled */
 384:Generated_Source\PSoC4/UART_UART.c ****                 UART_uart_rts_spi_ss0_Write(UART_GET_UART_RTS_INACTIVE);
 385:Generated_Source\PSoC4/UART_UART.c **** 
 386:Generated_Source\PSoC4/UART_UART.c ****                 /* Set GPIO to drive output pin */
 387:Generated_Source\PSoC4/UART_UART.c ****                 UART_SET_HSIOM_SEL(UART_RTS_SS0_HSIOM_REG, UART_RTS_SS0_HSIOM_MASK,
 388:Generated_Source\PSoC4/UART_UART.c ****                                                UART_RTS_SS0_HSIOM_POS, UART_RTS_SS0_HSIOM_SEL_GPIO)
 389:Generated_Source\PSoC4/UART_UART.c ****             }
 390:Generated_Source\PSoC4/UART_UART.c ****         #endif /* (UART_RTS_SS0_PIN) */
 391:Generated_Source\PSoC4/UART_UART.c ****     #endif /* !(UART_CY_SCBIP_V0 || UART_CY_SCBIP_V1) */
 392:Generated_Source\PSoC4/UART_UART.c **** 
 393:Generated_Source\PSoC4/UART_UART.c **** #else
 394:Generated_Source\PSoC4/UART_UART.c ****     #if (UART_UART_TX_PIN)
 395:Generated_Source\PSoC4/UART_UART.c ****         /* Set GPIO to drive output pin */
 396:Generated_Source\PSoC4/UART_UART.c ****         UART_SET_HSIOM_SEL(UART_TX_HSIOM_REG, UART_TX_HSIOM_MASK,
 172              		.loc 1 396 0
 173 0000 064A     		ldr	r2, .L8
 174 0002 1168     		ldr	r1, [r2]
ARM GAS  C:\Users\Tymek\AppData\Local\Temp\cccYgUSA.s 			page 11


 175 0004 064B     		ldr	r3, .L8+4
 176 0006 0B40     		ands	r3, r1
 177 0008 1360     		str	r3, [r2]
 397:Generated_Source\PSoC4/UART_UART.c ****                                        UART_TX_HSIOM_POS, UART_TX_HSIOM_SEL_GPIO);
 398:Generated_Source\PSoC4/UART_UART.c ****     #endif /* (UART_UART_TX_PIN) */
 399:Generated_Source\PSoC4/UART_UART.c **** 
 400:Generated_Source\PSoC4/UART_UART.c ****     #if (UART_UART_RTS_PIN)
 401:Generated_Source\PSoC4/UART_UART.c ****         /* Set output pin state after block is disabled */
 402:Generated_Source\PSoC4/UART_UART.c ****         UART_rts_Write(UART_GET_UART_RTS_INACTIVE);
 403:Generated_Source\PSoC4/UART_UART.c **** 
 404:Generated_Source\PSoC4/UART_UART.c ****         /* Set GPIO to drive output pin */
 405:Generated_Source\PSoC4/UART_UART.c ****         UART_SET_HSIOM_SEL(UART_RTS_HSIOM_REG, UART_RTS_HSIOM_MASK,
 406:Generated_Source\PSoC4/UART_UART.c ****                                        UART_RTS_HSIOM_POS, UART_RTS_HSIOM_SEL_GPIO);
 407:Generated_Source\PSoC4/UART_UART.c ****     #endif /* (UART_UART_RTS_PIN) */
 408:Generated_Source\PSoC4/UART_UART.c **** 
 409:Generated_Source\PSoC4/UART_UART.c **** #endif /* (UART_SCB_MODE_UNCONFIG_CONST_CFG) */
 410:Generated_Source\PSoC4/UART_UART.c **** 
 411:Generated_Source\PSoC4/UART_UART.c **** #if (UART_UART_WAKE_ENABLE_CONST)
 412:Generated_Source\PSoC4/UART_UART.c ****     /* Disable skip start feature used for wakeup */
 413:Generated_Source\PSoC4/UART_UART.c ****     UART_UART_RX_CTRL_REG &= (uint32) ~UART_UART_RX_CTRL_SKIP_START;
 414:Generated_Source\PSoC4/UART_UART.c **** #endif /* (UART_UART_WAKE_ENABLE_CONST) */
 415:Generated_Source\PSoC4/UART_UART.c **** 
 416:Generated_Source\PSoC4/UART_UART.c ****     /* Store TX interrupt sources (exclude level triggered). */
 417:Generated_Source\PSoC4/UART_UART.c ****     UART_IntrTxMask = LO16(UART_GetTxInterruptMode() & UART_INTR_UART_TX_RESTORE);
 178              		.loc 1 417 0
 179 000a 064B     		ldr	r3, .L8+8
 180 000c 1A68     		ldr	r2, [r3]
 181 000e E423     		movs	r3, #228
 182 0010 DB00     		lsls	r3, r3, #3
 183 0012 1340     		ands	r3, r2
 184 0014 044A     		ldr	r2, .L8+12
 185 0016 1380     		strh	r3, [r2]
 418:Generated_Source\PSoC4/UART_UART.c **** }
 186              		.loc 1 418 0
 187              		@ sp needed
 188 0018 7047     		bx	lr
 189              	.L9:
 190 001a C046     		.align	2
 191              	.L8:
 192 001c 00000240 		.word	1073872896
 193 0020 FFFF0FFF 		.word	-15728641
 194 0024 880F2440 		.word	1076105096
 195 0028 00000000 		.word	UART_IntrTxMask
 196              		.cfi_endproc
 197              	.LFE4:
 198              		.size	UART_UartStop, .-UART_UartStop
 199              		.section	.text.UART_UartSetRxAddress,"ax",%progbits
 200              		.align	2
 201              		.global	UART_UartSetRxAddress
 202              		.code	16
 203              		.thumb_func
 204              		.type	UART_UartSetRxAddress, %function
 205              	UART_UartSetRxAddress:
 206              	.LFB5:
 419:Generated_Source\PSoC4/UART_UART.c **** 
 420:Generated_Source\PSoC4/UART_UART.c **** 
 421:Generated_Source\PSoC4/UART_UART.c **** /*******************************************************************************
ARM GAS  C:\Users\Tymek\AppData\Local\Temp\cccYgUSA.s 			page 12


 422:Generated_Source\PSoC4/UART_UART.c **** * Function Name: UART_UartSetRxAddress
 423:Generated_Source\PSoC4/UART_UART.c **** ****************************************************************************//**
 424:Generated_Source\PSoC4/UART_UART.c **** *
 425:Generated_Source\PSoC4/UART_UART.c **** *  Sets the hardware detectable receiver address for the UART in the
 426:Generated_Source\PSoC4/UART_UART.c **** *  Multiprocessor mode.
 427:Generated_Source\PSoC4/UART_UART.c **** *
 428:Generated_Source\PSoC4/UART_UART.c **** *  \param address: Address for hardware address detection.
 429:Generated_Source\PSoC4/UART_UART.c **** *
 430:Generated_Source\PSoC4/UART_UART.c **** *******************************************************************************/
 431:Generated_Source\PSoC4/UART_UART.c **** void UART_UartSetRxAddress(uint32 address)
 432:Generated_Source\PSoC4/UART_UART.c **** {
 207              		.loc 1 432 0
 208              		.cfi_startproc
 209              		@ args = 0, pretend = 0, frame = 0
 210              		@ frame_needed = 0, uses_anonymous_args = 0
 211              		@ link register save eliminated.
 212              	.LVL0:
 433:Generated_Source\PSoC4/UART_UART.c ****      uint32 matchReg;
 434:Generated_Source\PSoC4/UART_UART.c **** 
 435:Generated_Source\PSoC4/UART_UART.c ****     matchReg = UART_RX_MATCH_REG;
 213              		.loc 1 435 0
 214 0000 034A     		ldr	r2, .L11
 215 0002 1368     		ldr	r3, [r2]
 216              	.LVL1:
 436:Generated_Source\PSoC4/UART_UART.c **** 
 437:Generated_Source\PSoC4/UART_UART.c ****     matchReg &= ((uint32) ~UART_RX_MATCH_ADDR_MASK); /* Clear address bits */
 217              		.loc 1 437 0
 218 0004 FF21     		movs	r1, #255
 219 0006 8B43     		bics	r3, r1
 220              	.LVL2:
 438:Generated_Source\PSoC4/UART_UART.c ****     matchReg |= ((uint32)  (address & UART_RX_MATCH_ADDR_MASK)); /* Set address  */
 221              		.loc 1 438 0
 222 0008 0840     		ands	r0, r1
 223              	.LVL3:
 224 000a 1843     		orrs	r0, r3
 225              	.LVL4:
 439:Generated_Source\PSoC4/UART_UART.c **** 
 440:Generated_Source\PSoC4/UART_UART.c ****     UART_RX_MATCH_REG = matchReg;
 226              		.loc 1 440 0
 227 000c 1060     		str	r0, [r2]
 441:Generated_Source\PSoC4/UART_UART.c **** }
 228              		.loc 1 441 0
 229              		@ sp needed
 230 000e 7047     		bx	lr
 231              	.L12:
 232              		.align	2
 233              	.L11:
 234 0010 10032440 		.word	1076101904
 235              		.cfi_endproc
 236              	.LFE5:
 237              		.size	UART_UartSetRxAddress, .-UART_UartSetRxAddress
 238              		.section	.text.UART_UartSetRxAddressMask,"ax",%progbits
 239              		.align	2
 240              		.global	UART_UartSetRxAddressMask
 241              		.code	16
 242              		.thumb_func
 243              		.type	UART_UartSetRxAddressMask, %function
ARM GAS  C:\Users\Tymek\AppData\Local\Temp\cccYgUSA.s 			page 13


 244              	UART_UartSetRxAddressMask:
 245              	.LFB6:
 442:Generated_Source\PSoC4/UART_UART.c **** 
 443:Generated_Source\PSoC4/UART_UART.c **** 
 444:Generated_Source\PSoC4/UART_UART.c **** /*******************************************************************************
 445:Generated_Source\PSoC4/UART_UART.c **** * Function Name: UART_UartSetRxAddressMask
 446:Generated_Source\PSoC4/UART_UART.c **** ****************************************************************************//**
 447:Generated_Source\PSoC4/UART_UART.c **** *
 448:Generated_Source\PSoC4/UART_UART.c **** *  Sets the hardware address mask for the UART in the Multiprocessor mode.
 449:Generated_Source\PSoC4/UART_UART.c **** *
 450:Generated_Source\PSoC4/UART_UART.c **** *  \param addressMask: Address mask.
 451:Generated_Source\PSoC4/UART_UART.c **** *   - Bit value 0 – excludes bit from address comparison.
 452:Generated_Source\PSoC4/UART_UART.c **** *   - Bit value 1 – the bit needs to match with the corresponding bit
 453:Generated_Source\PSoC4/UART_UART.c **** *     of the address.
 454:Generated_Source\PSoC4/UART_UART.c **** *
 455:Generated_Source\PSoC4/UART_UART.c **** *******************************************************************************/
 456:Generated_Source\PSoC4/UART_UART.c **** void UART_UartSetRxAddressMask(uint32 addressMask)
 457:Generated_Source\PSoC4/UART_UART.c **** {
 246              		.loc 1 457 0
 247              		.cfi_startproc
 248              		@ args = 0, pretend = 0, frame = 0
 249              		@ frame_needed = 0, uses_anonymous_args = 0
 250              		@ link register save eliminated.
 251              	.LVL5:
 458:Generated_Source\PSoC4/UART_UART.c ****     uint32 matchReg;
 459:Generated_Source\PSoC4/UART_UART.c **** 
 460:Generated_Source\PSoC4/UART_UART.c ****     matchReg = UART_RX_MATCH_REG;
 252              		.loc 1 460 0
 253 0000 034A     		ldr	r2, .L14
 254 0002 1168     		ldr	r1, [r2]
 255              	.LVL6:
 461:Generated_Source\PSoC4/UART_UART.c **** 
 462:Generated_Source\PSoC4/UART_UART.c ****     matchReg &= ((uint32) ~UART_RX_MATCH_MASK_MASK); /* Clear address mask bits */
 256              		.loc 1 462 0
 257 0004 034B     		ldr	r3, .L14+4
 258 0006 0B40     		ands	r3, r1
 259              	.LVL7:
 463:Generated_Source\PSoC4/UART_UART.c ****     matchReg |= ((uint32) (addressMask << UART_RX_MATCH_MASK_POS));
 260              		.loc 1 463 0
 261 0008 0004     		lsls	r0, r0, #16
 262              	.LVL8:
 263 000a 1843     		orrs	r0, r3
 264              	.LVL9:
 464:Generated_Source\PSoC4/UART_UART.c **** 
 465:Generated_Source\PSoC4/UART_UART.c ****     UART_RX_MATCH_REG = matchReg;
 265              		.loc 1 465 0
 266 000c 1060     		str	r0, [r2]
 466:Generated_Source\PSoC4/UART_UART.c **** }
 267              		.loc 1 466 0
 268              		@ sp needed
 269 000e 7047     		bx	lr
 270              	.L15:
 271              		.align	2
 272              	.L14:
 273 0010 10032440 		.word	1076101904
 274 0014 FFFF00FF 		.word	-16711681
 275              		.cfi_endproc
ARM GAS  C:\Users\Tymek\AppData\Local\Temp\cccYgUSA.s 			page 14


 276              	.LFE6:
 277              		.size	UART_UartSetRxAddressMask, .-UART_UartSetRxAddressMask
 278              		.section	.text.UART_UartPutString,"ax",%progbits
 279              		.align	2
 280              		.global	UART_UartPutString
 281              		.code	16
 282              		.thumb_func
 283              		.type	UART_UartPutString, %function
 284              	UART_UartPutString:
 285              	.LFB7:
 467:Generated_Source\PSoC4/UART_UART.c **** 
 468:Generated_Source\PSoC4/UART_UART.c **** 
 469:Generated_Source\PSoC4/UART_UART.c **** #if(UART_UART_RX_DIRECTION)
 470:Generated_Source\PSoC4/UART_UART.c ****     /*******************************************************************************
 471:Generated_Source\PSoC4/UART_UART.c ****     * Function Name: UART_UartGetChar
 472:Generated_Source\PSoC4/UART_UART.c ****     ****************************************************************************//**
 473:Generated_Source\PSoC4/UART_UART.c ****     *
 474:Generated_Source\PSoC4/UART_UART.c ****     *  Retrieves next data element from receive buffer.
 475:Generated_Source\PSoC4/UART_UART.c ****     *  This function is designed for ASCII characters and returns a char where
 476:Generated_Source\PSoC4/UART_UART.c ****     *  1 to 255 are valid characters and 0 indicates an error occurred or no data
 477:Generated_Source\PSoC4/UART_UART.c ****     *  is present.
 478:Generated_Source\PSoC4/UART_UART.c ****     *  - RX software buffer is disabled: Returns data element retrieved from RX
 479:Generated_Source\PSoC4/UART_UART.c ****     *    FIFO.
 480:Generated_Source\PSoC4/UART_UART.c ****     *  - RX software buffer is enabled: Returns data element from the software
 481:Generated_Source\PSoC4/UART_UART.c ****     *    receive buffer.
 482:Generated_Source\PSoC4/UART_UART.c ****     *
 483:Generated_Source\PSoC4/UART_UART.c ****     *  \return
 484:Generated_Source\PSoC4/UART_UART.c ****     *   Next data element from the receive buffer. ASCII character values from
 485:Generated_Source\PSoC4/UART_UART.c ****     *   1 to 255 are valid. A returned zero signifies an error condition or no
 486:Generated_Source\PSoC4/UART_UART.c ****     *   data available.
 487:Generated_Source\PSoC4/UART_UART.c ****     *
 488:Generated_Source\PSoC4/UART_UART.c ****     *  \sideeffect
 489:Generated_Source\PSoC4/UART_UART.c ****     *   The errors bits may not correspond with reading characters due to
 490:Generated_Source\PSoC4/UART_UART.c ****     *   RX FIFO and software buffer usage.
 491:Generated_Source\PSoC4/UART_UART.c ****     *   RX software buffer is enabled: The internal software buffer overflow
 492:Generated_Source\PSoC4/UART_UART.c ****     *   is not treated as an error condition.
 493:Generated_Source\PSoC4/UART_UART.c ****     *   Check UART_rxBufferOverflow to capture that error condition.
 494:Generated_Source\PSoC4/UART_UART.c ****     *
 495:Generated_Source\PSoC4/UART_UART.c ****     *******************************************************************************/
 496:Generated_Source\PSoC4/UART_UART.c ****     uint32 UART_UartGetChar(void)
 497:Generated_Source\PSoC4/UART_UART.c ****     {
 498:Generated_Source\PSoC4/UART_UART.c ****         uint32 rxData = 0u;
 499:Generated_Source\PSoC4/UART_UART.c **** 
 500:Generated_Source\PSoC4/UART_UART.c ****         /* Reads data only if there is data to read */
 501:Generated_Source\PSoC4/UART_UART.c ****         if (0u != UART_SpiUartGetRxBufferSize())
 502:Generated_Source\PSoC4/UART_UART.c ****         {
 503:Generated_Source\PSoC4/UART_UART.c ****             rxData = UART_SpiUartReadRxData();
 504:Generated_Source\PSoC4/UART_UART.c ****         }
 505:Generated_Source\PSoC4/UART_UART.c **** 
 506:Generated_Source\PSoC4/UART_UART.c ****         if (UART_CHECK_INTR_RX(UART_INTR_RX_ERR))
 507:Generated_Source\PSoC4/UART_UART.c ****         {
 508:Generated_Source\PSoC4/UART_UART.c ****             rxData = 0u; /* Error occurred: returns zero */
 509:Generated_Source\PSoC4/UART_UART.c ****             UART_ClearRxInterruptSource(UART_INTR_RX_ERR);
 510:Generated_Source\PSoC4/UART_UART.c ****         }
 511:Generated_Source\PSoC4/UART_UART.c **** 
 512:Generated_Source\PSoC4/UART_UART.c ****         return (rxData);
 513:Generated_Source\PSoC4/UART_UART.c ****     }
ARM GAS  C:\Users\Tymek\AppData\Local\Temp\cccYgUSA.s 			page 15


 514:Generated_Source\PSoC4/UART_UART.c **** 
 515:Generated_Source\PSoC4/UART_UART.c **** 
 516:Generated_Source\PSoC4/UART_UART.c ****     /*******************************************************************************
 517:Generated_Source\PSoC4/UART_UART.c ****     * Function Name: UART_UartGetByte
 518:Generated_Source\PSoC4/UART_UART.c ****     ****************************************************************************//**
 519:Generated_Source\PSoC4/UART_UART.c ****     *
 520:Generated_Source\PSoC4/UART_UART.c ****     *  Retrieves the next data element from the receive buffer, returns the
 521:Generated_Source\PSoC4/UART_UART.c ****     *  received byte and error condition.
 522:Generated_Source\PSoC4/UART_UART.c ****     *   - The RX software buffer is disabled: returns the data element retrieved
 523:Generated_Source\PSoC4/UART_UART.c ****     *     from the RX FIFO. Undefined data will be returned if the RX FIFO is
 524:Generated_Source\PSoC4/UART_UART.c ****     *     empty.
 525:Generated_Source\PSoC4/UART_UART.c ****     *   - The RX software buffer is enabled: returns data element from the
 526:Generated_Source\PSoC4/UART_UART.c ****     *     software receive buffer.
 527:Generated_Source\PSoC4/UART_UART.c ****     *
 528:Generated_Source\PSoC4/UART_UART.c ****     *  \return
 529:Generated_Source\PSoC4/UART_UART.c ****     *   Bits 7-0 contain the next data element from the receive buffer and
 530:Generated_Source\PSoC4/UART_UART.c ****     *   other bits contain the error condition.
 531:Generated_Source\PSoC4/UART_UART.c ****     *   - UART_UART_RX_OVERFLOW - Attempt to write to a full
 532:Generated_Source\PSoC4/UART_UART.c ****     *     receiver FIFO.
 533:Generated_Source\PSoC4/UART_UART.c ****     *   - UART_UART_RX_UNDERFLOW	Attempt to read from an empty
 534:Generated_Source\PSoC4/UART_UART.c ****     *     receiver FIFO.
 535:Generated_Source\PSoC4/UART_UART.c ****     *   - UART_UART_RX_FRAME_ERROR - UART framing error detected.
 536:Generated_Source\PSoC4/UART_UART.c ****     *   - UART_UART_RX_PARITY_ERROR - UART parity error detected.
 537:Generated_Source\PSoC4/UART_UART.c ****     *
 538:Generated_Source\PSoC4/UART_UART.c ****     *  \sideeffect
 539:Generated_Source\PSoC4/UART_UART.c ****     *   The errors bits may not correspond with reading characters due to
 540:Generated_Source\PSoC4/UART_UART.c ****     *   RX FIFO and software buffer usage.
 541:Generated_Source\PSoC4/UART_UART.c ****     *   RX software buffer is enabled: The internal software buffer overflow
 542:Generated_Source\PSoC4/UART_UART.c ****     *   is not treated as an error condition.
 543:Generated_Source\PSoC4/UART_UART.c ****     *   Check UART_rxBufferOverflow to capture that error condition.
 544:Generated_Source\PSoC4/UART_UART.c ****     *
 545:Generated_Source\PSoC4/UART_UART.c ****     *******************************************************************************/
 546:Generated_Source\PSoC4/UART_UART.c ****     uint32 UART_UartGetByte(void)
 547:Generated_Source\PSoC4/UART_UART.c ****     {
 548:Generated_Source\PSoC4/UART_UART.c ****         uint32 rxData;
 549:Generated_Source\PSoC4/UART_UART.c ****         uint32 tmpStatus;
 550:Generated_Source\PSoC4/UART_UART.c **** 
 551:Generated_Source\PSoC4/UART_UART.c ****         #if (UART_CHECK_RX_SW_BUFFER)
 552:Generated_Source\PSoC4/UART_UART.c ****         {
 553:Generated_Source\PSoC4/UART_UART.c ****             UART_DisableInt();
 554:Generated_Source\PSoC4/UART_UART.c ****         }
 555:Generated_Source\PSoC4/UART_UART.c ****         #endif
 556:Generated_Source\PSoC4/UART_UART.c **** 
 557:Generated_Source\PSoC4/UART_UART.c ****         if (0u != UART_SpiUartGetRxBufferSize())
 558:Generated_Source\PSoC4/UART_UART.c ****         {
 559:Generated_Source\PSoC4/UART_UART.c ****             /* Enables interrupt to receive more bytes: at least one byte is in
 560:Generated_Source\PSoC4/UART_UART.c ****             * buffer.
 561:Generated_Source\PSoC4/UART_UART.c ****             */
 562:Generated_Source\PSoC4/UART_UART.c ****             #if (UART_CHECK_RX_SW_BUFFER)
 563:Generated_Source\PSoC4/UART_UART.c ****             {
 564:Generated_Source\PSoC4/UART_UART.c ****                 UART_EnableInt();
 565:Generated_Source\PSoC4/UART_UART.c ****             }
 566:Generated_Source\PSoC4/UART_UART.c ****             #endif
 567:Generated_Source\PSoC4/UART_UART.c **** 
 568:Generated_Source\PSoC4/UART_UART.c ****             /* Get received byte */
 569:Generated_Source\PSoC4/UART_UART.c ****             rxData = UART_SpiUartReadRxData();
 570:Generated_Source\PSoC4/UART_UART.c ****         }
ARM GAS  C:\Users\Tymek\AppData\Local\Temp\cccYgUSA.s 			page 16


 571:Generated_Source\PSoC4/UART_UART.c ****         else
 572:Generated_Source\PSoC4/UART_UART.c ****         {
 573:Generated_Source\PSoC4/UART_UART.c ****             /* Reads a byte directly from RX FIFO: underflow is raised in the
 574:Generated_Source\PSoC4/UART_UART.c ****             * case of empty. Otherwise the first received byte will be read.
 575:Generated_Source\PSoC4/UART_UART.c ****             */
 576:Generated_Source\PSoC4/UART_UART.c ****             rxData = UART_RX_FIFO_RD_REG;
 577:Generated_Source\PSoC4/UART_UART.c **** 
 578:Generated_Source\PSoC4/UART_UART.c **** 
 579:Generated_Source\PSoC4/UART_UART.c ****             /* Enables interrupt to receive more bytes. */
 580:Generated_Source\PSoC4/UART_UART.c ****             #if (UART_CHECK_RX_SW_BUFFER)
 581:Generated_Source\PSoC4/UART_UART.c ****             {
 582:Generated_Source\PSoC4/UART_UART.c **** 
 583:Generated_Source\PSoC4/UART_UART.c ****                 /* The byte has been read from RX FIFO. Clear RX interrupt to
 584:Generated_Source\PSoC4/UART_UART.c ****                 * not involve interrupt handler when RX FIFO is empty.
 585:Generated_Source\PSoC4/UART_UART.c ****                 */
 586:Generated_Source\PSoC4/UART_UART.c ****                 UART_ClearRxInterruptSource(UART_INTR_RX_NOT_EMPTY);
 587:Generated_Source\PSoC4/UART_UART.c **** 
 588:Generated_Source\PSoC4/UART_UART.c ****                 UART_EnableInt();
 589:Generated_Source\PSoC4/UART_UART.c ****             }
 590:Generated_Source\PSoC4/UART_UART.c ****             #endif
 591:Generated_Source\PSoC4/UART_UART.c ****         }
 592:Generated_Source\PSoC4/UART_UART.c **** 
 593:Generated_Source\PSoC4/UART_UART.c ****         /* Get and clear RX error mask */
 594:Generated_Source\PSoC4/UART_UART.c ****         tmpStatus = (UART_GetRxInterruptSource() & UART_INTR_RX_ERR);
 595:Generated_Source\PSoC4/UART_UART.c ****         UART_ClearRxInterruptSource(UART_INTR_RX_ERR);
 596:Generated_Source\PSoC4/UART_UART.c **** 
 597:Generated_Source\PSoC4/UART_UART.c ****         /* Puts together data and error status:
 598:Generated_Source\PSoC4/UART_UART.c ****         * MP mode and accept address: 9th bit is set to notify mark.
 599:Generated_Source\PSoC4/UART_UART.c ****         */
 600:Generated_Source\PSoC4/UART_UART.c ****         rxData |= ((uint32) (tmpStatus << 8u));
 601:Generated_Source\PSoC4/UART_UART.c **** 
 602:Generated_Source\PSoC4/UART_UART.c ****         return (rxData);
 603:Generated_Source\PSoC4/UART_UART.c ****     }
 604:Generated_Source\PSoC4/UART_UART.c **** 
 605:Generated_Source\PSoC4/UART_UART.c **** 
 606:Generated_Source\PSoC4/UART_UART.c ****     #if !(UART_CY_SCBIP_V0 || UART_CY_SCBIP_V1)
 607:Generated_Source\PSoC4/UART_UART.c ****         /*******************************************************************************
 608:Generated_Source\PSoC4/UART_UART.c ****         * Function Name: UART_UartSetRtsPolarity
 609:Generated_Source\PSoC4/UART_UART.c ****         ****************************************************************************//**
 610:Generated_Source\PSoC4/UART_UART.c ****         *
 611:Generated_Source\PSoC4/UART_UART.c ****         *  Sets active polarity of RTS output signal.
 612:Generated_Source\PSoC4/UART_UART.c ****         *  Only available for PSoC 4100 BLE / PSoC 4200 BLE / PSoC 4100M / PSoC 4200M /
 613:Generated_Source\PSoC4/UART_UART.c ****         *  PSoC 4200L / PSoC 4000S / PSoC 4100S / PSoC Analog Coprocessor devices.
 614:Generated_Source\PSoC4/UART_UART.c ****         *
 615:Generated_Source\PSoC4/UART_UART.c ****         *  \param polarity: Active polarity of RTS output signal.
 616:Generated_Source\PSoC4/UART_UART.c ****         *   - UART_UART_RTS_ACTIVE_LOW  - RTS signal is active low.
 617:Generated_Source\PSoC4/UART_UART.c ****         *   - UART_UART_RTS_ACTIVE_HIGH - RTS signal is active high.
 618:Generated_Source\PSoC4/UART_UART.c ****         *
 619:Generated_Source\PSoC4/UART_UART.c ****         *******************************************************************************/
 620:Generated_Source\PSoC4/UART_UART.c ****         void UART_UartSetRtsPolarity(uint32 polarity)
 621:Generated_Source\PSoC4/UART_UART.c ****         {
 622:Generated_Source\PSoC4/UART_UART.c ****             if(0u != polarity)
 623:Generated_Source\PSoC4/UART_UART.c ****             {
 624:Generated_Source\PSoC4/UART_UART.c ****                 UART_UART_FLOW_CTRL_REG |= (uint32)  UART_UART_FLOW_CTRL_RTS_POLARITY;
 625:Generated_Source\PSoC4/UART_UART.c ****             }
 626:Generated_Source\PSoC4/UART_UART.c ****             else
 627:Generated_Source\PSoC4/UART_UART.c ****             {
ARM GAS  C:\Users\Tymek\AppData\Local\Temp\cccYgUSA.s 			page 17


 628:Generated_Source\PSoC4/UART_UART.c ****                 UART_UART_FLOW_CTRL_REG &= (uint32) ~UART_UART_FLOW_CTRL_RTS_POLARITY;
 629:Generated_Source\PSoC4/UART_UART.c ****             }
 630:Generated_Source\PSoC4/UART_UART.c ****         }
 631:Generated_Source\PSoC4/UART_UART.c **** 
 632:Generated_Source\PSoC4/UART_UART.c **** 
 633:Generated_Source\PSoC4/UART_UART.c ****         /*******************************************************************************
 634:Generated_Source\PSoC4/UART_UART.c ****         * Function Name: UART_UartSetRtsFifoLevel
 635:Generated_Source\PSoC4/UART_UART.c ****         ****************************************************************************//**
 636:Generated_Source\PSoC4/UART_UART.c ****         *
 637:Generated_Source\PSoC4/UART_UART.c ****         *  Sets level in the RX FIFO for RTS signal activation.
 638:Generated_Source\PSoC4/UART_UART.c ****         *  While the RX FIFO has fewer entries than the RX FIFO level the RTS signal
 639:Generated_Source\PSoC4/UART_UART.c ****         *  remains active, otherwise the RTS signal becomes inactive.
 640:Generated_Source\PSoC4/UART_UART.c ****         *  Only available for PSoC 4100 BLE / PSoC 4200 BLE / PSoC 4100M / PSoC 4200M /
 641:Generated_Source\PSoC4/UART_UART.c ****         *  PSoC 4200L / PSoC 4000S / PSoC 4100S / PSoC Analog Coprocessor devices.
 642:Generated_Source\PSoC4/UART_UART.c ****         *
 643:Generated_Source\PSoC4/UART_UART.c ****         *  \param level: Level in the RX FIFO for RTS signal activation.
 644:Generated_Source\PSoC4/UART_UART.c ****         *   The range of valid level values is between 0 and RX FIFO depth - 1.
 645:Generated_Source\PSoC4/UART_UART.c ****         *   Setting level value to 0 disables RTS signal activation.
 646:Generated_Source\PSoC4/UART_UART.c ****         *
 647:Generated_Source\PSoC4/UART_UART.c ****         *******************************************************************************/
 648:Generated_Source\PSoC4/UART_UART.c ****         void UART_UartSetRtsFifoLevel(uint32 level)
 649:Generated_Source\PSoC4/UART_UART.c ****         {
 650:Generated_Source\PSoC4/UART_UART.c ****             uint32 uartFlowCtrl;
 651:Generated_Source\PSoC4/UART_UART.c **** 
 652:Generated_Source\PSoC4/UART_UART.c ****             uartFlowCtrl = UART_UART_FLOW_CTRL_REG;
 653:Generated_Source\PSoC4/UART_UART.c **** 
 654:Generated_Source\PSoC4/UART_UART.c ****             uartFlowCtrl &= ((uint32) ~UART_UART_FLOW_CTRL_TRIGGER_LEVEL_MASK); /* Clear level mask
 655:Generated_Source\PSoC4/UART_UART.c ****             uartFlowCtrl |= ((uint32) (UART_UART_FLOW_CTRL_TRIGGER_LEVEL_MASK & level));
 656:Generated_Source\PSoC4/UART_UART.c **** 
 657:Generated_Source\PSoC4/UART_UART.c ****             UART_UART_FLOW_CTRL_REG = uartFlowCtrl;
 658:Generated_Source\PSoC4/UART_UART.c ****         }
 659:Generated_Source\PSoC4/UART_UART.c ****     #endif /* !(UART_CY_SCBIP_V0 || UART_CY_SCBIP_V1) */
 660:Generated_Source\PSoC4/UART_UART.c **** 
 661:Generated_Source\PSoC4/UART_UART.c **** #endif /* (UART_UART_RX_DIRECTION) */
 662:Generated_Source\PSoC4/UART_UART.c **** 
 663:Generated_Source\PSoC4/UART_UART.c **** 
 664:Generated_Source\PSoC4/UART_UART.c **** #if(UART_UART_TX_DIRECTION)
 665:Generated_Source\PSoC4/UART_UART.c ****     /*******************************************************************************
 666:Generated_Source\PSoC4/UART_UART.c ****     * Function Name: UART_UartPutString
 667:Generated_Source\PSoC4/UART_UART.c ****     ****************************************************************************//**
 668:Generated_Source\PSoC4/UART_UART.c ****     *
 669:Generated_Source\PSoC4/UART_UART.c ****     *  Places a NULL terminated string in the transmit buffer to be sent at the
 670:Generated_Source\PSoC4/UART_UART.c ****     *  next available bus time.
 671:Generated_Source\PSoC4/UART_UART.c ****     *  This function is blocking and waits until there is a space available to put
 672:Generated_Source\PSoC4/UART_UART.c ****     *  requested data in transmit buffer.
 673:Generated_Source\PSoC4/UART_UART.c ****     *
 674:Generated_Source\PSoC4/UART_UART.c ****     *  \param string: pointer to the null terminated string array to be placed in the
 675:Generated_Source\PSoC4/UART_UART.c ****     *   transmit buffer.
 676:Generated_Source\PSoC4/UART_UART.c ****     *
 677:Generated_Source\PSoC4/UART_UART.c ****     *******************************************************************************/
 678:Generated_Source\PSoC4/UART_UART.c ****     void UART_UartPutString(const char8 string[])
 679:Generated_Source\PSoC4/UART_UART.c ****     {
 286              		.loc 1 679 0
 287              		.cfi_startproc
 288              		@ args = 0, pretend = 0, frame = 0
 289              		@ frame_needed = 0, uses_anonymous_args = 0
 290              	.LVL10:
ARM GAS  C:\Users\Tymek\AppData\Local\Temp\cccYgUSA.s 			page 18


 291 0000 70B5     		push	{r4, r5, r6, lr}
 292              		.cfi_def_cfa_offset 16
 293              		.cfi_offset 4, -16
 294              		.cfi_offset 5, -12
 295              		.cfi_offset 6, -8
 296              		.cfi_offset 14, -4
 297 0002 0500     		movs	r5, r0
 298              	.LVL11:
 680:Generated_Source\PSoC4/UART_UART.c ****         uint32 bufIndex;
 681:Generated_Source\PSoC4/UART_UART.c **** 
 682:Generated_Source\PSoC4/UART_UART.c ****         bufIndex = 0u;
 299              		.loc 1 682 0
 300 0004 0024     		movs	r4, #0
 683:Generated_Source\PSoC4/UART_UART.c **** 
 684:Generated_Source\PSoC4/UART_UART.c ****         /* Blocks the control flow until all data has been sent */
 685:Generated_Source\PSoC4/UART_UART.c ****         while(string[bufIndex] != ((char8) 0))
 301              		.loc 1 685 0
 302 0006 02E0     		b	.L17
 303              	.LVL12:
 304              	.L18:
 686:Generated_Source\PSoC4/UART_UART.c ****         {
 687:Generated_Source\PSoC4/UART_UART.c ****             UART_UartPutChar((uint32) string[bufIndex]);
 305              		.loc 1 687 0
 306 0008 FFF7FEFF 		bl	UART_SpiUartWriteTxData
 307              	.LVL13:
 688:Generated_Source\PSoC4/UART_UART.c ****             bufIndex++;
 308              		.loc 1 688 0
 309 000c 0134     		adds	r4, r4, #1
 310              	.LVL14:
 311              	.L17:
 685:Generated_Source\PSoC4/UART_UART.c ****         {
 312              		.loc 1 685 0
 313 000e 285D     		ldrb	r0, [r5, r4]
 314 0010 0028     		cmp	r0, #0
 315 0012 F9D1     		bne	.L18
 689:Generated_Source\PSoC4/UART_UART.c ****         }
 690:Generated_Source\PSoC4/UART_UART.c ****     }
 316              		.loc 1 690 0
 317              		@ sp needed
 318              	.LVL15:
 319              	.LVL16:
 320 0014 70BD     		pop	{r4, r5, r6, pc}
 321              		.cfi_endproc
 322              	.LFE7:
 323              		.size	UART_UartPutString, .-UART_UartPutString
 324 0016 C046     		.section	.text.UART_UartPutCRLF,"ax",%progbits
 325              		.align	2
 326              		.global	UART_UartPutCRLF
 327              		.code	16
 328              		.thumb_func
 329              		.type	UART_UartPutCRLF, %function
 330              	UART_UartPutCRLF:
 331              	.LFB8:
 691:Generated_Source\PSoC4/UART_UART.c **** 
 692:Generated_Source\PSoC4/UART_UART.c **** 
 693:Generated_Source\PSoC4/UART_UART.c ****     /*******************************************************************************
 694:Generated_Source\PSoC4/UART_UART.c ****     * Function Name: UART_UartPutCRLF
ARM GAS  C:\Users\Tymek\AppData\Local\Temp\cccYgUSA.s 			page 19


 695:Generated_Source\PSoC4/UART_UART.c ****     ****************************************************************************//**
 696:Generated_Source\PSoC4/UART_UART.c ****     *
 697:Generated_Source\PSoC4/UART_UART.c ****     *  Places byte of data followed by a carriage return (0x0D) and line feed
 698:Generated_Source\PSoC4/UART_UART.c ****     *  (0x0A) in the transmit buffer.
 699:Generated_Source\PSoC4/UART_UART.c ****     *  This function is blocking and waits until there is a space available to put
 700:Generated_Source\PSoC4/UART_UART.c ****     *  all requested data in transmit buffer.
 701:Generated_Source\PSoC4/UART_UART.c ****     *
 702:Generated_Source\PSoC4/UART_UART.c ****     *  \param txDataByte: the data to be transmitted.
 703:Generated_Source\PSoC4/UART_UART.c ****     *
 704:Generated_Source\PSoC4/UART_UART.c ****     *******************************************************************************/
 705:Generated_Source\PSoC4/UART_UART.c ****     void UART_UartPutCRLF(uint32 txDataByte)
 706:Generated_Source\PSoC4/UART_UART.c ****     {
 332              		.loc 1 706 0
 333              		.cfi_startproc
 334              		@ args = 0, pretend = 0, frame = 0
 335              		@ frame_needed = 0, uses_anonymous_args = 0
 336              	.LVL17:
 337 0000 10B5     		push	{r4, lr}
 338              		.cfi_def_cfa_offset 8
 339              		.cfi_offset 4, -8
 340              		.cfi_offset 14, -4
 707:Generated_Source\PSoC4/UART_UART.c ****         UART_UartPutChar(txDataByte);  /* Blocks control flow until all data has been sent */
 341              		.loc 1 707 0
 342 0002 FFF7FEFF 		bl	UART_SpiUartWriteTxData
 343              	.LVL18:
 708:Generated_Source\PSoC4/UART_UART.c ****         UART_UartPutChar(0x0Du);       /* Blocks control flow until all data has been sent */
 344              		.loc 1 708 0
 345 0006 0D20     		movs	r0, #13
 346 0008 FFF7FEFF 		bl	UART_SpiUartWriteTxData
 347              	.LVL19:
 709:Generated_Source\PSoC4/UART_UART.c ****         UART_UartPutChar(0x0Au);       /* Blocks control flow until all data has been sent */
 348              		.loc 1 709 0
 349 000c 0A20     		movs	r0, #10
 350 000e FFF7FEFF 		bl	UART_SpiUartWriteTxData
 351              	.LVL20:
 710:Generated_Source\PSoC4/UART_UART.c ****     }
 352              		.loc 1 710 0
 353              		@ sp needed
 354 0012 10BD     		pop	{r4, pc}
 355              		.cfi_endproc
 356              	.LFE8:
 357              		.size	UART_UartPutCRLF, .-UART_UartPutCRLF
 358              		.section	.text.UART_UartEnableCts,"ax",%progbits
 359              		.align	2
 360              		.global	UART_UartEnableCts
 361              		.code	16
 362              		.thumb_func
 363              		.type	UART_UartEnableCts, %function
 364              	UART_UartEnableCts:
 365              	.LFB9:
 711:Generated_Source\PSoC4/UART_UART.c **** 
 712:Generated_Source\PSoC4/UART_UART.c **** 
 713:Generated_Source\PSoC4/UART_UART.c ****     #if !(UART_CY_SCBIP_V0 || UART_CY_SCBIP_V1)
 714:Generated_Source\PSoC4/UART_UART.c ****         /*******************************************************************************
 715:Generated_Source\PSoC4/UART_UART.c ****         * Function Name: UARTSCB_UartEnableCts
 716:Generated_Source\PSoC4/UART_UART.c ****         ****************************************************************************//**
 717:Generated_Source\PSoC4/UART_UART.c ****         *
ARM GAS  C:\Users\Tymek\AppData\Local\Temp\cccYgUSA.s 			page 20


 718:Generated_Source\PSoC4/UART_UART.c ****         *  Enables usage of CTS input signal by the UART transmitter.
 719:Generated_Source\PSoC4/UART_UART.c ****         *  Only available for PSoC 4100 BLE / PSoC 4200 BLE / PSoC 4100M / PSoC 4200M /
 720:Generated_Source\PSoC4/UART_UART.c ****         *  PSoC 4200L / PSoC 4000S / PSoC 4100S / PSoC Analog Coprocessor devices.
 721:Generated_Source\PSoC4/UART_UART.c ****         *
 722:Generated_Source\PSoC4/UART_UART.c ****         *******************************************************************************/
 723:Generated_Source\PSoC4/UART_UART.c ****         void UART_UartEnableCts(void)
 724:Generated_Source\PSoC4/UART_UART.c ****         {
 366              		.loc 1 724 0
 367              		.cfi_startproc
 368              		@ args = 0, pretend = 0, frame = 0
 369              		@ frame_needed = 0, uses_anonymous_args = 0
 370              		@ link register save eliminated.
 725:Generated_Source\PSoC4/UART_UART.c ****             UART_UART_FLOW_CTRL_REG |= (uint32)  UART_UART_FLOW_CTRL_CTS_ENABLE;
 371              		.loc 1 725 0
 372 0000 034A     		ldr	r2, .L21
 373 0002 1368     		ldr	r3, [r2]
 374 0004 8021     		movs	r1, #128
 375 0006 8904     		lsls	r1, r1, #18
 376 0008 0B43     		orrs	r3, r1
 377 000a 1360     		str	r3, [r2]
 726:Generated_Source\PSoC4/UART_UART.c ****         }
 378              		.loc 1 726 0
 379              		@ sp needed
 380 000c 7047     		bx	lr
 381              	.L22:
 382 000e C046     		.align	2
 383              	.L21:
 384 0010 50002440 		.word	1076101200
 385              		.cfi_endproc
 386              	.LFE9:
 387              		.size	UART_UartEnableCts, .-UART_UartEnableCts
 388              		.section	.text.UART_UartDisableCts,"ax",%progbits
 389              		.align	2
 390              		.global	UART_UartDisableCts
 391              		.code	16
 392              		.thumb_func
 393              		.type	UART_UartDisableCts, %function
 394              	UART_UartDisableCts:
 395              	.LFB10:
 727:Generated_Source\PSoC4/UART_UART.c **** 
 728:Generated_Source\PSoC4/UART_UART.c **** 
 729:Generated_Source\PSoC4/UART_UART.c ****         /*******************************************************************************
 730:Generated_Source\PSoC4/UART_UART.c ****         * Function Name: UART_UartDisableCts
 731:Generated_Source\PSoC4/UART_UART.c ****         ****************************************************************************//**
 732:Generated_Source\PSoC4/UART_UART.c ****         *
 733:Generated_Source\PSoC4/UART_UART.c ****         *  Disables usage of CTS input signal by the UART transmitter.
 734:Generated_Source\PSoC4/UART_UART.c ****         *  Only available for PSoC 4100 BLE / PSoC 4200 BLE / PSoC 4100M / PSoC 4200M /
 735:Generated_Source\PSoC4/UART_UART.c ****         *  PSoC 4200L / PSoC 4000S / PSoC 4100S / PSoC Analog Coprocessor devices.
 736:Generated_Source\PSoC4/UART_UART.c ****         *
 737:Generated_Source\PSoC4/UART_UART.c ****         *******************************************************************************/
 738:Generated_Source\PSoC4/UART_UART.c ****         void UART_UartDisableCts(void)
 739:Generated_Source\PSoC4/UART_UART.c ****         {
 396              		.loc 1 739 0
 397              		.cfi_startproc
 398              		@ args = 0, pretend = 0, frame = 0
 399              		@ frame_needed = 0, uses_anonymous_args = 0
 400              		@ link register save eliminated.
ARM GAS  C:\Users\Tymek\AppData\Local\Temp\cccYgUSA.s 			page 21


 740:Generated_Source\PSoC4/UART_UART.c ****             UART_UART_FLOW_CTRL_REG &= (uint32) ~UART_UART_FLOW_CTRL_CTS_ENABLE;
 401              		.loc 1 740 0
 402 0000 024A     		ldr	r2, .L24
 403 0002 1168     		ldr	r1, [r2]
 404 0004 024B     		ldr	r3, .L24+4
 405 0006 0B40     		ands	r3, r1
 406 0008 1360     		str	r3, [r2]
 741:Generated_Source\PSoC4/UART_UART.c ****         }
 407              		.loc 1 741 0
 408              		@ sp needed
 409 000a 7047     		bx	lr
 410              	.L25:
 411              		.align	2
 412              	.L24:
 413 000c 50002440 		.word	1076101200
 414 0010 FFFFFFFD 		.word	-33554433
 415              		.cfi_endproc
 416              	.LFE10:
 417              		.size	UART_UartDisableCts, .-UART_UartDisableCts
 418              		.section	.text.UART_UartSetCtsPolarity,"ax",%progbits
 419              		.align	2
 420              		.global	UART_UartSetCtsPolarity
 421              		.code	16
 422              		.thumb_func
 423              		.type	UART_UartSetCtsPolarity, %function
 424              	UART_UartSetCtsPolarity:
 425              	.LFB11:
 742:Generated_Source\PSoC4/UART_UART.c **** 
 743:Generated_Source\PSoC4/UART_UART.c **** 
 744:Generated_Source\PSoC4/UART_UART.c ****         /*******************************************************************************
 745:Generated_Source\PSoC4/UART_UART.c ****         * Function Name: UART_UartSetCtsPolarity
 746:Generated_Source\PSoC4/UART_UART.c ****         ****************************************************************************//**
 747:Generated_Source\PSoC4/UART_UART.c ****         *
 748:Generated_Source\PSoC4/UART_UART.c ****         *  Sets active polarity of CTS input signal.
 749:Generated_Source\PSoC4/UART_UART.c ****         *  Only available for PSoC 4100 BLE / PSoC 4200 BLE / PSoC 4100M / PSoC 4200M /
 750:Generated_Source\PSoC4/UART_UART.c ****         *  PSoC 4200L / PSoC 4000S / PSoC 4100S / PSoC Analog Coprocessor devices.
 751:Generated_Source\PSoC4/UART_UART.c ****         *
 752:Generated_Source\PSoC4/UART_UART.c ****         *  \param polarity: Active polarity of CTS output signal.
 753:Generated_Source\PSoC4/UART_UART.c ****         *   - UART_UART_CTS_ACTIVE_LOW  - CTS signal is active low.
 754:Generated_Source\PSoC4/UART_UART.c ****         *   - UART_UART_CTS_ACTIVE_HIGH - CTS signal is active high.
 755:Generated_Source\PSoC4/UART_UART.c ****         *
 756:Generated_Source\PSoC4/UART_UART.c ****         *******************************************************************************/
 757:Generated_Source\PSoC4/UART_UART.c ****         void UART_UartSetCtsPolarity(uint32 polarity)
 758:Generated_Source\PSoC4/UART_UART.c ****         {
 426              		.loc 1 758 0
 427              		.cfi_startproc
 428              		@ args = 0, pretend = 0, frame = 0
 429              		@ frame_needed = 0, uses_anonymous_args = 0
 430              		@ link register save eliminated.
 431              	.LVL21:
 759:Generated_Source\PSoC4/UART_UART.c ****             if (0u != polarity)
 432              		.loc 1 759 0
 433 0000 0028     		cmp	r0, #0
 434 0002 06D0     		beq	.L27
 760:Generated_Source\PSoC4/UART_UART.c ****             {
 761:Generated_Source\PSoC4/UART_UART.c ****                 UART_UART_FLOW_CTRL_REG |= (uint32)  UART_UART_FLOW_CTRL_CTS_POLARITY;
 435              		.loc 1 761 0
ARM GAS  C:\Users\Tymek\AppData\Local\Temp\cccYgUSA.s 			page 22


 436 0004 064A     		ldr	r2, .L29
 437 0006 1368     		ldr	r3, [r2]
 438 0008 8021     		movs	r1, #128
 439 000a 4904     		lsls	r1, r1, #17
 440 000c 0B43     		orrs	r3, r1
 441 000e 1360     		str	r3, [r2]
 442 0010 04E0     		b	.L26
 443              	.L27:
 762:Generated_Source\PSoC4/UART_UART.c ****             }
 763:Generated_Source\PSoC4/UART_UART.c ****             else
 764:Generated_Source\PSoC4/UART_UART.c ****             {
 765:Generated_Source\PSoC4/UART_UART.c ****                 UART_UART_FLOW_CTRL_REG &= (uint32) ~UART_UART_FLOW_CTRL_CTS_POLARITY;
 444              		.loc 1 765 0
 445 0012 034A     		ldr	r2, .L29
 446 0014 1168     		ldr	r1, [r2]
 447 0016 034B     		ldr	r3, .L29+4
 448 0018 0B40     		ands	r3, r1
 449 001a 1360     		str	r3, [r2]
 450              	.L26:
 766:Generated_Source\PSoC4/UART_UART.c ****             }
 767:Generated_Source\PSoC4/UART_UART.c ****         }
 451              		.loc 1 767 0
 452              		@ sp needed
 453 001c 7047     		bx	lr
 454              	.L30:
 455 001e C046     		.align	2
 456              	.L29:
 457 0020 50002440 		.word	1076101200
 458 0024 FFFFFFFE 		.word	-16777217
 459              		.cfi_endproc
 460              	.LFE11:
 461              		.size	UART_UartSetCtsPolarity, .-UART_UartSetCtsPolarity
 462              		.text
 463              	.Letext0:
 464              		.file 2 "Generated_Source\\PSoC4/cytypes.h"
 465              		.file 3 "Generated_Source\\PSoC4\\UART_PVT.h"
 466              		.file 4 "Generated_Source\\PSoC4\\UART_SPI_UART.h"