ARM GAS  C:\Users\Tymek\AppData\Local\Temp\ccBDTQex.s 			page 1


   1              		.syntax unified
   2              		.cpu cortex-m0
   3              		.fpu softvfp
   4              		.eabi_attribute 20, 1
   5              		.eabi_attribute 21, 1
   6              		.eabi_attribute 23, 3
   7              		.eabi_attribute 24, 1
   8              		.eabi_attribute 25, 1
   9              		.eabi_attribute 26, 1
  10              		.eabi_attribute 30, 4
  11              		.eabi_attribute 34, 0
  12              		.eabi_attribute 18, 4
  13              		.thumb
  14              		.syntax unified
  15              		.file	"debug.c"
  16              		.text
  17              	.Ltext0:
  18              		.cfi_sections	.debug_frame
  19              		.section	.text._write,"ax",%progbits
  20              		.align	1
  21              		.global	_write
  22              		.code	16
  23              		.thumb_func
  24              		.type	_write, %function
  25              	_write:
  26              	.LFB36:
  27              		.file 1 "debug.c"
   1:debug.c       **** /*******************************************************************************
   2:debug.c       **** * File Name: debug.c
   3:debug.c       **** *
   4:debug.c       **** * Version: 1.20
   5:debug.c       **** *
   6:debug.c       **** * Description:
   7:debug.c       **** *
   8:debug.c       **** * Hardware Dependency:
   9:debug.c       **** *  CY8CKIT-042 BLE
  10:debug.c       **** *
  11:debug.c       **** ********************************************************************************
  12:debug.c       **** * Copyright 2014-2016, Cypress Semiconductor Corporation. All rights reserved.
  13:debug.c       **** * This software is owned by Cypress Semiconductor Corporation and is protected
  14:debug.c       **** * by and subject to worldwide patent and copyright laws and treaties.
  15:debug.c       **** * Therefore, you may use this software only as provided in the license agreement
  16:debug.c       **** * accompanying the software package from which you obtained this software.
  17:debug.c       **** * CYPRESS AND ITS SUPPLIERS MAKE NO WARRANTY OF ANY KIND, EXPRESS OR IMPLIED,
  18:debug.c       **** * WITH REGARD TO THIS SOFTWARE, INCLUDING, BUT NOT LIMITED TO, NONINFRINGEMENT,
  19:debug.c       **** * IMPLIED WARRANTIES OF MERCHANTABILITY AND FITNESS FOR A PARTICULAR PURPOSE.
  20:debug.c       **** *******************************************************************************/
  21:debug.c       **** 
  22:debug.c       **** #include "cytypes.h"
  23:debug.c       **** #include "debug.h"
  24:debug.c       **** #include "project.h"
  25:debug.c       **** 
  26:debug.c       **** #if (DEBUG_UART_ENABLED == YES)
  27:debug.c       **** 
  28:debug.c       **** #if defined(__ARMCC_VERSION)
  29:debug.c       **** 
  30:debug.c       **** /* For MDK/RVDS compiler revise fputc() for the printf() */
ARM GAS  C:\Users\Tymek\AppData\Local\Temp\ccBDTQex.s 			page 2


  31:debug.c       **** struct __FILE
  32:debug.c       **** {
  33:debug.c       ****     int handle;
  34:debug.c       **** };
  35:debug.c       **** 
  36:debug.c       **** enum
  37:debug.c       **** {
  38:debug.c       ****     STDIN_HANDLE,
  39:debug.c       ****     STDOUT_HANDLE,
  40:debug.c       ****     STDERR_HANDLE
  41:debug.c       **** } ;
  42:debug.c       **** 
  43:debug.c       **** FILE __stdin = {STDIN_HANDLE};
  44:debug.c       **** FILE __stdout = {STDOUT_HANDLE};
  45:debug.c       **** FILE __stderr = {STDERR_HANDLE};
  46:debug.c       **** 
  47:debug.c       **** int fputc(int ch, FILE *file)
  48:debug.c       **** {
  49:debug.c       ****     int ret = EOF;
  50:debug.c       **** 
  51:debug.c       ****     switch( file->handle )
  52:debug.c       ****     {
  53:debug.c       ****         case STDOUT_HANDLE:
  54:debug.c       ****             UART_PutChar(ch);
  55:debug.c       ****             ret = ch ;
  56:debug.c       ****             break ;
  57:debug.c       **** 
  58:debug.c       ****         case STDERR_HANDLE:
  59:debug.c       ****             ret = ch ;
  60:debug.c       ****             break ;
  61:debug.c       **** 
  62:debug.c       ****         default:
  63:debug.c       ****             file = file;
  64:debug.c       ****             break ;
  65:debug.c       ****     }
  66:debug.c       ****     return ret ;
  67:debug.c       **** }
  68:debug.c       **** 
  69:debug.c       **** #elif defined (__ICCARM__)      /* IAR */
  70:debug.c       **** 
  71:debug.c       **** /* For IAR compiler revise __write() function for printf functionality */
  72:debug.c       **** size_t __write(int handle, const unsigned char * buffer, size_t size)
  73:debug.c       **** {
  74:debug.c       ****     size_t nChars = 0;
  75:debug.c       **** 
  76:debug.c       ****     if (buffer == 0)
  77:debug.c       ****     {
  78:debug.c       ****         /*
  79:debug.c       ****          * This means that we should flush internal buffers.  Since we
  80:debug.c       ****          * don't we just return.  (Remember, "handle" == -1 means that all
  81:debug.c       ****          * handles should be flushed.)
  82:debug.c       ****          */
  83:debug.c       ****         return (0);
  84:debug.c       ****     }
  85:debug.c       **** 
  86:debug.c       ****     for (/* Empty */; size != 0; --size)
  87:debug.c       ****     {
ARM GAS  C:\Users\Tymek\AppData\Local\Temp\ccBDTQex.s 			page 3


  88:debug.c       ****         UART_PutChar(*buffer);
  89:debug.c       ****         ++buffer;
  90:debug.c       ****         ++nChars;
  91:debug.c       ****     }
  92:debug.c       **** 
  93:debug.c       ****     return (nChars);
  94:debug.c       **** }
  95:debug.c       **** 
  96:debug.c       **** #else  /* (__GNUC__)  GCC */
  97:debug.c       **** 
  98:debug.c       **** /* For GCC compiler revise _write() function for printf functionality */
  99:debug.c       **** int _write(int file, char *ptr, int len)
 100:debug.c       **** {
  28              		.loc 1 100 0
  29              		.cfi_startproc
  30              		@ args = 0, pretend = 0, frame = 0
  31              		@ frame_needed = 0, uses_anonymous_args = 0
  32              	.LVL0:
  33 0000 70B5     		push	{r4, r5, r6, lr}
  34              		.cfi_def_cfa_offset 16
  35              		.cfi_offset 4, -16
  36              		.cfi_offset 5, -12
  37              		.cfi_offset 6, -8
  38              		.cfi_offset 14, -4
  39              		.loc 1 100 0
  40 0002 0E00     		movs	r6, r1
  41 0004 1500     		movs	r5, r2
 101:debug.c       ****     int i;
 102:debug.c       ****     file = file;
 103:debug.c       ****     for (i = 0; i < len; i++)
  42              		.loc 1 103 0
  43 0006 0C00     		movs	r4, r1
  44              	.LVL1:
  45              	.L2:
  46              		.loc 1 103 0 is_stmt 0 discriminator 1
  47 0008 A31B     		subs	r3, r4, r6
  48              	.LVL2:
  49 000a 9D42     		cmp	r5, r3
  50 000c 04DD     		ble	.L5
 104:debug.c       ****     {
 105:debug.c       ****         UART_PutChar(*ptr);
  51              		.loc 1 105 0 is_stmt 1 discriminator 3
  52 000e 2078     		ldrb	r0, [r4]
  53 0010 FFF7FEFF 		bl	UART_PutChar
  54              	.LVL3:
 106:debug.c       ****         ++ptr;
  55              		.loc 1 106 0 discriminator 3
  56 0014 0134     		adds	r4, r4, #1
  57              	.LVL4:
  58 0016 F7E7     		b	.L2
  59              	.LVL5:
  60              	.L5:
 107:debug.c       ****     }
 108:debug.c       ****     return len;
 109:debug.c       **** }
  61              		.loc 1 109 0
  62 0018 2800     		movs	r0, r5
ARM GAS  C:\Users\Tymek\AppData\Local\Temp\ccBDTQex.s 			page 4


  63              		@ sp needed
  64              	.LVL6:
  65              	.LVL7:
  66 001a 70BD     		pop	{r4, r5, r6, pc}
  67              		.cfi_endproc
  68              	.LFE36:
  69              		.size	_write, .-_write
  70              		.global	__aeabi_uidiv
  71              		.section	.text.DBG_PRINT_DEC,"ax",%progbits
  72              		.align	1
  73              		.global	DBG_PRINT_DEC
  74              		.code	16
  75              		.thumb_func
  76              		.type	DBG_PRINT_DEC, %function
  77              	DBG_PRINT_DEC:
  78              	.LFB38:
 110:debug.c       **** 
 111:debug.c       **** #endif  /* (__ARMCC_VERSION) */
 112:debug.c       **** 
 113:debug.c       ****     
 114:debug.c       ****     
 115:debug.c       **** #if DEBUG_UART_USE_PRINTF_FORMAT == NO
 116:debug.c       **** 
 117:debug.c       **** static uint32 divmod10(uint32 value, uint32 *reminder)
 118:debug.c       **** {
 119:debug.c       ****     uint32_t result = value / 10u;
 120:debug.c       ****     *reminder = value - result * 10u;
 121:debug.c       ****     return result;
 122:debug.c       **** }
 123:debug.c       **** 
 124:debug.c       **** void DBG_PRINT_DEC(uint32 value)
 125:debug.c       **** {
  79              		.loc 1 125 0
  80              		.cfi_startproc
  81              		@ args = 0, pretend = 0, frame = 16
  82              		@ frame_needed = 0, uses_anonymous_args = 0
  83              	.LVL8:
  84 0000 F0B5     		push	{r4, r5, r6, r7, lr}
  85              		.cfi_def_cfa_offset 20
  86              		.cfi_offset 4, -20
  87              		.cfi_offset 5, -16
  88              		.cfi_offset 6, -12
  89              		.cfi_offset 7, -8
  90              		.cfi_offset 14, -4
  91 0002 0400     		movs	r4, r0
 126:debug.c       ****     char buf[12];
 127:debug.c       ****     uint32 len = 0;
  92              		.loc 1 127 0
  93 0004 0026     		movs	r6, #0
  94              	.LBB6:
  95              	.LBB7:
  96              	.LBB8:
 119:debug.c       ****     *reminder = value - result * 10u;
  97              		.loc 1 119 0
  98 0006 0A27     		movs	r7, #10
  99              	.LBE8:
 100              	.LBE7:
ARM GAS  C:\Users\Tymek\AppData\Local\Temp\ccBDTQex.s 			page 5


 101              	.LBE6:
 125:debug.c       ****     char buf[12];
 102              		.loc 1 125 0
 103 0008 85B0     		sub	sp, sp, #20
 104              		.cfi_def_cfa_offset 40
 105              	.LBB11:
 128:debug.c       ****     uint32 i = 0;
 129:debug.c       ****     do
 130:debug.c       ****     {
 131:debug.c       ****         uint32 rem;
 132:debug.c       ****         value = divmod10(value, &rem);
 133:debug.c       ****         buf[len] = '0' + rem;
 106              		.loc 1 133 0
 107 000a 01AD     		add	r5, sp, #4
 108              	.LVL9:
 109              	.L7:
 110              	.LBB10:
 111              	.LBB9:
 119:debug.c       ****     *reminder = value - result * 10u;
 112              		.loc 1 119 0 discriminator 1
 113 000c 2000     		movs	r0, r4
 114 000e 0A21     		movs	r1, #10
 115 0010 FFF7FEFF 		bl	__aeabi_uidiv
 116              	.LVL10:
 117              	.LBE9:
 118              	.LBE10:
 119              		.loc 1 133 0 discriminator 1
 120 0014 3B00     		movs	r3, r7
 121 0016 4343     		muls	r3, r0
 122 0018 E41A     		subs	r4, r4, r3
 123              	.LVL11:
 124 001a 3034     		adds	r4, r4, #48
 125 001c 7455     		strb	r4, [r6, r5]
 134:debug.c       ****         ++len;
 126              		.loc 1 134 0 discriminator 1
 127 001e 721C     		adds	r2, r6, #1
 128              	.LVL12:
 129 0020 041E     		subs	r4, r0, #0
 130              	.LBE11:
 135:debug.c       ****     } while (value != 0);
 131              		.loc 1 135 0 discriminator 1
 132 0022 01D0     		beq	.L11
 133              	.LBB12:
 134:debug.c       ****         ++len;
 134              		.loc 1 134 0
 135 0024 1600     		movs	r6, r2
 136 0026 F1E7     		b	.L7
 137              	.L11:
 138              	.LVL13:
 139              	.L8:
 140 0028 4142     		rsbs	r1, r0, #0
 141 002a AB19     		adds	r3, r5, r6
 142              	.LBE12:
 143              	.LBB13:
 136:debug.c       ****     for (i = 0; i < len; ++i)
 137:debug.c       ****     {
 138:debug.c       ****         char tmp = buf[len - i - 1];
ARM GAS  C:\Users\Tymek\AppData\Local\Temp\ccBDTQex.s 			page 6


 139:debug.c       ****         buf[len - i - 1] = buf[i];
 144              		.loc 1 139 0 discriminator 3
 145 002c 2F5C     		ldrb	r7, [r5, r0]
 138:debug.c       ****         buf[len - i - 1] = buf[i];
 146              		.loc 1 138 0 discriminator 3
 147 002e 5C5C     		ldrb	r4, [r3, r1]
 148              	.LVL14:
 149              		.loc 1 139 0 discriminator 3
 150 0030 5F54     		strb	r7, [r3, r1]
 140:debug.c       ****         buf[i] = tmp;
 151              		.loc 1 140 0 discriminator 3
 152 0032 2C54     		strb	r4, [r5, r0]
 153              	.LBE13:
 136:debug.c       ****     for (i = 0; i < len; ++i)
 154              		.loc 1 136 0 discriminator 3
 155 0034 0130     		adds	r0, r0, #1
 156              	.LVL15:
 157 0036 8242     		cmp	r2, r0
 158 0038 F6D1     		bne	.L8
 141:debug.c       ****     }
 142:debug.c       ****     buf[len] = '\0';
 159              		.loc 1 142 0
 160 003a 0023     		movs	r3, #0
 143:debug.c       ****     UART_PutString(buf);
 161              		.loc 1 143 0
 162 003c 2800     		movs	r0, r5
 163              	.LVL16:
 142:debug.c       ****     UART_PutString(buf);
 164              		.loc 1 142 0
 165 003e AB54     		strb	r3, [r5, r2]
 166              		.loc 1 143 0
 167 0040 FFF7FEFF 		bl	UART_PutString
 168              	.LVL17:
 144:debug.c       **** }
 169              		.loc 1 144 0
 170 0044 05B0     		add	sp, sp, #20
 171              		@ sp needed
 172              	.LVL18:
 173              	.LVL19:
 174 0046 F0BD     		pop	{r4, r5, r6, r7, pc}
 175              		.cfi_endproc
 176              	.LFE38:
 177              		.size	DBG_PRINT_DEC, .-DBG_PRINT_DEC
 178              		.section	.text.DBG_PRINT_HEX,"ax",%progbits
 179              		.align	1
 180              		.global	DBG_PRINT_HEX
 181              		.code	16
 182              		.thumb_func
 183              		.type	DBG_PRINT_HEX, %function
 184              	DBG_PRINT_HEX:
 185              	.LFB39:
 145:debug.c       **** 
 146:debug.c       **** 
 147:debug.c       **** void DBG_PRINT_HEX(uint32 a)
 148:debug.c       **** {
 186              		.loc 1 148 0
 187              		.cfi_startproc
ARM GAS  C:\Users\Tymek\AppData\Local\Temp\ccBDTQex.s 			page 7


 188              		@ args = 0, pretend = 0, frame = 0
 189              		@ frame_needed = 0, uses_anonymous_args = 0
 190              	.LVL20:
 191 0000 70B5     		push	{r4, r5, r6, lr}
 192              		.cfi_def_cfa_offset 16
 193              		.cfi_offset 4, -16
 194              		.cfi_offset 5, -12
 195              		.cfi_offset 6, -8
 196              		.cfi_offset 14, -4
 197              		.loc 1 148 0
 198 0002 0400     		movs	r4, r0
 149:debug.c       ****     int len = 0;
 199              		.loc 1 149 0
 200 0004 0025     		movs	r5, #0
 201              	.LVL21:
 202              	.L14:
 150:debug.c       ****     do
 151:debug.c       ****     {
 152:debug.c       ****         if ((a >> 24) != 0)
 203              		.loc 1 152 0
 204 0006 230E     		lsrs	r3, r4, #24
 205 0008 03D1     		bne	.L13
 153:debug.c       ****         {
 154:debug.c       ****             break;
 155:debug.c       ****         }
 156:debug.c       ****         a <<= 8u;
 157:debug.c       ****         ++len;
 206              		.loc 1 157 0
 207 000a 0135     		adds	r5, r5, #1
 208              	.LVL22:
 156:debug.c       ****         ++len;
 209              		.loc 1 156 0
 210 000c 2402     		lsls	r4, r4, #8
 211              	.LVL23:
 158:debug.c       ****     }
 159:debug.c       ****     while (len < 3);
 212              		.loc 1 159 0
 213 000e 032D     		cmp	r5, #3
 214 0010 F9D1     		bne	.L14
 215              	.L13:
 160:debug.c       ****     len = 4 - len;
 216              		.loc 1 160 0
 217 0012 0423     		movs	r3, #4
 218 0014 5D1B     		subs	r5, r3, r5
 219              	.LVL24:
 220              	.L15:
 161:debug.c       **** 
 162:debug.c       ****     for ( ; len != 0; --len)
 163:debug.c       ****     {
 164:debug.c       ****         UART_PutHexByte(a >> 24);
 221              		.loc 1 164 0 discriminator 2
 222 0016 200E     		lsrs	r0, r4, #24
 162:debug.c       ****     {
 223              		.loc 1 162 0 discriminator 2
 224 0018 013D     		subs	r5, r5, #1
 225              	.LVL25:
 226              		.loc 1 164 0 discriminator 2
ARM GAS  C:\Users\Tymek\AppData\Local\Temp\ccBDTQex.s 			page 8


 227 001a FFF7FEFF 		bl	UART_PutHexByte
 228              	.LVL26:
 165:debug.c       ****         a <<= 8;
 229              		.loc 1 165 0 discriminator 2
 230 001e 2402     		lsls	r4, r4, #8
 231              	.LVL27:
 162:debug.c       ****     {
 232              		.loc 1 162 0 discriminator 2
 233 0020 002D     		cmp	r5, #0
 234 0022 F8D1     		bne	.L15
 166:debug.c       ****     }
 167:debug.c       **** }
 235              		.loc 1 167 0
 236              		@ sp needed
 237              	.LVL28:
 238              	.LVL29:
 239 0024 70BD     		pop	{r4, r5, r6, pc}
 240              		.cfi_endproc
 241              	.LFE39:
 242              		.size	DBG_PRINT_HEX, .-DBG_PRINT_HEX
 243              		.section	.text.DBG_PRINT_HEX_TEXT,"ax",%progbits
 244              		.align	1
 245              		.global	DBG_PRINT_HEX_TEXT
 246              		.code	16
 247              		.thumb_func
 248              		.type	DBG_PRINT_HEX_TEXT, %function
 249              	DBG_PRINT_HEX_TEXT:
 250              	.LFB40:
 168:debug.c       **** 
 169:debug.c       **** #endif /* DEBUG_UART_USE_PRINTF_FORMAT == NO */
 170:debug.c       **** 
 171:debug.c       **** void DBG_PRINT_HEX_TEXT(uint32 hex, char *text)
 172:debug.c       **** {
 251              		.loc 1 172 0
 252              		.cfi_startproc
 253              		@ args = 0, pretend = 0, frame = 0
 254              		@ frame_needed = 0, uses_anonymous_args = 0
 255              	.LVL30:
 256 0000 10B5     		push	{r4, lr}
 257              		.cfi_def_cfa_offset 8
 258              		.cfi_offset 4, -8
 259              		.cfi_offset 14, -4
 260              		.loc 1 172 0
 261 0002 0C00     		movs	r4, r1
 173:debug.c       ****     DBG_PRINT_HEX(hex);
 262              		.loc 1 173 0
 263 0004 FFF7FEFF 		bl	DBG_PRINT_HEX
 264              	.LVL31:
 174:debug.c       ****     DBG_PRINT_TEXT(text);
 265              		.loc 1 174 0
 266 0008 2000     		movs	r0, r4
 267 000a FFF7FEFF 		bl	UART_PutString
 268              	.LVL32:
 175:debug.c       **** }
 269              		.loc 1 175 0
 270              		@ sp needed
 271              	.LVL33:
ARM GAS  C:\Users\Tymek\AppData\Local\Temp\ccBDTQex.s 			page 9


 272 000e 10BD     		pop	{r4, pc}
 273              		.cfi_endproc
 274              	.LFE40:
 275              		.size	DBG_PRINT_HEX_TEXT, .-DBG_PRINT_HEX_TEXT
 276              		.section	.text.DBG_PRINT_HEX8_TEXT,"ax",%progbits
 277              		.align	1
 278              		.global	DBG_PRINT_HEX8_TEXT
 279              		.code	16
 280              		.thumb_func
 281              		.type	DBG_PRINT_HEX8_TEXT, %function
 282              	DBG_PRINT_HEX8_TEXT:
 283              	.LFB41:
 176:debug.c       **** 
 177:debug.c       **** void DBG_PRINT_HEX8_TEXT(uint32 hex, char *text)
 178:debug.c       **** {
 284              		.loc 1 178 0
 285              		.cfi_startproc
 286              		@ args = 0, pretend = 0, frame = 0
 287              		@ frame_needed = 0, uses_anonymous_args = 0
 288              	.LVL34:
 289 0000 10B5     		push	{r4, lr}
 290              		.cfi_def_cfa_offset 8
 291              		.cfi_offset 4, -8
 292              		.cfi_offset 14, -4
 293              		.loc 1 178 0
 294 0002 0C00     		movs	r4, r1
 179:debug.c       ****     DBG_PRINT_HEX_BYTE(hex);
 295              		.loc 1 179 0
 296 0004 C0B2     		uxtb	r0, r0
 297              	.LVL35:
 298 0006 FFF7FEFF 		bl	UART_PutHexByte
 299              	.LVL36:
 180:debug.c       ****     DBG_PRINT_TEXT(text);
 300              		.loc 1 180 0
 301 000a 2000     		movs	r0, r4
 302 000c FFF7FEFF 		bl	UART_PutString
 303              	.LVL37:
 181:debug.c       **** }
 304              		.loc 1 181 0
 305              		@ sp needed
 306              	.LVL38:
 307 0010 10BD     		pop	{r4, pc}
 308              		.cfi_endproc
 309              	.LFE41:
 310              		.size	DBG_PRINT_HEX8_TEXT, .-DBG_PRINT_HEX8_TEXT
 311              		.section	.text.DBG_PRINT_DEC_TEXT,"ax",%progbits
 312              		.align	1
 313              		.global	DBG_PRINT_DEC_TEXT
 314              		.code	16
 315              		.thumb_func
 316              		.type	DBG_PRINT_DEC_TEXT, %function
 317              	DBG_PRINT_DEC_TEXT:
 318              	.LFB42:
 182:debug.c       **** 
 183:debug.c       **** void DBG_PRINT_DEC_TEXT(uint32 dec, char *text)
 184:debug.c       **** {
 319              		.loc 1 184 0
ARM GAS  C:\Users\Tymek\AppData\Local\Temp\ccBDTQex.s 			page 10


 320              		.cfi_startproc
 321              		@ args = 0, pretend = 0, frame = 0
 322              		@ frame_needed = 0, uses_anonymous_args = 0
 323              	.LVL39:
 324 0000 10B5     		push	{r4, lr}
 325              		.cfi_def_cfa_offset 8
 326              		.cfi_offset 4, -8
 327              		.cfi_offset 14, -4
 328              		.loc 1 184 0
 329 0002 0C00     		movs	r4, r1
 185:debug.c       ****     DBG_PRINT_DEC(dec);
 330              		.loc 1 185 0
 331 0004 FFF7FEFF 		bl	DBG_PRINT_DEC
 332              	.LVL40:
 186:debug.c       ****     DBG_PRINT_TEXT(text);
 333              		.loc 1 186 0
 334 0008 2000     		movs	r0, r4
 335 000a FFF7FEFF 		bl	UART_PutString
 336              	.LVL41:
 187:debug.c       **** }
 337              		.loc 1 187 0
 338              		@ sp needed
 339              	.LVL42:
 340 000e 10BD     		pop	{r4, pc}
 341              		.cfi_endproc
 342              	.LFE42:
 343              		.size	DBG_PRINT_DEC_TEXT, .-DBG_PRINT_DEC_TEXT
 344              		.text
 345              	.Letext0:
 346              		.file 2 "d:\\apps\\cypress psoc creator\\psoc creator\\4.1\\psoc creator\\import\\gnu\\arm\\5.4.1\
 347              		.file 3 "d:\\apps\\cypress psoc creator\\psoc creator\\4.1\\psoc creator\\import\\gnu\\arm\\5.4.1\
 348              		.file 4 "Generated_Source\\PSoC4/cytypes.h"
 349              		.file 5 "Generated_Source\\PSoC4/UART.h"